
test.elf:     file format elf32-littleriscv
test.elf
architecture: riscv:rv32, flags 0x00000112:
EXEC_P, HAS_SYMS, D_PAGED
start address 0x00000000

Program Header:
    LOAD off    0x00001000 vaddr 0x00000000 paddr 0x00000000 align 2**12
         filesz 0x0000a7fc memsz 0x0000a7fc flags r-x
    LOAD off    0x0000c000 vaddr 0x20000000 paddr 0x0000a7fc align 2**12
         filesz 0x000001d8 memsz 0x0000b730 flags rw-
    LOAD off    0x0000c800 vaddr 0x2000f800 paddr 0x2000f800 align 2**12
         filesz 0x00000000 memsz 0x00000800 flags rw-

Sections:
Idx Name          Size      VMA       LMA       File off  Algn
  0 .init         00000038  00000000  00000000  00001000  2**1
                  CONTENTS, ALLOC, LOAD, READONLY, CODE
  1 .vector       000001c8  00000038  00000038  00001038  2**1
                  CONTENTS, ALLOC, LOAD, READONLY, CODE
  2 .text         0000a5fc  00000200  00000200  00001200  2**3
                  CONTENTS, ALLOC, LOAD, READONLY, CODE
  3 .fini         00000000  0000a7fc  0000a7fc  0000c1d8  2**0
                  CONTENTS, ALLOC, LOAD, CODE
  4 .dalign       00000000  20000000  20000000  0000c1d8  2**0
                  CONTENTS
  5 .dlalign      00000000  0000a7fc  0000a7fc  0000c1d8  2**0
                  CONTENTS
  6 .data         000001d8  20000000  0000a7fc  0000c000  2**2
                  CONTENTS, ALLOC, LOAD, DATA
  7 .bss          0000b558  200001d8  0000a9d4  0000c1d8  2**2
                  ALLOC
  8 .stack        00000800  2000f800  2000f800  0000c800  2**0
                  ALLOC
  9 .debug_info   000304a6  00000000  00000000  0000c1d8  2**0
                  CONTENTS, READONLY, DEBUGGING
 10 .debug_abbrev 000075c1  00000000  00000000  0003c67e  2**0
                  CONTENTS, READONLY, DEBUGGING
 11 .debug_aranges 000011d0  00000000  00000000  00043c40  2**3
                  CONTENTS, READONLY, DEBUGGING
 12 .debug_ranges 000011c0  00000000  00000000  00044e10  2**3
                  CONTENTS, READONLY, DEBUGGING
 13 .debug_line   00020c1f  00000000  00000000  00045fd0  2**0
                  CONTENTS, READONLY, DEBUGGING
 14 .debug_str    00006c9d  00000000  00000000  00066bef  2**0
                  CONTENTS, READONLY, DEBUGGING
 15 .comment      00000033  00000000  00000000  0006d88c  2**0
                  CONTENTS, READONLY
 16 .debug_frame  00003eec  00000000  00000000  0006d8c0  2**2
                  CONTENTS, READONLY, DEBUGGING
 17 .debug_loc    0000c87a  00000000  00000000  000717ac  2**0
                  CONTENTS, READONLY, DEBUGGING
 18 .stab         000000b4  00000000  00000000  0007e028  2**2
                  CONTENTS, READONLY, DEBUGGING
 19 .stabstr      00000183  00000000  00000000  0007e0dc  2**0
                  CONTENTS, READONLY, DEBUGGING
SYMBOL TABLE:
00000000 l    d  .init	00000000 .init
00000038 l    d  .vector	00000000 .vector
00000200 l    d  .text	00000000 .text
0000a7fc l    d  .fini	00000000 .fini
20000000 l    d  .dalign	00000000 .dalign
0000a7fc l    d  .dlalign	00000000 .dlalign
20000000 l    d  .data	00000000 .data
200001d8 l    d  .bss	00000000 .bss
2000f800 l    d  .stack	00000000 .stack
00000000 l    d  .debug_info	00000000 .debug_info
00000000 l    d  .debug_abbrev	00000000 .debug_abbrev
00000000 l    d  .debug_aranges	00000000 .debug_aranges
00000000 l    d  .debug_ranges	00000000 .debug_ranges
00000000 l    d  .debug_line	00000000 .debug_line
00000000 l    d  .debug_str	00000000 .debug_str
00000000 l    d  .comment	00000000 .comment
00000000 l    d  .debug_frame	00000000 .debug_frame
00000000 l    d  .debug_loc	00000000 .debug_loc
00000000 l    d  .stab	00000000 .stab
00000000 l    d  .stabstr	00000000 .stabstr
00000000 l    df *ABS*	00000000 ./CH32V30x/CH32V30x_p/Startup/startup_ch32v30x.o
00000038 l       .vector	00000000 _vector_base
00000000 l    df *ABS*	00000000 isr.c
00000000 l    df *ABS*	00000000 main.c
00000000 l    df *ABS*	00000000 HF_Double_DC_Motor.c
00000000 l    df *ABS*	00000000 HF_IPS114.c
00000b6a l     F .text	0000003a ips114_write_index
00000ba4 l     F .text	00000106 ips114_set_region
20000188 l     O .data	00000002 ips114_bgcolor
2000018c l     O .data	00000004 ips114_display_dir
20000190 l     O .data	00000002 ips114_pencolor
20000192 l     O .data	00000001 ips114_x_max
20000193 l     O .data	00000001 ips114_y_max
00000000 l    df *ABS*	00000000 HF_MT9V03X.c
000011cc l     F .text	000000b2 mt9v03x_get_config_dvp.constprop.0
00009cb4 l     O .text	00000011 __func__.6409
200001dc l     O .bss	00000003 receive_dvp
200001df l     O .bss	00000001 receive_num_dvp
200001e0 l     O .bss	00000001 uart_receive_flag_dvp
00000000 l    df *ABS*	00000000 HF_TFT180.c
00000000 l    df *ABS*	00000000 HF_WS2812b.c
00000000 l    df *ABS*	00000000 dmx_tof400c.c
000015e2 l     F .text	00000038 TOF400C_Start
0000161a l     F .text	0000003c TOF400C_Stop
00001656 l     F .text	0000009c TOF400C_Write_Char
000016f2 l     F .text	0000003e TOF400C_Write_Datas
00001730 l     F .text	000000bc TOF400C_Read_Char
000017ec l     F .text	0000006c TOF400C_Read_Datas
00000000 l    df *ABS*	00000000 board.c
00000000 l    df *ABS*	00000000 delay.c
00000000 l    df *ABS*	00000000 hf_adc.c
00000000 l    df *ABS*	00000000 hf_dvp.c
00000000 l    df *ABS*	00000000 hf_exti.c
00000000 l    df *ABS*	00000000 hf_gpio.c
00000000 l    df *ABS*	00000000 hf_nvic.c
00000000 l    df *ABS*	00000000 hf_pwm.c
00000000 l    df *ABS*	00000000 hf_spi.c
00000000 l    df *ABS*	00000000 hf_tim.c
00000000 l    df *ABS*	00000000 hf_uart.c
00000000 l    df *ABS*	00000000 Bend.c
00000000 l    df *ABS*	00000000 CrossRound.c
20000194 l     O .data	00000004 repair_status.6396
00000000 l    df *ABS*	00000000 binary.c
00000000 l    df *ABS*	00000000 board_led.c
00000000 l    df *ABS*	00000000 car_init.c
00000000 l    df *ABS*	00000000 car_keys.c
00000000 l    df *ABS*	00000000 car_ligth.c
200001e8 l     O .bss	00000003 rgb_off
20000198 l     O .data	00000003 rgb_blue
2000019c l     O .data	00000003 rgb_cyan
200001a0 l     O .data	00000003 rgb_green
200001a4 l     O .data	00000003 rgb_purple
200001a8 l     O .data	00000003 rgb_red
200001ac l     O .data	00000003 rgb_white
200001b0 l     O .data	00000003 rgb_yellow
00000000 l    df *ABS*	00000000 car_reed.c
00000000 l    df *ABS*	00000000 center_line.c
00000000 l    df *ABS*	00000000 pid.c
00000000 l    df *ABS*	00000000 ch32v30x_adc.c
00000000 l    df *ABS*	00000000 ch32v30x_exti.c
00000000 l    df *ABS*	00000000 ch32v30x_gpio.c
00000000 l    df *ABS*	00000000 ch32v30x_misc.c
00000000 l    df *ABS*	00000000 ch32v30x_rcc.c
200000d4 l     O .data	00000010 APBAHBPrescTable
200001b4 l     O .data	00000004 ADCPrescTable
00000000 l    df *ABS*	00000000 ch32v30x_spi.c
00000000 l    df *ABS*	00000000 ch32v30x_tim.c
00000000 l    df *ABS*	00000000 ch32v30x_usart.c
00000000 l    df *ABS*	00000000 ch32v30x_usbotg_device.c
00000000 l    df *ABS*	00000000 system_ch32v30x.c
00000000 l    df *ABS*	00000000 adddf3.c
00000000 l    df *ABS*	00000000 divdf3.c
00000000 l    df *ABS*	00000000 gedf2.c
00000000 l    df *ABS*	00000000 ledf2.c
00000000 l    df *ABS*	00000000 muldf3.c
00000000 l    df *ABS*	00000000 subdf3.c
00000000 l    df *ABS*	00000000 fixdfsi.c
00000000 l    df *ABS*	00000000 floatsidf.c
00000000 l    df *ABS*	00000000 floatunsidf.c
00000000 l    df *ABS*	00000000 addsf3.c
00000000 l    df *ABS*	00000000 gesf2.c
00000000 l    df *ABS*	00000000 lesf2.c
00000000 l    df *ABS*	00000000 mulsf3.c
00000000 l    df *ABS*	00000000 subsf3.c
00000000 l    df *ABS*	00000000 fixunssfsi.c
00000000 l    df *ABS*	00000000 floatsisf.c
00000000 l    df *ABS*	00000000 libgcc2.c
00000000 l    df *ABS*	00000000 assert.c
00000000 l    df *ABS*	00000000 fprintf.c
00000000 l    df *ABS*	00000000 malloc.c
00000000 l    df *ABS*	00000000 memcpy.c
00000000 l    df *ABS*	00000000 nano-mallocr.c
00000000 l    df *ABS*	00000000 nano-mallocr.c
00000000 l    df *ABS*	00000000 nano-vfprintf.c
00008a8a l     F .text	0000002a __sfputc_r
00000000 l    df *ABS*	00000000 nano-vfprintf_i.c
00000000 l    df *ABS*	00000000 printf.c
00000000 l    df *ABS*	00000000 puts.c
00000000 l    df *ABS*	00000000 sbrkr.c
00000000 l    df *ABS*	00000000 wbuf.c
00000000 l    df *ABS*	00000000 wsetup.c
00000000 l    df *ABS*	00000000 abort.c
00000000 l    df *ABS*	00000000 fflush.c
00000000 l    df *ABS*	00000000 findfp.c
00009628 l     F .text	0000006a std
00000000 l    df *ABS*	00000000 fwalk.c
00000000 l    df *ABS*	00000000 makebuf.c
00000000 l    df *ABS*	00000000 memchr.c
00000000 l    df *ABS*	00000000 mlock.c
00000000 l    df *ABS*	00000000 signal.c
00000000 l    df *ABS*	00000000 signalr.c
00000000 l    df *ABS*	00000000 stdio.c
00000000 l    df *ABS*	00000000 writer.c
00000000 l    df *ABS*	00000000 closer.c
00000000 l    df *ABS*	00000000 fstatr.c
00000000 l    df *ABS*	00000000 isattyr.c
00000000 l    df *ABS*	00000000 lseekr.c
00000000 l    df *ABS*	00000000 readr.c
00000000 l    df *ABS*	00000000 close.c
00000000 l    df *ABS*	00000000 fstat.c
00000000 l    df *ABS*	00000000 getpid.c
00000000 l    df *ABS*	00000000 isatty.c
00000000 l    df *ABS*	00000000 kill.c
00000000 l    df *ABS*	00000000 lseek.c
00000000 l    df *ABS*	00000000 read.c
00000000 l    df *ABS*	00000000 sbrk.c
20000200 l     O .bss	00000004 heap_end.1518
00000000 l    df *ABS*	00000000 _exit.c
00000000 l    df *ABS*	00000000 hf_common_font.c
00000000 l    df *ABS*	00000000 libgcc2.c
00000000 l    df *ABS*	00000000 impure.c
20000128 l     O .data	00000060 impure_data
00000000 l    df *ABS*	00000000 common.c
00000000 l    df *ABS*	00000000 reent.c
0000193c g     F .text	00000064 Get_Distance_TOF400C
00000446 g     F .text	00000016 EXTI2_IRQHandler
20000204 g     O .bss	00000004 flagLED
00004ab2  w      .text	00000000 TIM8_TRG_COM_IRQHandler
00004ab4  w      .text	00000000 TIM8_CC_IRQHandler
200001f6 g     O .bss	00000001 USBHD_Dev_SleepStatus
00009b66 g     F .text	00000030 _isatty_r
20005d78 g     O .bss	00005820 mt9v03x_image_dvp
00002fca g     F .text	0000019e check_rightangle_bend
00009c1e g     F .text	00000010 _getpid
00009190 g     F .text	000000da _puts_r
0000578a g     F .text	00000016 DevEP1_IN_Deal
00009b96 g     F .text	00000034 _lseek_r
20000208 g     O .bss	00000001 rightangle_flag
000003ce g     F .text	0000001e UART8_IRQHandler
00002960 g     F .text	000000d4 uart_interrupt_init
20000209 g     O .bss	00000001 Cross_status
2000020c g     O .bss	00000004 num_R_row
000099e0 g     F .text	00000032 _kill_r
0000557c g     F .text	00000028 TIM_CCxCmd
00009150 g     F .text	00000040 printf
20000988 g       .data	00000000 __global_pointer$
00004a8e  w      .text	00000000 TIM1_CC_IRQHandler
20000210 g     O .bss	00000004 num_white
00009a92 g     F .text	00000036 __sseek
000096e4 g     F .text	0000006c __sinit
000092a8 g     F .text	000000c0 __swbuf_r
000002ac g     F .text	00000004 HardFault_Handler
20000214 g     O .bss	00000001 first1
0000969c g     F .text	00000048 __sfmoreglue
20000215 g     O .bss	00000001 round_dot1_row
00009970 g     F .text	00000002 __malloc_unlock
20000218 g     O .bss	00000078 Right_line
00004108 g     F .text	00000092 key_init
00000686 g     F .text	0000001a TIM6_IRQHandler
0000550a g     F .text	00000012 TIM_OC1PreloadConfig
00004a54  w      .text	00000000 SysTick_Handler
00004c5a g     F .text	0000000a ADC_StartCalibration
00004e7c g     F .text	000000b8 NVIC_Init
00002e66 g     F .text	00000164 check_bend
00004a5a  w      .text	00000000 PVD_IRQHandler
200001e4 g     O .bss	00000004 sys_clk
00004aba  w      .text	00000000 SDIO_IRQHandler
00004aec  w      .text	00000000 TIM9_BRK_IRQHandler
00004b00  w      .text	00000000 DMA2_Channel8_IRQHandler
000002a8 g     F .text	00000004 NMI_Handler
0000286c g     F .text	000000a4 timbase_init
0000095c g     F .text	00000062 motor_init
00004238 g     F .text	0000001c car_both_rgb_off
00004ada  w      .text	00000000 CAN2_RX1_IRQHandler
0000045c g     F .text	00000038 EXTI3_IRQHandler
20000290 g     O .bss	00000078 Left_line
00006d26 g     F .text	000000ae .hidden __gtdf2
20000308 g     O .bss	00000004 num_R
00004ae2  w      .text	00000000 USBHS_IRQHandler
00004a56  w      .text	00000000 SW_handler
0000426c g     F .text	00000018 car_yellow_right
00005724 g     F .text	0000000c USART_GetFlagStatus
00004b02  w      .text	00000000 DMA2_Channel9_IRQHandler
00009b34 g     F .text	00000032 _fstat_r
0000a388 g     O .text	00000020 TIMERN
0000a4e4 g     O .text	00000014 MyReportDescHD
00004afa  w      .text	00000000 TIM10_CC_IRQHandler
2000b72c g     O .bss	00000004 errno
200000e4 g     O .data	00000043 TAB_USB_FS_OSC_DESC
200001d8 g       .bss	00000000 _sbss
00000800 g       *ABS*	00000000 __stack_size
000082ce g     F .text	00000388 .hidden __subsf3
2000030c g     O .bss	00000001 WtoB_L
2000b5c8 g     O .bss	00000001 DevConfig
0000419a g     F .text	0000009e car_both_rgb_on
00001f36 g     F .text	0000001a interrupt_disable
2000030d g     O .bss	00000001 first3
000054f4 g     F .text	00000016 TIM_CtrlPWMOutputs
20000310 g     O .bss	00000004 A
00008852 g     F .text	000000b6 memcpy
200001c8 g     O .data	00000008 uart_irq
00004c38 g     F .text	00000010 ADC_Cmd
000047a0 g     F .text	000000a6 error_average
2000b5cc g     O .bss	00000080 EP2_DatabufHD
00001ed4 g     F .text	00000026 gpio_bit_output
00009692 g     F .text	0000000a _cleanup_r
00004dca g     F .text	00000086 GPIO_PinRemapConfig
00007ae8 g     F .text	00000072 .hidden __floatsidf
00006dd4 g     F .text	000000b6 .hidden __ltdf2
0000040c g     F .text	00000014 EXTI0_IRQHandler
00004a9a  w      .text	00000000 I2C2_EV_IRQHandler
00004af8  w      .text	00000000 TIM10_TRG_COM_IRQHandler
2000b64c g     O .bss	00000002 SetupReqLen
000054d8 g     F .text	0000001c TIM_Cmd
0000926a g     F .text	0000000c puts
00005548 g     F .text	0000001a TIM_OC4PreloadConfig
000042e6 g     F .text	0000034e CenterLine
0000a4f8 g     O .text	00000016 MySerNumInfoHD
200001c0 g     O .data	00000004 SystemCoreClock
00002930 g     F .text	00000030 uart_putbuff
00008848 g     F .text	0000000a malloc
000055b6 g     F .text	0000000e TIM_ClearFlag
0000402c g     F .text	0000002c board_led_init
00009972 g     F .text	00000062 _raise_r
00009c0e g     F .text	00000010 _fstat
0000271c g     F .text	00000102 spi_init
000087e8 g     F .text	0000003a __assert_func
00000038 g       .init	00000000 _einit
000055e0 g     F .text	0000000e TIM_ClearITPendingBit
0000a510 g     O .text	0000000a MyUSBQUADescHD
00000db0 g     F .text	00000042 ips114_show_string
00007fb2 g     F .text	0000008c .hidden __lesf2
00005072 g     F .text	0000001e RCC_APB2PeriphClockCmd
000046ce g     F .text	000000d2 Car_PID_ERROR
00001300 g     F .text	0000018e mt9v03x_init_dvp
00009d78 g     O .text	000005f0 tft_ascii
00004adc  w      .text	00000000 CAN2_SCE_IRQHandler
00004a7c  w      .text	00000000 ADC1_2_IRQHandler
200001ec g     O .bss	00000004 flag
2000b59c g     O .bss	00000014 L_PID
00009a12 g     F .text	00000002 _getpid_r
00004cfe g     F .text	000000c2 GPIO_Init
00004846 g     F .text	00000204 pid_forward_move
00004f34 g     F .text	00000012 RCC_ADCCLKConfig
00004a52  w      .text	00000000 Break_Point_Handler
2000b64e g     O .bss	00000001 SetupReqCode
00003168 g     F .text	0000008c correct_bend_error
00001f60 g     F .text	0000001e nvic_init
200001f0 g     O .bss	00000004 NVIC_Priority_Group
00004a9e  w      .text	00000000 SPI1_IRQHandler
00004c48 g     F .text	0000000a ADC_ResetCalibration
000056c8 g     F .text	0000001c USART_Cmd
00009276 g     F .text	00000032 _sbrk_r
00004a5c  w      .text	00000000 TAMPER_IRQHandler
00001a98 g     F .text	000000c6 adc_gpio_init
20000314 g     O .bss	00005820 Pixel
00005370 g     F .text	000000ca TIM_OC3Init
00009bca g     F .text	00000034 _read_r
00005774 g     F .text	00000016 USART_ClearITPendingBit
00004ad8  w      .text	00000000 CAN2_RX0_IRQHandler
000006c6 g     F .text	00000026 TIM8_UP_IRQHandler
0000a37c g     O .text	0000000c SPIN
00001858 g     F .text	000000e4 Init_TOF400C
00005090 g     F .text	0000001e RCC_APB1PeriphClockCmd
00006042 g     F .text	00000730 .hidden __adddf3
00004a4e  w      .text	00000000 Ecall_M_Mode_Handler
00009c2e g     F .text	00000010 _isatty
00001a2a g     F .text	00000038 Delay_Us
200001d4 g     O .data	00000004 _global_impure_ptr
000055aa g     F .text	0000000c TIM_GetFlagStatus
00000df2 g     F .text	00000062 ips114_show_int
00004aca  w      .text	00000000 DMA2_Channel2_IRQHandler
00005054 g     F .text	0000001e RCC_AHBPeriphClockCmd
00004a74  w      .text	00000000 DMA1_Channel4_IRQHandler
00004058 g     F .text	000000b0 car_init
00009476 g     F .text	0000000e abort
00007b5a g     F .text	00000068 .hidden __floatunsidf
00009c6e g     F .text	00000024 _sbrk
20005b34 g     O .bss	00000001 L_D_dot
0000127e g     F .text	00000060 mt9v03x_uart_callback_dvp
000006ec g     F .text	00000026 TIM9_UP_IRQHandler
00000304 g     F .text	0000002a USART3_IRQHandler
00004cf4 g     F .text	0000000a EXTI_ClearITPendingBit
20000024 g     O .data	00000028 mt9v03x_set_confing_buffer_dvp
00004a5e  w      .text	00000000 RTC_IRQHandler
00004c64 g     F .text	00000008 ADC_GetCalibrationStatus
2000b730 g       .bss	00000000 _ebss
20005b35 g     O .bss	00000001 black_white_flag
00005730 g     F .text	00000044 USART_GetITStatus
00004a7a  w      .text	00000000 DMA1_Channel7_IRQHandler
000034f2 g     F .text	000000ec check_black_white_line
00005204 g     F .text	000000a0 TIM_OC1Init
00005536 g     F .text	00000012 TIM_OC3PreloadConfig
00004c52 g     F .text	00000008 ADC_GetResetCalibrationStatus
0000a4d8 g     O .text	0000000c MyProdInfoHD
20005b38 g     O .bss	00000004 B
00004a82  w      .text	00000000 CAN1_RX1_IRQHandler
00007a80 g     F .text	00000068 .hidden __fixdfsi
00000f0c g     F .text	000002c0 ips114_init
00001a28 g     F .text	00000002 Delay_Init
000032f4 g     F .text	000001fe correct_three
20005b3c g     O .bss	00000001 Threshold
000003ec g     F .text	00000020 DVP_IRQHandler
00000358 g     F .text	00000022 UART5_IRQHandler
00000caa g     F .text	00000044 ips114_clear
00004634 g     F .text	0000009a init_PID
2000b650 g     O .bss	00000004 pDescr
200001d0 g     O .data	00000004 MyLangDescrHD
00007f2c g     F .text	00000086 .hidden __gtsf2
0000a3a8 g     O .text	00000020 UARTN
00002420 g     F .text	000001c2 pwm_init
00008822 g     F .text	00000026 fprintf
00003d3e g     F .text	0000004e GetHistGram
0000063a g     F .text	00000026 TIM4_IRQHandler
00004004 g     F .text	00000028 ImageHandle
20005b3d g     O .bss	00000001 WtoB_R
00006dd4 g     F .text	000000b6 .hidden __ledf2
00004dc0 g     F .text	0000000a GPIO_WriteBit
20005b3e g     O .bss	00000001 choose
00004ac8  w      .text	00000000 DMA2_Channel1_IRQHandler
0000a79c g     O .text	00000020 __sf_fake_stderr
20005b3f g     O .bss	00000001 first2
2000b730 g       .bss	00000000 end
200001b8 g     O .data	00000007 LineCoding
20005b40 g     O .bss	00000001 L_U_dot
00004a96  w      .text	00000000 I2C1_EV_IRQHandler
000035de g     F .text	000000c4 road_type
000055c4 g     F .text	0000001c TIM_GetITStatus
0000283a g     F .text	00000032 spi_write_16bit
00004f46 g     F .text	0000010e RCC_GetClocksFreq
00004a78  w      .text	00000000 DMA1_Channel6_IRQHandler
00008772 g     F .text	00000076 .hidden __clzsi2
00008ab4 g     F .text	00000044 __sfputs_r
00002c98 g     F .text	000001ce uart_init
0000032e g     F .text	0000002a UART4_IRQHandler
00004ace  w      .text	00000000 DMA2_Channel4_IRQHandler
00009954 g     F .text	0000001a memchr
000055ee g     F .text	000000da USART_Init
00008908 g     F .text	000000a8 _free_r
00000614 g     F .text	00000026 TIM3_IRQHandler
00004a62  w      .text	00000000 RCC_IRQHandler
00002a5a g     F .text	0000023e uart_gpio_init
00004a8c  w      .text	00000000 TIM1_TRG_COM_IRQHandler
00004a6e  w      .text	00000000 DMA1_Channel1_IRQHandler
00000000 g       .init	00000000 _start
00004afe  w      .text	00000000 DMA2_Channel7_IRQHandler
00009c4e g     F .text	00000010 _lseek
0000551c g     F .text	0000001a TIM_OC2PreloadConfig
000086ac g     F .text	000000c6 .hidden __floatsisf
0000148e g     F .text	00000062 int_to_str
00000552 g     F .text	00000082 EXTI15_10_IRQHandler
0000a368 g     O .text	00000014 GPION
00002a34 g     F .text	00000026 uart_query
20005b41 g     O .bss	00000001 CY
000052a4 g     F .text	000000cc TIM_OC2Init
000056e4 g     F .text	00000036 USART_ITConfig
2000b654 g     O .bss	00000004 pEP2_RAM_Addr
00004c6c g     F .text	0000006a EXTI_Init
00004254 g     F .text	00000018 car_yellow_left
20005b42 g     O .bss	00000001 triangle_turn
00001d6a g     F .text	0000008e exti_enable
000006a0 g     F .text	00000026 TIM7_IRQHandler
20005b43 g     O .bss	00000001 car_start
00009b04 g     F .text	00000030 _close_r
00004ad6  w      .text	00000000 CAN2_TX_IRQHandler
20000000 g       .dalign	00000000 _data_vma
00004284 g     F .text	00000010 reed_init
000036a2 g     F .text	00000170 seek_vary_pot
00000660 g     F .text	00000026 TIM5_IRQHandler
20005b44 g     O .bss	00000001 black_white_first
000015a0 g     F .text	00000042 ws2812b_init
0000543a g     F .text	0000009e TIM_OC4Init
000057de g     F .text	00000028 DevEP2_OUT_Deal
00009368 g     F .text	0000010e __swsetup_r
00001bf8 g     F .text	000000c4 dvp_gpio_init
000004ce g     F .text	00000084 EXTI9_5_IRQHandler
00006772 g     F .text	000005b4 .hidden __divdf3
00009750 g     F .text	000000a0 __sfp
00004e50 g     F .text	0000002c GPIO_EXTILineConfig
000019a0 g     F .text	00000038 board_init
00003f80 g     F .text	00000084 Bin_Image_Filter
00003bbc g     F .text	0000009c Repair_Line
00006e8a g     F .text	000004b8 .hidden __muldf3
00009a14 g     F .text	00000030 __sread
00004ad4  w      .text	00000000 ETH_WKUP_IRQHandler
000057b6 g     F .text	00000028 DevEP1_OUT_Deal
0000996e g     F .text	00000002 __malloc_lock
000038d4 g     F .text	000002e8 link_Line
000095c2 g     F .text	00000066 _fflush_r
20005b45 g     O .bss	00000001 out_flag
00004cd6 g     F .text	0000001e EXTI_GetITStatus
2000b658 g     O .bss	00000004 pEP0_RAM_Addr
20005b46 g     O .bss	00000001 entered_Cross
200001d8 g     O .bss	00000001 mt9v03x_finish_flag_dvp
00004aa0  w      .text	00000000 SPI2_IRQHandler
000031f4 g     F .text	00000100 check_three
0000a7bc g     O .text	00000020 __sf_fake_stdin
0000a4b4 g     O .text	00000012 MyDevDescrHD
20005b47 g     O .bss	00000001 round_dot1_col
00000200 g     F .text	000000a8 memset
0000072c g     F .text	00000230 main
00004af4  w      .text	00000000 TIM10_BRK_IRQHandler
2000b65c g     O .bss	00000080 EP1_DatabufHD
00004af2  w      .text	00000000 TIM9_CC_IRQHandler
00007fb2 g     F .text	0000008c .hidden __ltsf2
00009ac8 g     F .text	00000006 __sclose
00004ad0  w      .text	00000000 DMA2_Channel5_IRQHandler
000014f0 g     F .text	000000b0 ws2812b_write
200001bf g     O .data	00000001 USBHD_Dev_Speed
000089b0 g     F .text	000000da _malloc_r
20005b48 g     O .bss	00000001 R_D_dot
0000a4c8 g     O .text	0000000e MyManuInfoHD
20005b4c g     O .bss	00000004 arrays
00004a76  w      .text	00000000 DMA1_Channel5_IRQHandler
000055a4 g     F .text	00000006 TIM_SetCounter
00000494 g     F .text	0000003a EXTI4_IRQHandler
00001a62 g     F .text	00000036 Delay_Ms
00004a80  w      .text	00000000 USB_LP_CAN1_RX0_IRQHandler
000012de g     F .text	00000022 mt9v03x_handler_dvp
0000803e g     F .text	00000290 .hidden __mulsf3
00004294 g     F .text	00000052 Abs
00005126 g     F .text	0000001e SPI_Cmd
000009be g     F .text	000001ac motor_forward
2000b598 g     O .bss	00000004 camera_buffer_addr
00005f20 g     F .text	00000122 SystemInit
00004ab6  w      .text	00000000 RNG_IRQHandler
00001f50 g     F .text	0000000c interrupt_set_priority
00000d1c g     F .text	00000094 ips114_show_char
20005b50 g     O .bss	00000001 triangle_flag
00009150 g     F .text	00000040 iprintf
2000b6dc g     O .bss	00000008 EP0_DatabufHD
00004a7e  w      .text	00000000 USB_HP_CAN1_TX_IRQHandler
00003d8c g     F .text	000001a8 OSTUThreshold
0000a620 g     O .text	00000100 .hidden __clz_tab
00000000 g       .init	00000000 _sinit
000057a0 g     F .text	00000016 DevEP2_IN_Deal
00007f2c g     F .text	00000086 .hidden __gesf2
00009ace g     F .text	00000036 _write_r
00004a72  w      .text	00000000 DMA1_Channel3_IRQHandler
200001b3 g     O .data	00000001 obstacle_flag
2000b6e4 g     O .bss	00000040 Receive_Uart_Buf
20005b54 g     O .bss	0000003c white_line
00004ab8  w      .text	00000000 FSMC_IRQHandler
00004ad2  w      .text	00000000 ETH_IRQHandler
00008d98 g     F .text	0000010c _printf_common
200001c4 g     O .data	00000004 _impure_ptr
20005b90 g     O .bss	00000004 error
000005d4 g     F .text	00000026 TIM1_UP_IRQHandler
00001b5e g     F .text	0000009a adc_init
00009484 g     F .text	0000013e __sflush_r
00004a58  w      .text	00000000 WWDG_IRQHandler
00004ae0  w      .text	00000000 USBHSWakeup_IRQHandler
2000b5b0 g     O .bss	00000014 R_PID
00004b06  w      .text	00000000 DMA2_Channel11_IRQHandler
00004a50  w      .text	00000000 Ecall_U_Mode_Handler
00004afc  w      .text	00000000 DMA2_Channel6_IRQHandler
000005fa g     F .text	0000001a TIM2_IRQHandler
20010000 g       .stack	00000000 _eusrstack
00000cee g     F .text	0000002e ips114_set_dir
00001f7e g     F .text	00000030 pwm_duty
00004b9a g     F .text	00000046 ADC_DeInit
0000281e g     F .text	0000001c spi_write_8bit
0000a470 g     O .text	00000043 MyCfgDescrHD
00004a88  w      .text	00000000 TIM1_BRK_IRQHandler
0000985c g     F .text	00000058 __swhatbuf_r
00004be0 g     F .text	00000058 ADC_Init
0000571a g     F .text	0000000a USART_SendData
00004b04  w      .text	00000000 DMA2_Channel10_IRQHandler
00000420 g     F .text	00000026 EXTI1_IRQHandler
20005b94 g     O .bss	00000078 Center_line
000019d8 g     F .text	00000050 _write
200001d8 g       .data	00000000 _edata
20005c0c g     O .bss	00000001 CX
200001f4 g     O .bss	00000002 USBHD_Dev_SetupReqLen
00005144 g     F .text	000000c0 TIM_TimeBaseInit
00004aaa  w      .text	00000000 RTCAlarm_IRQHandler
0000a7fc g       .dlalign	00000000 _data_lma
00000712 g     F .text	0000001a TIM10_UP_IRQHandler
00004af0  w      .text	00000000 TIM9_TRG_COM_IRQHandler
000003a4 g     F .text	0000002a UART7_IRQHandler
000002da g     F .text	0000002a USART2_IRQHandler
0000037a g     F .text	0000002a UART6_IRQHandler
00009a44 g     F .text	0000004e __swrite
00008822 g     F .text	00000026 fiprintf
00008af8 g     F .text	000002a0 _vfiprintf_r
000097f0 g     F .text	0000006c _fwalk_reent
20005c10 g     O .bss	00000060 car_mode
00001f5c g     F .text	00000002 interrupt_global_enable
00009c3e g     F .text	00000010 _kill
00004a9c  w      .text	00000000 I2C2_ER_IRQHandler
00004a70  w      .text	00000000 DMA1_Channel2_IRQHandler
0000a7dc g     O .text	00000020 __sf_fake_stdout
00004aae  w      .text	00000000 TIM8_BRK_IRQHandler
20005c70 g     O .bss	00000100 HistGram
00009c5e g     F .text	00000010 _read
00003f34 g     F .text	0000004c BinaryImage
2000004c g     O .data	00000087 VL51L1X_CONFIGURATION
00004b08  w      .text	00000000 handle_reset
20005d70 g     O .bss	00000001 R_U_dot
00004a84  w      .text	00000000 CAN1_SCE_IRQHandler
00008656 g     F .text	00000056 .hidden __fixunssfsi
00004a60  w      .text	00000000 FLASH_IRQHandler
00001fae g     F .text	00000472 pwm_gpio_init
00009c92 g     F .text	00000002 _exit
00000e54 g     F .text	000000b8 ips114_show_gray_image
000002b0 g     F .text	0000002a USART1_IRQHandler
000098b4 g     F .text	000000a0 __smakebuf_r
00001f1c g     F .text	0000001a interrupt_enable
00005806 g     F .text	0000071a OTG_FS_IRQHandler
00008ea4 g     F .text	000002ac _printf_i
00004abe  w      .text	00000000 SPI3_IRQHandler
00006d26 g     F .text	000000ae .hidden __gedf2
2000b724 g     O .bss	00000001 UsbConfig
200001fc g     O .bss	00000004 __malloc_sbrk_start
000050ae g     F .text	0000001e RCC_APB2PeriphResetCmd
00003812 g     F .text	000000c2 check_cross_road_out
00004a98  w      .text	00000000 I2C1_ER_IRQHandler
000050cc g     F .text	0000005a SPI_Init
000025e2 g     F .text	0000013a spi_gpio_init
00003c58 g     F .text	000000e6 Cross_Round_control
00001df8 g     F .text	000000dc gpio_init
200001f8 g     O .bss	00000004 __malloc_free_list
00007342 g     F .text	0000073e .hidden __subdf3
00008af8 g     F .text	000002a0 _vfprintf_r
00005562 g     F .text	0000001a TIM_OC2PolarityConfig
20000000 g     O .data	00000024 mt9v03x_get_confing_buffer_dvp
2000b728 g     O .bss	00000004 pEP1_RAM_Addr
00001cbc g     F .text	000000ae dvp_camera_init
00002910 g     F .text	00000020 uart_putchar
2000b5c4 g     O .bss	00000004 get_dis
00007bc2 g     F .text	0000036a .hidden __addsf3
00004aac  w      .text	00000000 USBWakeUp_IRQHandler
00001efa g     F .text	00000022 gpio_get_input
20005d74 g     O .bss	00000004 num_L
00009bfe g     F .text	00000010 _close
000099d4 g     F .text	0000000c raise
00004acc  w      .text	00000000 DMA2_Channel3_IRQHandler
00001f5e g     F .text	00000002 interrupt_global_disable



Disassembly of section .init:

00000000 <_sinit>:
   0:	3090406f          	j	4b08 <handle_reset>
   4:	00000013          	nop
   8:	00000013          	nop
   c:	00000013          	nop
  10:	00000013          	nop
  14:	00000013          	nop
  18:	00000013          	nop
  1c:	00000013          	nop
  20:	00000013          	nop
  24:	00000013          	nop
  28:	00000013          	nop
  2c:	00000013          	nop
  30:	00000013          	nop
  34:	00100073          	ebreak

Disassembly of section .vector:

00000038 <_vector_base>:
	...
  40:	02a8                	addi	a0,sp,328
  42:	0000                	unimp
  44:	02ac                	addi	a1,sp,328
  46:	0000                	unimp
  48:	0000                	unimp
  4a:	0000                	unimp
  4c:	4a4e                	lw	s4,208(sp)
	...
  56:	0000                	unimp
  58:	4a50                	lw	a2,20(a2)
  5a:	0000                	unimp
  5c:	4a52                	lw	s4,20(sp)
	...
  66:	0000                	unimp
  68:	4a54                	lw	a3,20(a2)
  6a:	0000                	unimp
  6c:	0000                	unimp
  6e:	0000                	unimp
  70:	4a56                	lw	s4,84(sp)
  72:	0000                	unimp
  74:	0000                	unimp
  76:	0000                	unimp
  78:	4a58                	lw	a4,20(a2)
  7a:	0000                	unimp
  7c:	4a5a                	lw	s4,148(sp)
  7e:	0000                	unimp
  80:	4a5c                	lw	a5,20(a2)
  82:	0000                	unimp
  84:	4a5e                	lw	s4,212(sp)
  86:	0000                	unimp
  88:	4a60                	lw	s0,84(a2)
  8a:	0000                	unimp
  8c:	4a62                	lw	s4,24(sp)
  8e:	0000                	unimp
  90:	040c                	addi	a1,sp,512
  92:	0000                	unimp
  94:	0420                	addi	s0,sp,520
  96:	0000                	unimp
  98:	0446                	slli	s0,s0,0x11
  9a:	0000                	unimp
  9c:	045c                	addi	a5,sp,516
  9e:	0000                	unimp
  a0:	0494                	addi	a3,sp,576
  a2:	0000                	unimp
  a4:	4a6e                	lw	s4,216(sp)
  a6:	0000                	unimp
  a8:	4a70                	lw	a2,84(a2)
  aa:	0000                	unimp
  ac:	4a72                	lw	s4,28(sp)
  ae:	0000                	unimp
  b0:	4a74                	lw	a3,84(a2)
  b2:	0000                	unimp
  b4:	4a76                	lw	s4,92(sp)
  b6:	0000                	unimp
  b8:	4a78                	lw	a4,84(a2)
  ba:	0000                	unimp
  bc:	4a7a                	lw	s4,156(sp)
  be:	0000                	unimp
  c0:	4a7c                	lw	a5,84(a2)
  c2:	0000                	unimp
  c4:	4a7e                	lw	s4,220(sp)
  c6:	0000                	unimp
  c8:	4a80                	lw	s0,16(a3)
  ca:	0000                	unimp
  cc:	4a82                	lw	s5,0(sp)
  ce:	0000                	unimp
  d0:	4a84                	lw	s1,16(a3)
  d2:	0000                	unimp
  d4:	04ce                	slli	s1,s1,0x13
  d6:	0000                	unimp
  d8:	4a88                	lw	a0,16(a3)
  da:	0000                	unimp
  dc:	05d4                	addi	a3,sp,708
  de:	0000                	unimp
  e0:	4a8c                	lw	a1,16(a3)
  e2:	0000                	unimp
  e4:	4a8e                	lw	s5,192(sp)
  e6:	0000                	unimp
  e8:	05fa                	slli	a1,a1,0x1e
  ea:	0000                	unimp
  ec:	0614                	addi	a3,sp,768
  ee:	0000                	unimp
  f0:	063a                	slli	a2,a2,0xe
  f2:	0000                	unimp
  f4:	4a96                	lw	s5,68(sp)
  f6:	0000                	unimp
  f8:	4a98                	lw	a4,16(a3)
  fa:	0000                	unimp
  fc:	4a9a                	lw	s5,132(sp)
  fe:	0000                	unimp
 100:	4a9c                	lw	a5,16(a3)
 102:	0000                	unimp
 104:	4a9e                	lw	s5,196(sp)
 106:	0000                	unimp
 108:	4aa0                	lw	s0,80(a3)
 10a:	0000                	unimp
 10c:	02b0                	addi	a2,sp,328
 10e:	0000                	unimp
 110:	02da                	slli	t0,t0,0x16
 112:	0000                	unimp
 114:	0304                	addi	s1,sp,384
 116:	0000                	unimp
 118:	0552                	slli	a0,a0,0x14
 11a:	0000                	unimp
 11c:	4aaa                	lw	s5,136(sp)
 11e:	0000                	unimp
 120:	4aac                	lw	a1,80(a3)
 122:	0000                	unimp
 124:	4aae                	lw	s5,200(sp)
 126:	0000                	unimp
 128:	06c6                	slli	a3,a3,0x11
 12a:	0000                	unimp
 12c:	4ab2                	lw	s5,12(sp)
 12e:	0000                	unimp
 130:	4ab4                	lw	a3,80(a3)
 132:	0000                	unimp
 134:	4ab6                	lw	s5,76(sp)
 136:	0000                	unimp
 138:	4ab8                	lw	a4,80(a3)
 13a:	0000                	unimp
 13c:	4aba                	lw	s5,140(sp)
 13e:	0000                	unimp
 140:	0660                	addi	s0,sp,780
 142:	0000                	unimp
 144:	4abe                	lw	s5,204(sp)
 146:	0000                	unimp
 148:	032e                	slli	t1,t1,0xb
 14a:	0000                	unimp
 14c:	0358                	addi	a4,sp,388
 14e:	0000                	unimp
 150:	0686                	slli	a3,a3,0x1
 152:	0000                	unimp
 154:	06a0                	addi	s0,sp,840
 156:	0000                	unimp
 158:	4ac8                	lw	a0,20(a3)
 15a:	0000                	unimp
 15c:	4aca                	lw	s5,144(sp)
 15e:	0000                	unimp
 160:	4acc                	lw	a1,20(a3)
 162:	0000                	unimp
 164:	4ace                	lw	s5,208(sp)
 166:	0000                	unimp
 168:	4ad0                	lw	a2,20(a3)
 16a:	0000                	unimp
 16c:	4ad2                	lw	s5,20(sp)
 16e:	0000                	unimp
 170:	4ad4                	lw	a3,20(a3)
 172:	0000                	unimp
 174:	4ad6                	lw	s5,84(sp)
 176:	0000                	unimp
 178:	4ad8                	lw	a4,20(a3)
 17a:	0000                	unimp
 17c:	4ada                	lw	s5,148(sp)
 17e:	0000                	unimp
 180:	4adc                	lw	a5,20(a3)
 182:	0000                	unimp
 184:	5806                	lw	a6,96(sp)
 186:	0000                	unimp
 188:	4ae0                	lw	s0,84(a3)
 18a:	0000                	unimp
 18c:	4ae2                	lw	s5,24(sp)
 18e:	0000                	unimp
 190:	03ec                	addi	a1,sp,460
 192:	0000                	unimp
 194:	037a                	slli	t1,t1,0x1e
 196:	0000                	unimp
 198:	03a4                	addi	s1,sp,456
 19a:	0000                	unimp
 19c:	03ce                	slli	t2,t2,0x13
 19e:	0000                	unimp
 1a0:	4aec                	lw	a1,84(a3)
 1a2:	0000                	unimp
 1a4:	06ec                	addi	a1,sp,844
 1a6:	0000                	unimp
 1a8:	4af0                	lw	a2,84(a3)
 1aa:	0000                	unimp
 1ac:	4af2                	lw	s5,28(sp)
 1ae:	0000                	unimp
 1b0:	4af4                	lw	a3,84(a3)
 1b2:	0000                	unimp
 1b4:	0712                	slli	a4,a4,0x4
 1b6:	0000                	unimp
 1b8:	4af8                	lw	a4,84(a3)
 1ba:	0000                	unimp
 1bc:	4afa                	lw	s5,156(sp)
 1be:	0000                	unimp
 1c0:	4afc                	lw	a5,84(a3)
 1c2:	0000                	unimp
 1c4:	4afe                	lw	s5,220(sp)
 1c6:	0000                	unimp
 1c8:	4b00                	lw	s0,16(a4)
 1ca:	0000                	unimp
 1cc:	4b02                	lw	s6,0(sp)
 1ce:	0000                	unimp
 1d0:	4b04                	lw	s1,16(a4)
 1d2:	0000                	unimp
 1d4:	4b06                	lw	s6,64(sp)
	...

Disassembly of section .text:

00000200 <memset>:
     200:	433d                	li	t1,15
     202:	872a                	mv	a4,a0
     204:	02c37363          	bgeu	t1,a2,22a <memset+0x2a>
     208:	00f77793          	andi	a5,a4,15
     20c:	efbd                	bnez	a5,28a <memset+0x8a>
     20e:	e5ad                	bnez	a1,278 <memset+0x78>
     210:	ff067693          	andi	a3,a2,-16
     214:	8a3d                	andi	a2,a2,15
     216:	96ba                	add	a3,a3,a4
     218:	c30c                	sw	a1,0(a4)
     21a:	c34c                	sw	a1,4(a4)
     21c:	c70c                	sw	a1,8(a4)
     21e:	c74c                	sw	a1,12(a4)
     220:	0741                	addi	a4,a4,16
     222:	fed76be3          	bltu	a4,a3,218 <memset+0x18>
     226:	e211                	bnez	a2,22a <memset+0x2a>
     228:	8082                	ret
     22a:	40c306b3          	sub	a3,t1,a2
     22e:	068a                	slli	a3,a3,0x2
     230:	00000297          	auipc	t0,0x0
     234:	9696                	add	a3,a3,t0
     236:	00a68067          	jr	10(a3)
     23a:	00b70723          	sb	a1,14(a4)
     23e:	00b706a3          	sb	a1,13(a4)
     242:	00b70623          	sb	a1,12(a4)
     246:	00b705a3          	sb	a1,11(a4)
     24a:	00b70523          	sb	a1,10(a4)
     24e:	00b704a3          	sb	a1,9(a4)
     252:	00b70423          	sb	a1,8(a4)
     256:	00b703a3          	sb	a1,7(a4)
     25a:	00b70323          	sb	a1,6(a4)
     25e:	00b702a3          	sb	a1,5(a4)
     262:	00b70223          	sb	a1,4(a4)
     266:	00b701a3          	sb	a1,3(a4)
     26a:	00b70123          	sb	a1,2(a4)
     26e:	00b700a3          	sb	a1,1(a4)
     272:	00b70023          	sb	a1,0(a4)
     276:	8082                	ret
     278:	0ff5f593          	andi	a1,a1,255
     27c:	00859693          	slli	a3,a1,0x8
     280:	8dd5                	or	a1,a1,a3
     282:	01059693          	slli	a3,a1,0x10
     286:	8dd5                	or	a1,a1,a3
     288:	b761                	j	210 <memset+0x10>
     28a:	00279693          	slli	a3,a5,0x2
     28e:	00000297          	auipc	t0,0x0
     292:	9696                	add	a3,a3,t0
     294:	8286                	mv	t0,ra
     296:	fa8680e7          	jalr	-88(a3)
     29a:	8096                	mv	ra,t0
     29c:	17c1                	addi	a5,a5,-16
     29e:	8f1d                	sub	a4,a4,a5
     2a0:	963e                	add	a2,a2,a5
     2a2:	f8c374e3          	bgeu	t1,a2,22a <memset+0x2a>
     2a6:	b7a5                	j	20e <memset+0xe>

000002a8 <NMI_Handler>:
     2a8:	30200073          	mret

000002ac <HardFault_Handler>:
     2ac:	30200073          	mret

000002b0 <USART1_IRQHandler>:
     2b0:	1141                	addi	sp,sp,-16
     2b2:	c622                	sw	s0,12(sp)
     2b4:	40014437          	lui	s0,0x40014
     2b8:	52500593          	li	a1,1317
     2bc:	80040513          	addi	a0,s0,-2048 # 40013800 <_eusrstack+0x20003800>
     2c0:	470050ef          	jal	ra,5730 <USART_GetITStatus>
     2c4:	c519                	beqz	a0,2d2 <USART1_IRQHandler+0x22>
     2c6:	52500593          	li	a1,1317
     2ca:	80040513          	addi	a0,s0,-2048
     2ce:	4a6050ef          	jal	ra,5774 <USART_ClearITPendingBit>
     2d2:	4432                	lw	s0,12(sp)
     2d4:	0141                	addi	sp,sp,16
     2d6:	30200073          	mret

000002da <USART2_IRQHandler>:
     2da:	1141                	addi	sp,sp,-16
     2dc:	c622                	sw	s0,12(sp)
     2de:	40004437          	lui	s0,0x40004
     2e2:	52500593          	li	a1,1317
     2e6:	40040513          	addi	a0,s0,1024 # 40004400 <_eusrstack+0x1fff4400>
     2ea:	446050ef          	jal	ra,5730 <USART_GetITStatus>
     2ee:	c519                	beqz	a0,2fc <USART2_IRQHandler+0x22>
     2f0:	52500593          	li	a1,1317
     2f4:	40040513          	addi	a0,s0,1024
     2f8:	47c050ef          	jal	ra,5774 <USART_ClearITPendingBit>
     2fc:	4432                	lw	s0,12(sp)
     2fe:	0141                	addi	sp,sp,16
     300:	30200073          	mret

00000304 <USART3_IRQHandler>:
     304:	1141                	addi	sp,sp,-16
     306:	c622                	sw	s0,12(sp)
     308:	40005437          	lui	s0,0x40005
     30c:	52500593          	li	a1,1317
     310:	80040513          	addi	a0,s0,-2048 # 40004800 <_eusrstack+0x1fff4800>
     314:	41c050ef          	jal	ra,5730 <USART_GetITStatus>
     318:	c519                	beqz	a0,326 <USART3_IRQHandler+0x22>
     31a:	52500593          	li	a1,1317
     31e:	80040513          	addi	a0,s0,-2048
     322:	452050ef          	jal	ra,5774 <USART_ClearITPendingBit>
     326:	4432                	lw	s0,12(sp)
     328:	0141                	addi	sp,sp,16
     32a:	30200073          	mret

0000032e <UART4_IRQHandler>:
     32e:	1141                	addi	sp,sp,-16
     330:	c622                	sw	s0,12(sp)
     332:	40005437          	lui	s0,0x40005
     336:	52500593          	li	a1,1317
     33a:	c0040513          	addi	a0,s0,-1024 # 40004c00 <_eusrstack+0x1fff4c00>
     33e:	3f2050ef          	jal	ra,5730 <USART_GetITStatus>
     342:	c519                	beqz	a0,350 <UART4_IRQHandler+0x22>
     344:	52500593          	li	a1,1317
     348:	c0040513          	addi	a0,s0,-1024
     34c:	428050ef          	jal	ra,5774 <USART_ClearITPendingBit>
     350:	4432                	lw	s0,12(sp)
     352:	0141                	addi	sp,sp,16
     354:	30200073          	mret

00000358 <UART5_IRQHandler>:
     358:	52500593          	li	a1,1317
     35c:	40005537          	lui	a0,0x40005
     360:	3d0050ef          	jal	ra,5730 <USART_GetITStatus>
     364:	c909                	beqz	a0,376 <UART5_IRQHandler+0x1e>
     366:	719000ef          	jal	ra,127e <mt9v03x_uart_callback_dvp>
     36a:	52500593          	li	a1,1317
     36e:	40005537          	lui	a0,0x40005
     372:	402050ef          	jal	ra,5774 <USART_ClearITPendingBit>
     376:	30200073          	mret

0000037a <UART6_IRQHandler>:
     37a:	1141                	addi	sp,sp,-16
     37c:	c622                	sw	s0,12(sp)
     37e:	40002437          	lui	s0,0x40002
     382:	52500593          	li	a1,1317
     386:	80040513          	addi	a0,s0,-2048 # 40001800 <_eusrstack+0x1fff1800>
     38a:	3a6050ef          	jal	ra,5730 <USART_GetITStatus>
     38e:	c519                	beqz	a0,39c <UART6_IRQHandler+0x22>
     390:	52500593          	li	a1,1317
     394:	80040513          	addi	a0,s0,-2048
     398:	3dc050ef          	jal	ra,5774 <USART_ClearITPendingBit>
     39c:	4432                	lw	s0,12(sp)
     39e:	0141                	addi	sp,sp,16
     3a0:	30200073          	mret

000003a4 <UART7_IRQHandler>:
     3a4:	1141                	addi	sp,sp,-16
     3a6:	c622                	sw	s0,12(sp)
     3a8:	40002437          	lui	s0,0x40002
     3ac:	52500593          	li	a1,1317
     3b0:	c0040513          	addi	a0,s0,-1024 # 40001c00 <_eusrstack+0x1fff1c00>
     3b4:	37c050ef          	jal	ra,5730 <USART_GetITStatus>
     3b8:	c519                	beqz	a0,3c6 <UART7_IRQHandler+0x22>
     3ba:	52500593          	li	a1,1317
     3be:	c0040513          	addi	a0,s0,-1024
     3c2:	3b2050ef          	jal	ra,5774 <USART_ClearITPendingBit>
     3c6:	4432                	lw	s0,12(sp)
     3c8:	0141                	addi	sp,sp,16
     3ca:	30200073          	mret

000003ce <UART8_IRQHandler>:
     3ce:	52500593          	li	a1,1317
     3d2:	40002537          	lui	a0,0x40002
     3d6:	35a050ef          	jal	ra,5730 <USART_GetITStatus>
     3da:	c519                	beqz	a0,3e8 <UART8_IRQHandler+0x1a>
     3dc:	52500593          	li	a1,1317
     3e0:	40002537          	lui	a0,0x40002
     3e4:	390050ef          	jal	ra,5774 <USART_ClearITPendingBit>
     3e8:	30200073          	mret

000003ec <DVP_IRQHandler>:
     3ec:	500507b7          	lui	a5,0x50050
     3f0:	0107c703          	lbu	a4,16(a5) # 50050010 <_eusrstack+0x30040010>
     3f4:	8b11                	andi	a4,a4,4
     3f6:	cb09                	beqz	a4,408 <DVP_IRQHandler+0x1c>
     3f8:	0107c703          	lbu	a4,16(a5)
     3fc:	0fb77713          	andi	a4,a4,251
     400:	00e78823          	sb	a4,16(a5)
     404:	6db000ef          	jal	ra,12de <mt9v03x_handler_dvp>
     408:	30200073          	mret

0000040c <EXTI0_IRQHandler>:
     40c:	4505                	li	a0,1
     40e:	0c9040ef          	jal	ra,4cd6 <EXTI_GetITStatus>
     412:	4785                	li	a5,1
     414:	00f51463          	bne	a0,a5,41c <EXTI0_IRQHandler+0x10>
     418:	0dd040ef          	jal	ra,4cf4 <EXTI_ClearITPendingBit>
     41c:	30200073          	mret

00000420 <EXTI1_IRQHandler>:
     420:	4509                	li	a0,2
     422:	0b5040ef          	jal	ra,4cd6 <EXTI_GetITStatus>
     426:	4785                	li	a5,1
     428:	00f51d63          	bne	a0,a5,442 <EXTI1_IRQHandler+0x22>
     42c:	4509                	li	a0,2
     42e:	0c7040ef          	jal	ra,4cf4 <EXTI_ClearITPendingBit>
     432:	08200513          	li	a0,130
     436:	4581                	li	a1,0
     438:	29d010ef          	jal	ra,1ed4 <gpio_bit_output>
     43c:	4551                	li	a0,20
     43e:	624010ef          	jal	ra,1a62 <Delay_Ms>
     442:	30200073          	mret

00000446 <EXTI2_IRQHandler>:
     446:	4511                	li	a0,4
     448:	08f040ef          	jal	ra,4cd6 <EXTI_GetITStatus>
     44c:	4785                	li	a5,1
     44e:	00f51563          	bne	a0,a5,458 <EXTI2_IRQHandler+0x12>
     452:	4511                	li	a0,4
     454:	0a1040ef          	jal	ra,4cf4 <EXTI_ClearITPendingBit>
     458:	30200073          	mret

0000045c <EXTI3_IRQHandler>:
     45c:	4521                	li	a0,8
     45e:	079040ef          	jal	ra,4cd6 <EXTI_GetITStatus>
     462:	4785                	li	a5,1
     464:	02f51663          	bne	a0,a5,490 <EXTI3_IRQHandler+0x34>
     468:	0c800513          	li	a0,200
     46c:	5f6010ef          	jal	ra,1a62 <Delay_Ms>
     470:	4521                	li	a0,8
     472:	083040ef          	jal	ra,4cf4 <EXTI_ClearITPendingBit>
     476:	0000a637          	lui	a2,0xa
     47a:	200067b7          	lui	a5,0x20006
     47e:	c9460613          	addi	a2,a2,-876 # 9c94 <_exit+0x2>
     482:	45d1                	li	a1,20
     484:	0c800513          	li	a0,200
     488:	b4078123          	sb	zero,-1214(a5) # 20005b42 <triangle_turn>
     48c:	125000ef          	jal	ra,db0 <ips114_show_string>
     490:	30200073          	mret

00000494 <EXTI4_IRQHandler>:
     494:	1141                	addi	sp,sp,-16
     496:	4541                	li	a0,16
     498:	c622                	sw	s0,12(sp)
     49a:	03d040ef          	jal	ra,4cd6 <EXTI_GetITStatus>
     49e:	4785                	li	a5,1
     4a0:	02f51363          	bne	a0,a5,4c6 <EXTI4_IRQHandler+0x32>
     4a4:	842a                	mv	s0,a0
     4a6:	4541                	li	a0,16
     4a8:	04d040ef          	jal	ra,4cf4 <EXTI_ClearITPendingBit>
     4ac:	0000a637          	lui	a2,0xa
     4b0:	200067b7          	lui	a5,0x20006
     4b4:	c9c60613          	addi	a2,a2,-868 # 9c9c <_exit+0xa>
     4b8:	45d1                	li	a1,20
     4ba:	0c800513          	li	a0,200
     4be:	b4878123          	sb	s0,-1214(a5) # 20005b42 <triangle_turn>
     4c2:	0ef000ef          	jal	ra,db0 <ips114_show_string>
     4c6:	4432                	lw	s0,12(sp)
     4c8:	0141                	addi	sp,sp,16
     4ca:	30200073          	mret

000004ce <EXTI9_5_IRQHandler>:
     4ce:	1141                	addi	sp,sp,-16
     4d0:	02000513          	li	a0,32
     4d4:	c622                	sw	s0,12(sp)
     4d6:	001040ef          	jal	ra,4cd6 <EXTI_GetITStatus>
     4da:	4785                	li	a5,1
     4dc:	00f51b63          	bne	a0,a5,4f2 <EXTI9_5_IRQHandler+0x24>
     4e0:	842a                	mv	s0,a0
     4e2:	02000513          	li	a0,32
     4e6:	00f040ef          	jal	ra,4cf4 <EXTI_ClearITPendingBit>
     4ea:	200067b7          	lui	a5,0x20006
     4ee:	b48781a3          	sb	s0,-1213(a5) # 20005b43 <car_start>
     4f2:	04000513          	li	a0,64
     4f6:	7e0040ef          	jal	ra,4cd6 <EXTI_GetITStatus>
     4fa:	4785                	li	a5,1
     4fc:	00f51663          	bne	a0,a5,508 <EXTI9_5_IRQHandler+0x3a>
     500:	04000513          	li	a0,64
     504:	7f0040ef          	jal	ra,4cf4 <EXTI_ClearITPendingBit>
     508:	08000513          	li	a0,128
     50c:	7ca040ef          	jal	ra,4cd6 <EXTI_GetITStatus>
     510:	4785                	li	a5,1
     512:	00f51663          	bne	a0,a5,51e <EXTI9_5_IRQHandler+0x50>
     516:	08000513          	li	a0,128
     51a:	7da040ef          	jal	ra,4cf4 <EXTI_ClearITPendingBit>
     51e:	10000513          	li	a0,256
     522:	7b4040ef          	jal	ra,4cd6 <EXTI_GetITStatus>
     526:	4785                	li	a5,1
     528:	00f51663          	bne	a0,a5,534 <EXTI9_5_IRQHandler+0x66>
     52c:	10000513          	li	a0,256
     530:	7c4040ef          	jal	ra,4cf4 <EXTI_ClearITPendingBit>
     534:	20000513          	li	a0,512
     538:	79e040ef          	jal	ra,4cd6 <EXTI_GetITStatus>
     53c:	4785                	li	a5,1
     53e:	00f51663          	bne	a0,a5,54a <EXTI9_5_IRQHandler+0x7c>
     542:	20000513          	li	a0,512
     546:	7ae040ef          	jal	ra,4cf4 <EXTI_ClearITPendingBit>
     54a:	4432                	lw	s0,12(sp)
     54c:	0141                	addi	sp,sp,16
     54e:	30200073          	mret

00000552 <EXTI15_10_IRQHandler>:
     552:	1141                	addi	sp,sp,-16
     554:	40000513          	li	a0,1024
     558:	c622                	sw	s0,12(sp)
     55a:	77c040ef          	jal	ra,4cd6 <EXTI_GetITStatus>
     55e:	4785                	li	a5,1
     560:	00f51663          	bne	a0,a5,56c <EXTI15_10_IRQHandler+0x1a>
     564:	40000513          	li	a0,1024
     568:	78c040ef          	jal	ra,4cf4 <EXTI_ClearITPendingBit>
     56c:	6405                	lui	s0,0x1
     56e:	80040513          	addi	a0,s0,-2048 # 800 <__stack_size>
     572:	764040ef          	jal	ra,4cd6 <EXTI_GetITStatus>
     576:	4785                	li	a5,1
     578:	00f51663          	bne	a0,a5,584 <EXTI15_10_IRQHandler+0x32>
     57c:	80040513          	addi	a0,s0,-2048
     580:	774040ef          	jal	ra,4cf4 <EXTI_ClearITPendingBit>
     584:	6505                	lui	a0,0x1
     586:	750040ef          	jal	ra,4cd6 <EXTI_GetITStatus>
     58a:	4785                	li	a5,1
     58c:	00f51563          	bne	a0,a5,596 <EXTI15_10_IRQHandler+0x44>
     590:	6505                	lui	a0,0x1
     592:	762040ef          	jal	ra,4cf4 <EXTI_ClearITPendingBit>
     596:	6509                	lui	a0,0x2
     598:	73e040ef          	jal	ra,4cd6 <EXTI_GetITStatus>
     59c:	4785                	li	a5,1
     59e:	00f51563          	bne	a0,a5,5a8 <EXTI15_10_IRQHandler+0x56>
     5a2:	6509                	lui	a0,0x2
     5a4:	750040ef          	jal	ra,4cf4 <EXTI_ClearITPendingBit>
     5a8:	6511                	lui	a0,0x4
     5aa:	72c040ef          	jal	ra,4cd6 <EXTI_GetITStatus>
     5ae:	4785                	li	a5,1
     5b0:	00f51563          	bne	a0,a5,5ba <EXTI15_10_IRQHandler+0x68>
     5b4:	6511                	lui	a0,0x4
     5b6:	73e040ef          	jal	ra,4cf4 <EXTI_ClearITPendingBit>
     5ba:	6521                	lui	a0,0x8
     5bc:	71a040ef          	jal	ra,4cd6 <EXTI_GetITStatus>
     5c0:	4785                	li	a5,1
     5c2:	00f51563          	bne	a0,a5,5cc <EXTI15_10_IRQHandler+0x7a>
     5c6:	6521                	lui	a0,0x8
     5c8:	72c040ef          	jal	ra,4cf4 <EXTI_ClearITPendingBit>
     5cc:	4432                	lw	s0,12(sp)
     5ce:	0141                	addi	sp,sp,16
     5d0:	30200073          	mret

000005d4 <TIM1_UP_IRQHandler>:
     5d4:	1141                	addi	sp,sp,-16
     5d6:	c622                	sw	s0,12(sp)
     5d8:	40013437          	lui	s0,0x40013
     5dc:	4585                	li	a1,1
     5de:	c0040513          	addi	a0,s0,-1024 # 40012c00 <_eusrstack+0x20002c00>
     5e2:	7e3040ef          	jal	ra,55c4 <TIM_GetITStatus>
     5e6:	c511                	beqz	a0,5f2 <TIM1_UP_IRQHandler+0x1e>
     5e8:	4585                	li	a1,1
     5ea:	c0040513          	addi	a0,s0,-1024
     5ee:	7f3040ef          	jal	ra,55e0 <TIM_ClearITPendingBit>
     5f2:	4432                	lw	s0,12(sp)
     5f4:	0141                	addi	sp,sp,16
     5f6:	30200073          	mret

000005fa <TIM2_IRQHandler>:
     5fa:	4585                	li	a1,1
     5fc:	40000537          	lui	a0,0x40000
     600:	7c5040ef          	jal	ra,55c4 <TIM_GetITStatus>
     604:	c511                	beqz	a0,610 <TIM2_IRQHandler+0x16>
     606:	4585                	li	a1,1
     608:	40000537          	lui	a0,0x40000
     60c:	7d5040ef          	jal	ra,55e0 <TIM_ClearITPendingBit>
     610:	30200073          	mret

00000614 <TIM3_IRQHandler>:
     614:	1141                	addi	sp,sp,-16
     616:	c622                	sw	s0,12(sp)
     618:	40000437          	lui	s0,0x40000
     61c:	4585                	li	a1,1
     61e:	40040513          	addi	a0,s0,1024 # 40000400 <_eusrstack+0x1fff0400>
     622:	7a3040ef          	jal	ra,55c4 <TIM_GetITStatus>
     626:	c511                	beqz	a0,632 <TIM3_IRQHandler+0x1e>
     628:	4585                	li	a1,1
     62a:	40040513          	addi	a0,s0,1024
     62e:	7b3040ef          	jal	ra,55e0 <TIM_ClearITPendingBit>
     632:	4432                	lw	s0,12(sp)
     634:	0141                	addi	sp,sp,16
     636:	30200073          	mret

0000063a <TIM4_IRQHandler>:
     63a:	1141                	addi	sp,sp,-16
     63c:	c622                	sw	s0,12(sp)
     63e:	40001437          	lui	s0,0x40001
     642:	4585                	li	a1,1
     644:	80040513          	addi	a0,s0,-2048 # 40000800 <_eusrstack+0x1fff0800>
     648:	77d040ef          	jal	ra,55c4 <TIM_GetITStatus>
     64c:	c511                	beqz	a0,658 <TIM4_IRQHandler+0x1e>
     64e:	4585                	li	a1,1
     650:	80040513          	addi	a0,s0,-2048
     654:	78d040ef          	jal	ra,55e0 <TIM_ClearITPendingBit>
     658:	4432                	lw	s0,12(sp)
     65a:	0141                	addi	sp,sp,16
     65c:	30200073          	mret

00000660 <TIM5_IRQHandler>:
     660:	1141                	addi	sp,sp,-16
     662:	c622                	sw	s0,12(sp)
     664:	40001437          	lui	s0,0x40001
     668:	4585                	li	a1,1
     66a:	c0040513          	addi	a0,s0,-1024 # 40000c00 <_eusrstack+0x1fff0c00>
     66e:	757040ef          	jal	ra,55c4 <TIM_GetITStatus>
     672:	c511                	beqz	a0,67e <TIM5_IRQHandler+0x1e>
     674:	4585                	li	a1,1
     676:	c0040513          	addi	a0,s0,-1024
     67a:	767040ef          	jal	ra,55e0 <TIM_ClearITPendingBit>
     67e:	4432                	lw	s0,12(sp)
     680:	0141                	addi	sp,sp,16
     682:	30200073          	mret

00000686 <TIM6_IRQHandler>:
     686:	4585                	li	a1,1
     688:	40001537          	lui	a0,0x40001
     68c:	739040ef          	jal	ra,55c4 <TIM_GetITStatus>
     690:	c511                	beqz	a0,69c <TIM6_IRQHandler+0x16>
     692:	4585                	li	a1,1
     694:	40001537          	lui	a0,0x40001
     698:	749040ef          	jal	ra,55e0 <TIM_ClearITPendingBit>
     69c:	30200073          	mret

000006a0 <TIM7_IRQHandler>:
     6a0:	1141                	addi	sp,sp,-16
     6a2:	c622                	sw	s0,12(sp)
     6a4:	40001437          	lui	s0,0x40001
     6a8:	4585                	li	a1,1
     6aa:	40040513          	addi	a0,s0,1024 # 40001400 <_eusrstack+0x1fff1400>
     6ae:	717040ef          	jal	ra,55c4 <TIM_GetITStatus>
     6b2:	c511                	beqz	a0,6be <TIM7_IRQHandler+0x1e>
     6b4:	4585                	li	a1,1
     6b6:	40040513          	addi	a0,s0,1024
     6ba:	727040ef          	jal	ra,55e0 <TIM_ClearITPendingBit>
     6be:	4432                	lw	s0,12(sp)
     6c0:	0141                	addi	sp,sp,16
     6c2:	30200073          	mret

000006c6 <TIM8_UP_IRQHandler>:
     6c6:	1141                	addi	sp,sp,-16
     6c8:	c622                	sw	s0,12(sp)
     6ca:	40013437          	lui	s0,0x40013
     6ce:	4585                	li	a1,1
     6d0:	40040513          	addi	a0,s0,1024 # 40013400 <_eusrstack+0x20003400>
     6d4:	6f1040ef          	jal	ra,55c4 <TIM_GetITStatus>
     6d8:	c511                	beqz	a0,6e4 <TIM8_UP_IRQHandler+0x1e>
     6da:	4585                	li	a1,1
     6dc:	40040513          	addi	a0,s0,1024
     6e0:	701040ef          	jal	ra,55e0 <TIM_ClearITPendingBit>
     6e4:	4432                	lw	s0,12(sp)
     6e6:	0141                	addi	sp,sp,16
     6e8:	30200073          	mret

000006ec <TIM9_UP_IRQHandler>:
     6ec:	1141                	addi	sp,sp,-16
     6ee:	c622                	sw	s0,12(sp)
     6f0:	40015437          	lui	s0,0x40015
     6f4:	4585                	li	a1,1
     6f6:	c0040513          	addi	a0,s0,-1024 # 40014c00 <_eusrstack+0x20004c00>
     6fa:	6cb040ef          	jal	ra,55c4 <TIM_GetITStatus>
     6fe:	c511                	beqz	a0,70a <TIM9_UP_IRQHandler+0x1e>
     700:	4585                	li	a1,1
     702:	c0040513          	addi	a0,s0,-1024
     706:	6db040ef          	jal	ra,55e0 <TIM_ClearITPendingBit>
     70a:	4432                	lw	s0,12(sp)
     70c:	0141                	addi	sp,sp,16
     70e:	30200073          	mret

00000712 <TIM10_UP_IRQHandler>:
     712:	4585                	li	a1,1
     714:	40015537          	lui	a0,0x40015
     718:	6ad040ef          	jal	ra,55c4 <TIM_GetITStatus>
     71c:	c511                	beqz	a0,728 <TIM10_UP_IRQHandler+0x16>
     71e:	4585                	li	a1,1
     720:	40015537          	lui	a0,0x40015
     724:	6bd040ef          	jal	ra,55e0 <TIM_ClearITPendingBit>
     728:	30200073          	mret

0000072c <main>:
     72c:	7139                	addi	sp,sp,-64
     72e:	de06                	sw	ra,60(sp)
     730:	dc22                	sw	s0,56(sp)
     732:	da26                	sw	s1,52(sp)
     734:	d84a                	sw	s2,48(sp)
     736:	d64e                	sw	s3,44(sp)
     738:	d452                	sw	s4,40(sp)
     73a:	d256                	sw	s5,36(sp)
     73c:	d05a                	sw	s6,32(sp)
     73e:	ce5e                	sw	s7,28(sp)
     740:	cc62                	sw	s8,24(sp)
     742:	ca66                	sw	s9,20(sp)
     744:	115030ef          	jal	ra,4058 <car_init>
     748:	6ed030ef          	jal	ra,4634 <init_PID>
     74c:	7c0000ef          	jal	ra,f0c <ips114_init>
     750:	108010ef          	jal	ra,1858 <Init_TOF400C>
     754:	0000a637          	lui	a2,0xa
     758:	ca460613          	addi	a2,a2,-860 # 9ca4 <_exit+0x12>
     75c:	4581                	li	a1,0
     75e:	4501                	li	a0,0
     760:	650000ef          	jal	ra,db0 <ips114_show_string>
     764:	0000a637          	lui	a2,0xa
     768:	cac60613          	addi	a2,a2,-852 # 9cac <_exit+0x1a>
     76c:	45d1                	li	a1,20
     76e:	4501                	li	a0,0
     770:	640000ef          	jal	ra,db0 <ips114_show_string>
     774:	38d000ef          	jal	ra,1300 <mt9v03x_init_dvp>
     778:	06400513          	li	a0,100
     77c:	2e6010ef          	jal	ra,1a62 <Delay_Ms>
     780:	880180a3          	sb	zero,-1919(gp) # 20000209 <Cross_status>
     784:	200067b7          	lui	a5,0x20006
     788:	b4078323          	sb	zero,-1210(a5) # 20005b46 <entered_Cross>
     78c:	200067b7          	lui	a5,0x20006
     790:	b4078823          	sb	zero,-1200(a5) # 20005b50 <triangle_flag>
     794:	88018023          	sb	zero,-1920(gp) # 20000208 <rightangle_flag>
     798:	200067b7          	lui	a5,0x20006
     79c:	b40782a3          	sb	zero,-1211(a5) # 20005b45 <out_flag>
     7a0:	200067b7          	lui	a5,0x20006
     7a4:	b4078223          	sb	zero,-1212(a5) # 20005b44 <black_white_first>
     7a8:	4641                	li	a2,16
     7aa:	200067b7          	lui	a5,0x20006
     7ae:	04300593          	li	a1,67
     7b2:	4521                	li	a0,8
     7b4:	20006437          	lui	s0,0x20006
     7b8:	b2078aa3          	sb	zero,-1227(a5) # 20005b35 <black_white_flag>
     7bc:	b40401a3          	sb	zero,-1213(s0) # 20005b43 <car_start>
     7c0:	5aa010ef          	jal	ra,1d6a <exti_enable>
     7c4:	4641                	li	a2,16
     7c6:	04400593          	li	a1,68
     7ca:	4541                	li	a0,16
     7cc:	59e010ef          	jal	ra,1d6a <exti_enable>
     7d0:	4641                	li	a2,16
     7d2:	04500593          	li	a1,69
     7d6:	02000513          	li	a0,32
     7da:	590010ef          	jal	ra,1d6a <exti_enable>
     7de:	b4344783          	lbu	a5,-1213(s0)
     7e2:	14078b63          	beqz	a5,938 <__stack_size+0x138>
     7e6:	200064b7          	lui	s1,0x20006
     7ea:	20006cb7          	lui	s9,0x20006
     7ee:	200009b7          	lui	s3,0x20000
     7f2:	b9448493          	addi	s1,s1,-1132 # 20005b94 <Center_line>
     7f6:	20006c37          	lui	s8,0x20006
     7fa:	2000bbb7          	lui	s7,0x2000b
     7fe:	2000bb37          	lui	s6,0x2000b
     802:	b4344703          	lbu	a4,-1213(s0)
     806:	4785                	li	a5,1
     808:	08f71163          	bne	a4,a5,88a <__stack_size+0x8a>
     80c:	22d030ef          	jal	ra,4238 <car_both_rgb_off>
     810:	12c00513          	li	a0,300
     814:	24e010ef          	jal	ra,1a62 <Delay_Ms>
     818:	4501                	li	a0,0
     81a:	181030ef          	jal	ra,419a <car_both_rgb_on>
     81e:	3e800513          	li	a0,1000
     822:	240010ef          	jal	ra,1a62 <Delay_Ms>
     826:	450d                	li	a0,3
     828:	173030ef          	jal	ra,419a <car_both_rgb_on>
     82c:	3e800513          	li	a0,1000
     830:	232010ef          	jal	ra,1a62 <Delay_Ms>
     834:	6a85                	lui	s5,0x1
     836:	203030ef          	jal	ra,4238 <car_both_rgb_off>
     83a:	388a8593          	addi	a1,s5,904 # 1388 <mt9v03x_init_dvp+0x88>
     83e:	4501                	li	a0,0
     840:	b40401a3          	sb	zero,-1213(s0)
     844:	2aad                	jal	9be <motor_forward>
     846:	388a8593          	addi	a1,s5,904
     84a:	4505                	li	a0,1
     84c:	2a8d                	jal	9be <motor_forward>
     84e:	1f400513          	li	a0,500
     852:	210010ef          	jal	ra,1a62 <Delay_Ms>
     856:	1f400513          	li	a0,500
     85a:	208010ef          	jal	ra,1a62 <Delay_Ms>
     85e:	4581                	li	a1,0
     860:	4501                	li	a0,0
     862:	2ab1                	jal	9be <motor_forward>
     864:	4581                	li	a1,0
     866:	4505                	li	a0,1
     868:	2a99                	jal	9be <motor_forward>
     86a:	06400513          	li	a0,100
     86e:	1f4010ef          	jal	ra,1a62 <Delay_Ms>
     872:	4581                	li	a1,0
     874:	4501                	li	a0,0
     876:	22a1                	jal	9be <motor_forward>
     878:	6589                	lui	a1,0x2
     87a:	4505                	li	a0,1
     87c:	32858593          	addi	a1,a1,808 # 2328 <pwm_gpio_init+0x37a>
     880:	2a3d                	jal	9be <motor_forward>
     882:	14a00513          	li	a0,330
     886:	1dc010ef          	jal	ra,1a62 <Delay_Ms>
     88a:	8501c783          	lbu	a5,-1968(gp) # 200001d8 <_edata>
     88e:	c799                	beqz	a5,89c <__stack_size+0x9c>
     890:	d78c8513          	addi	a0,s9,-648 # 20005d78 <mt9v03x_image_dvp>
     894:	84018823          	sb	zero,-1968(gp) # 200001d8 <_edata>
     898:	76c030ef          	jal	ra,4004 <ImageHandle>
     89c:	31498513          	addi	a0,s3,788 # 20000314 <Pixel>
     8a0:	247030ef          	jal	ra,42e6 <CenterLine>
     8a4:	4881                	li	a7,0
     8a6:	07800813          	li	a6,120
     8aa:	07800713          	li	a4,120
     8ae:	0bc00793          	li	a5,188
     8b2:	0bc00693          	li	a3,188
     8b6:	31498613          	addi	a2,s3,788
     8ba:	4581                	li	a1,0
     8bc:	4501                	li	a0,0
     8be:	2b59                	jal	e54 <ips114_show_gray_image>
     8c0:	8641a603          	lw	a2,-1948(gp) # 200001ec <flag>
     8c4:	4699                	li	a3,6
     8c6:	4581                	li	a1,0
     8c8:	0c800513          	li	a0,200
     8cc:	231d                	jal	df2 <ips114_show_int>
     8ce:	05a4c783          	lbu	a5,90(s1)
     8d2:	05e00613          	li	a2,94
     8d6:	4699                	li	a3,6
     8d8:	8e1d                	sub	a2,a2,a5
     8da:	02800593          	li	a1,40
     8de:	0c800513          	li	a0,200
     8e2:	2b01                	jal	df2 <ips114_show_int>
     8e4:	6bd030ef          	jal	ra,47a0 <error_average>
     8e8:	8641a683          	lw	a3,-1948(gp) # 200001ec <flag>
     8ec:	4799                	li	a5,6
     8ee:	04f69a63          	bne	a3,a5,942 <__stack_size+0x142>
     8f2:	6409                	lui	s0,0x2
     8f4:	64840593          	addi	a1,s0,1608 # 2648 <spi_gpio_init+0x66>
     8f8:	4505                	li	a0,1
     8fa:	20d1                	jal	9be <motor_forward>
     8fc:	4581                	li	a1,0
     8fe:	4501                	li	a0,0
     900:	287d                	jal	9be <motor_forward>
     902:	0aa00513          	li	a0,170
     906:	15c010ef          	jal	ra,1a62 <Delay_Ms>
     90a:	0aa00513          	li	a0,170
     90e:	154010ef          	jal	ra,1a62 <Delay_Ms>
     912:	b5840593          	addi	a1,s0,-1192
     916:	4501                	li	a0,0
     918:	205d                	jal	9be <motor_forward>
     91a:	b5840593          	addi	a1,s0,-1192
     91e:	4505                	li	a0,1
     920:	2879                	jal	9be <motor_forward>
     922:	32000513          	li	a0,800
     926:	13c010ef          	jal	ra,1a62 <Delay_Ms>
     92a:	4581                	li	a1,0
     92c:	4501                	li	a0,0
     92e:	2841                	jal	9be <motor_forward>
     930:	4581                	li	a1,0
     932:	4505                	li	a0,1
     934:	2069                	jal	9be <motor_forward>
     936:	a001                	j	936 <__stack_size+0x136>
     938:	3e800513          	li	a0,1000
     93c:	126010ef          	jal	ra,1a62 <Delay_Ms>
     940:	bd79                	j	7de <main+0xb2>
     942:	b90c2503          	lw	a0,-1136(s8) # 20005b90 <error>
     946:	c636                	sw	a3,12(sp)
     948:	565070ef          	jal	ra,86ac <__floatsisf>
     94c:	46b2                	lw	a3,12(sp)
     94e:	5b0b8613          	addi	a2,s7,1456 # 2000b5b0 <R_PID>
     952:	59cb0593          	addi	a1,s6,1436 # 2000b59c <L_PID>
     956:	6f1030ef          	jal	ra,4846 <pid_forward_move>
     95a:	b565                	j	802 <__stack_size+0x2>

0000095c <motor_init>:
     95c:	1141                	addi	sp,sp,-16
     95e:	c606                	sw	ra,12(sp)
     960:	c422                	sw	s0,8(sp)
     962:	e515                	bnez	a0,98e <motor_init+0x32>
     964:	0002c437          	lui	s0,0x2c
     968:	46a1                	li	a3,8
     96a:	4601                	li	a2,0
     96c:	f2040593          	addi	a1,s0,-224 # 2bf20 <_data_lma+0x21724>
     970:	20300513          	li	a0,515
     974:	2ad010ef          	jal	ra,2420 <pwm_init>
     978:	46a1                	li	a3,8
     97a:	4601                	li	a2,0
     97c:	f2040593          	addi	a1,s0,-224
     980:	20200513          	li	a0,514
     984:	4422                	lw	s0,8(sp)
     986:	40b2                	lw	ra,12(sp)
     988:	0141                	addi	sp,sp,16
     98a:	2970106f          	j	2420 <pwm_init>
     98e:	4785                	li	a5,1
     990:	02f51363          	bne	a0,a5,9b6 <motor_init+0x5a>
     994:	0002c437          	lui	s0,0x2c
     998:	4681                	li	a3,0
     99a:	4601                	li	a2,0
     99c:	f2040593          	addi	a1,s0,-224 # 2bf20 <_data_lma+0x21724>
     9a0:	10100513          	li	a0,257
     9a4:	27d010ef          	jal	ra,2420 <pwm_init>
     9a8:	4681                	li	a3,0
     9aa:	4601                	li	a2,0
     9ac:	f2040593          	addi	a1,s0,-224
     9b0:	10000513          	li	a0,256
     9b4:	bfc1                	j	984 <motor_init+0x28>
     9b6:	40b2                	lw	ra,12(sp)
     9b8:	4422                	lw	s0,8(sp)
     9ba:	0141                	addi	sp,sp,16
     9bc:	8082                	ret

000009be <motor_forward>:
     9be:	1101                	addi	sp,sp,-32
     9c0:	6789                	lui	a5,0x2
     9c2:	cc22                	sw	s0,24(sp)
     9c4:	c64e                	sw	s3,12(sp)
     9c6:	64878793          	addi	a5,a5,1608 # 2648 <spi_gpio_init+0x66>
     9ca:	ce06                	sw	ra,28(sp)
     9cc:	ca26                	sw	s1,20(sp)
     9ce:	c84a                	sw	s2,16(sp)
     9d0:	89aa                	mv	s3,a0
     9d2:	843e                	mv	s0,a5
     9d4:	00b7e363          	bltu	a5,a1,9da <motor_forward+0x1c>
     9d8:	842e                	mv	s0,a1
     9da:	87c1a783          	lw	a5,-1924(gp) # 20000204 <flagLED>
     9de:	0442                	slli	s0,s0,0x10
     9e0:	8041                	srli	s0,s0,0x10
     9e2:	c3a1                	beqz	a5,a22 <motor_forward+0x64>
     9e4:	20006737          	lui	a4,0x20006
     9e8:	b4c72703          	lw	a4,-1204(a4) # 20005b4c <arrays>
     9ec:	078a                	slli	a5,a5,0x2
     9ee:	97ba                	add	a5,a5,a4
     9f0:	e707a783          	lw	a5,-400(a5)
     9f4:	4705                	li	a4,1
     9f6:	04e79f63          	bne	a5,a4,a54 <motor_forward+0x96>
     9fa:	200067b7          	lui	a5,0x20006
     9fe:	b427c703          	lbu	a4,-1214(a5) # 20005b42 <triangle_turn>
     a02:	893e                	mv	s2,a5
     a04:	e319                	bnez	a4,a0a <motor_forward+0x4c>
     a06:	04f030ef          	jal	ra,4254 <car_yellow_left>
     a0a:	b4294703          	lbu	a4,-1214(s2)
     a0e:	4785                	li	a5,1
     a10:	00f71463          	bne	a4,a5,a18 <motor_forward+0x5a>
     a14:	059030ef          	jal	ra,426c <car_yellow_right>
     a18:	87c1a783          	lw	a5,-1924(gp) # 20000204 <flagLED>
     a1c:	0785                	addi	a5,a5,1
     a1e:	86f1ae23          	sw	a5,-1924(gp) # 20000204 <flagLED>
     a22:	04099663          	bnez	s3,a6e <motor_forward+0xb0>
     a26:	85a2                	mv	a1,s0
     a28:	20300513          	li	a0,515
     a2c:	552010ef          	jal	ra,1f7e <pwm_duty>
     a30:	06400593          	li	a1,100
     a34:	0c800513          	li	a0,200
     a38:	4699                	li	a3,6
     a3a:	8622                	mv	a2,s0
     a3c:	2e5d                	jal	df2 <ips114_show_int>
     a3e:	4581                	li	a1,0
     a40:	20200513          	li	a0,514
     a44:	4462                	lw	s0,24(sp)
     a46:	40f2                	lw	ra,28(sp)
     a48:	44d2                	lw	s1,20(sp)
     a4a:	4942                	lw	s2,16(sp)
     a4c:	49b2                	lw	s3,12(sp)
     a4e:	6105                	addi	sp,sp,32
     a50:	52e0106f          	j	1f7e <pwm_duty>
     a54:	4709                	li	a4,2
     a56:	00e79563          	bne	a5,a4,a60 <motor_forward+0xa2>
     a5a:	7de030ef          	jal	ra,4238 <car_both_rgb_off>
     a5e:	bf6d                	j	a18 <motor_forward+0x5a>
     a60:	470d                	li	a4,3
     a62:	fae79be3          	bne	a5,a4,a18 <motor_forward+0x5a>
     a66:	57fd                	li	a5,-1
     a68:	86f1ae23          	sw	a5,-1924(gp) # 20000204 <flagLED>
     a6c:	b775                	j	a18 <motor_forward+0x5a>
     a6e:	4785                	li	a5,1
     a70:	0ef99663          	bne	s3,a5,b5c <motor_forward+0x19e>
     a74:	8641a683          	lw	a3,-1948(gp) # 200001ec <flag>
     a78:	4715                	li	a4,5
     a7a:	84be                	mv	s1,a5
     a7c:	04e69263          	bne	a3,a4,ac0 <motor_forward+0x102>
     a80:	6909                	lui	s2,0x2
     a82:	b5890593          	addi	a1,s2,-1192 # 1b58 <adc_gpio_init+0xc0>
     a86:	20300513          	li	a0,515
     a8a:	4f4010ef          	jal	ra,1f7e <pwm_duty>
     a8e:	b5890593          	addi	a1,s2,-1192
     a92:	10100513          	li	a0,257
     a96:	4e8010ef          	jal	ra,1f7e <pwm_duty>
     a9a:	32000513          	li	a0,800
     a9e:	7c5000ef          	jal	ra,1a62 <Delay_Ms>
     aa2:	4581                	li	a1,0
     aa4:	20300513          	li	a0,515
     aa8:	4d6010ef          	jal	ra,1f7e <pwm_duty>
     aac:	10100513          	li	a0,257
     ab0:	64890593          	addi	a1,s2,1608
     ab4:	4ca010ef          	jal	ra,1f7e <pwm_duty>
     ab8:	19000513          	li	a0,400
     abc:	7a7000ef          	jal	ra,1a62 <Delay_Ms>
     ac0:	8641a783          	lw	a5,-1948(gp) # 200001ec <flag>
     ac4:	4711                	li	a4,4
     ac6:	04e79a63          	bne	a5,a4,b1a <motor_forward+0x15c>
     aca:	4581                	li	a1,0
     acc:	20300513          	li	a0,515
     ad0:	4ae010ef          	jal	ra,1f7e <pwm_duty>
     ad4:	4581                	li	a1,0
     ad6:	10100513          	li	a0,257
     ada:	4a4010ef          	jal	ra,1f7e <pwm_duty>
     ade:	06400513          	li	a0,100
     ae2:	781000ef          	jal	ra,1a62 <Delay_Ms>
     ae6:	6589                	lui	a1,0x2
     ae8:	f4058593          	addi	a1,a1,-192 # 1f40 <interrupt_disable+0xa>
     aec:	20300513          	li	a0,515
     af0:	48e010ef          	jal	ra,1f7e <pwm_duty>
     af4:	4581                	li	a1,0
     af6:	10100513          	li	a0,257
     afa:	484010ef          	jal	ra,1f7e <pwm_duty>
     afe:	09b00513          	li	a0,155
     b02:	761000ef          	jal	ra,1a62 <Delay_Ms>
     b06:	4462                	lw	s0,24(sp)
     b08:	40f2                	lw	ra,28(sp)
     b0a:	44d2                	lw	s1,20(sp)
     b0c:	4942                	lw	s2,16(sp)
     b0e:	49b2                	lw	s3,12(sp)
     b10:	09b00513          	li	a0,155
     b14:	6105                	addi	sp,sp,32
     b16:	74d0006f          	j	1a62 <Delay_Ms>
     b1a:	471d                	li	a4,7
     b1c:	02e79063          	bne	a5,a4,b3c <motor_forward+0x17e>
     b20:	4581                	li	a1,0
     b22:	20300513          	li	a0,515
     b26:	458010ef          	jal	ra,1f7e <pwm_duty>
     b2a:	10100513          	li	a0,257
     b2e:	4581                	li	a1,0
     b30:	44e010ef          	jal	ra,1f7e <pwm_duty>
     b34:	3e800513          	li	a0,1000
     b38:	72b000ef          	jal	ra,1a62 <Delay_Ms>
     b3c:	85a2                	mv	a1,s0
     b3e:	10100513          	li	a0,257
     b42:	43c010ef          	jal	ra,1f7e <pwm_duty>
     b46:	07800593          	li	a1,120
     b4a:	0c800513          	li	a0,200
     b4e:	4699                	li	a3,6
     b50:	8622                	mv	a2,s0
     b52:	2445                	jal	df2 <ips114_show_int>
     b54:	4581                	li	a1,0
     b56:	10000513          	li	a0,256
     b5a:	b5ed                	j	a44 <motor_forward+0x86>
     b5c:	40f2                	lw	ra,28(sp)
     b5e:	4462                	lw	s0,24(sp)
     b60:	44d2                	lw	s1,20(sp)
     b62:	4942                	lw	s2,16(sp)
     b64:	49b2                	lw	s3,12(sp)
     b66:	6105                	addi	sp,sp,32
     b68:	8082                	ret

00000b6a <ips114_write_index>:
     b6a:	1141                	addi	sp,sp,-16
     b6c:	67a9                	lui	a5,0xa
     b6e:	c422                	sw	s0,8(sp)
     b70:	3747a403          	lw	s0,884(a5) # a374 <GPION+0xc>
     b74:	c226                	sw	s1,4(sp)
     b76:	c04a                	sw	s2,0(sp)
     b78:	c606                	sw	ra,12(sp)
     b7a:	44c1                	li	s1,16
     b7c:	c804                	sw	s1,16(s0)
     b7e:	c844                	sw	s1,20(s0)
     b80:	08000913          	li	s2,128
     b84:	01242a23          	sw	s2,20(s0)
     b88:	85aa                	mv	a1,a0
     b8a:	4505                	li	a0,1
     b8c:	493010ef          	jal	ra,281e <spi_write_8bit>
     b90:	01242823          	sw	s2,16(s0)
     b94:	c804                	sw	s1,16(s0)
     b96:	c844                	sw	s1,20(s0)
     b98:	40b2                	lw	ra,12(sp)
     b9a:	4422                	lw	s0,8(sp)
     b9c:	4492                	lw	s1,4(sp)
     b9e:	4902                	lw	s2,0(sp)
     ba0:	0141                	addi	sp,sp,16
     ba2:	8082                	ret

00000ba4 <ips114_set_region>:
     ba4:	8041a783          	lw	a5,-2044(gp) # 2000018c <ips114_display_dir>
     ba8:	1101                	addi	sp,sp,-32
     baa:	cc22                	sw	s0,24(sp)
     bac:	ca26                	sw	s1,20(sp)
     bae:	c84a                	sw	s2,16(sp)
     bb0:	c64e                	sw	s3,12(sp)
     bb2:	ce06                	sw	ra,28(sp)
     bb4:	89aa                	mv	s3,a0
     bb6:	84ae                	mv	s1,a1
     bb8:	8932                	mv	s2,a2
     bba:	8436                	mv	s0,a3
     bbc:	efa1                	bnez	a5,c14 <ips114_set_region+0x70>
     bbe:	02a00513          	li	a0,42
     bc2:	3765                	jal	b6a <ips114_write_index>
     bc4:	03498593          	addi	a1,s3,52
     bc8:	05c2                	slli	a1,a1,0x10
     bca:	81c1                	srli	a1,a1,0x10
     bcc:	4505                	li	a0,1
     bce:	46d010ef          	jal	ra,283a <spi_write_16bit>
     bd2:	03490593          	addi	a1,s2,52
     bd6:	05c2                	slli	a1,a1,0x10
     bd8:	81c1                	srli	a1,a1,0x10
     bda:	4505                	li	a0,1
     bdc:	45f010ef          	jal	ra,283a <spi_write_16bit>
     be0:	02b00513          	li	a0,43
     be4:	3759                	jal	b6a <ips114_write_index>
     be6:	02848593          	addi	a1,s1,40
     bea:	05c2                	slli	a1,a1,0x10
     bec:	81c1                	srli	a1,a1,0x10
     bee:	4505                	li	a0,1
     bf0:	44b010ef          	jal	ra,283a <spi_write_16bit>
     bf4:	02840593          	addi	a1,s0,40
     bf8:	05c2                	slli	a1,a1,0x10
     bfa:	4505                	li	a0,1
     bfc:	81c1                	srli	a1,a1,0x10
     bfe:	43d010ef          	jal	ra,283a <spi_write_16bit>
     c02:	4462                	lw	s0,24(sp)
     c04:	40f2                	lw	ra,28(sp)
     c06:	44d2                	lw	s1,20(sp)
     c08:	4942                	lw	s2,16(sp)
     c0a:	49b2                	lw	s3,12(sp)
     c0c:	02c00513          	li	a0,44
     c10:	6105                	addi	sp,sp,32
     c12:	bfa1                	j	b6a <ips114_write_index>
     c14:	4705                	li	a4,1
     c16:	00e79f63          	bne	a5,a4,c34 <ips114_set_region+0x90>
     c1a:	02a00513          	li	a0,42
     c1e:	37b1                	jal	b6a <ips114_write_index>
     c20:	03598593          	addi	a1,s3,53
     c24:	05c2                	slli	a1,a1,0x10
     c26:	81c1                	srli	a1,a1,0x10
     c28:	4505                	li	a0,1
     c2a:	411010ef          	jal	ra,283a <spi_write_16bit>
     c2e:	03590593          	addi	a1,s2,53
     c32:	b755                	j	bd6 <ips114_set_region+0x32>
     c34:	02850993          	addi	s3,a0,40 # 40015028 <_eusrstack+0x20005028>
     c38:	02860913          	addi	s2,a2,40
     c3c:	09c2                	slli	s3,s3,0x10
     c3e:	0942                	slli	s2,s2,0x10
     c40:	4709                	li	a4,2
     c42:	0109d993          	srli	s3,s3,0x10
     c46:	01095913          	srli	s2,s2,0x10
     c4a:	02a00513          	li	a0,42
     c4e:	02e79863          	bne	a5,a4,c7e <ips114_set_region+0xda>
     c52:	3f21                	jal	b6a <ips114_write_index>
     c54:	85ce                	mv	a1,s3
     c56:	4505                	li	a0,1
     c58:	3e3010ef          	jal	ra,283a <spi_write_16bit>
     c5c:	85ca                	mv	a1,s2
     c5e:	4505                	li	a0,1
     c60:	3db010ef          	jal	ra,283a <spi_write_16bit>
     c64:	02b00513          	li	a0,43
     c68:	3709                	jal	b6a <ips114_write_index>
     c6a:	03548593          	addi	a1,s1,53
     c6e:	05c2                	slli	a1,a1,0x10
     c70:	81c1                	srli	a1,a1,0x10
     c72:	4505                	li	a0,1
     c74:	3c7010ef          	jal	ra,283a <spi_write_16bit>
     c78:	03540593          	addi	a1,s0,53
     c7c:	bfb5                	j	bf8 <ips114_set_region+0x54>
     c7e:	35f5                	jal	b6a <ips114_write_index>
     c80:	85ce                	mv	a1,s3
     c82:	4505                	li	a0,1
     c84:	3b7010ef          	jal	ra,283a <spi_write_16bit>
     c88:	85ca                	mv	a1,s2
     c8a:	4505                	li	a0,1
     c8c:	3af010ef          	jal	ra,283a <spi_write_16bit>
     c90:	02b00513          	li	a0,43
     c94:	3dd9                	jal	b6a <ips114_write_index>
     c96:	03448593          	addi	a1,s1,52
     c9a:	05c2                	slli	a1,a1,0x10
     c9c:	81c1                	srli	a1,a1,0x10
     c9e:	4505                	li	a0,1
     ca0:	39b010ef          	jal	ra,283a <spi_write_16bit>
     ca4:	03440593          	addi	a1,s0,52
     ca8:	bf81                	j	bf8 <ips114_set_region+0x54>

00000caa <ips114_clear>:
     caa:	80a1c603          	lbu	a2,-2038(gp) # 20000192 <ips114_x_max>
     cae:	80b1c683          	lbu	a3,-2037(gp) # 20000193 <ips114_y_max>
     cb2:	1141                	addi	sp,sp,-16
     cb4:	c422                	sw	s0,8(sp)
     cb6:	02d60433          	mul	s0,a2,a3
     cba:	16fd                	addi	a3,a3,-1
     cbc:	167d                	addi	a2,a2,-1
     cbe:	06c2                	slli	a3,a3,0x10
     cc0:	0642                	slli	a2,a2,0x10
     cc2:	82c1                	srli	a3,a3,0x10
     cc4:	8241                	srli	a2,a2,0x10
     cc6:	4581                	li	a1,0
     cc8:	4501                	li	a0,0
     cca:	c226                	sw	s1,4(sp)
     ccc:	c606                	sw	ra,12(sp)
     cce:	200004b7          	lui	s1,0x20000
     cd2:	3dc9                	jal	ba4 <ips114_set_region>
     cd4:	e411                	bnez	s0,ce0 <ips114_clear+0x36>
     cd6:	40b2                	lw	ra,12(sp)
     cd8:	4422                	lw	s0,8(sp)
     cda:	4492                	lw	s1,4(sp)
     cdc:	0141                	addi	sp,sp,16
     cde:	8082                	ret
     ce0:	1884d583          	lhu	a1,392(s1) # 20000188 <ips114_bgcolor>
     ce4:	4505                	li	a0,1
     ce6:	147d                	addi	s0,s0,-1
     ce8:	353010ef          	jal	ra,283a <spi_write_16bit>
     cec:	b7e5                	j	cd4 <ips114_clear+0x2a>

00000cee <ips114_set_dir>:
     cee:	80a1a223          	sw	a0,-2044(gp) # 2000018c <ips114_display_dir>
     cf2:	4685                	li	a3,1
     cf4:	80a18713          	addi	a4,gp,-2038 # 20000192 <ips114_x_max>
     cf8:	80b18793          	addi	a5,gp,-2037 # 20000193 <ips114_y_max>
     cfc:	00a6ea63          	bltu	a3,a0,d10 <ips114_set_dir+0x22>
     d00:	f8700693          	li	a3,-121
     d04:	00d70023          	sb	a3,0(a4)
     d08:	5741                	li	a4,-16
     d0a:	00e78023          	sb	a4,0(a5)
     d0e:	8082                	ret
     d10:	56c1                	li	a3,-16
     d12:	00d70023          	sb	a3,0(a4)
     d16:	f8700713          	li	a4,-121
     d1a:	bfc5                	j	d0a <ips114_set_dir+0x1c>

00000d1c <ips114_show_char>:
     d1c:	7179                	addi	sp,sp,-48
     d1e:	ce4e                	sw	s3,28(sp)
     d20:	67a9                	lui	a5,0xa
     d22:	00750993          	addi	s3,a0,7
     d26:	0612                	slli	a2,a2,0x4
     d28:	d7878793          	addi	a5,a5,-648 # 9d78 <tft_ascii>
     d2c:	09c2                	slli	s3,s3,0x10
     d2e:	d422                	sw	s0,40(sp)
     d30:	d04a                	sw	s2,32(sp)
     d32:	ca56                	sw	s5,20(sp)
     d34:	c85a                	sw	s6,16(sp)
     d36:	c65e                	sw	s7,12(sp)
     d38:	c462                	sw	s8,8(sp)
     d3a:	c266                	sw	s9,4(sp)
     d3c:	d606                	sw	ra,44(sp)
     d3e:	d226                	sw	s1,36(sp)
     d40:	cc52                	sw	s4,24(sp)
     d42:	8aaa                	mv	s5,a0
     d44:	8bae                	mv	s7,a1
     d46:	00f60433          	add	s0,a2,a5
     d4a:	4901                	li	s2,0
     d4c:	0109d993          	srli	s3,s3,0x10
     d50:	20000c37          	lui	s8,0x20000
     d54:	4b41                	li	s6,16
     d56:	012b86b3          	add	a3,s7,s2
     d5a:	06c2                	slli	a3,a3,0x10
     d5c:	82c1                	srli	a3,a3,0x10
     d5e:	864e                	mv	a2,s3
     d60:	85b6                	mv	a1,a3
     d62:	8556                	mv	a0,s5
     d64:	3581                	jal	ba4 <ips114_set_region>
     d66:	e0044a03          	lbu	s4,-512(s0)
     d6a:	44a1                	li	s1,8
     d6c:	001a7793          	andi	a5,s4,1
     d70:	cf8d                	beqz	a5,daa <ips114_show_char+0x8e>
     d72:	8081d583          	lhu	a1,-2040(gp) # 20000190 <ips114_pencolor>
     d76:	14fd                	addi	s1,s1,-1
     d78:	4505                	li	a0,1
     d7a:	0ff4f493          	andi	s1,s1,255
     d7e:	2bd010ef          	jal	ra,283a <spi_write_16bit>
     d82:	001a5a13          	srli	s4,s4,0x1
     d86:	f0fd                	bnez	s1,d6c <ips114_show_char+0x50>
     d88:	0905                	addi	s2,s2,1
     d8a:	0405                	addi	s0,s0,1
     d8c:	fd6915e3          	bne	s2,s6,d56 <ips114_show_char+0x3a>
     d90:	50b2                	lw	ra,44(sp)
     d92:	5422                	lw	s0,40(sp)
     d94:	5492                	lw	s1,36(sp)
     d96:	5902                	lw	s2,32(sp)
     d98:	49f2                	lw	s3,28(sp)
     d9a:	4a62                	lw	s4,24(sp)
     d9c:	4ad2                	lw	s5,20(sp)
     d9e:	4b42                	lw	s6,16(sp)
     da0:	4bb2                	lw	s7,12(sp)
     da2:	4c22                	lw	s8,8(sp)
     da4:	4c92                	lw	s9,4(sp)
     da6:	6145                	addi	sp,sp,48
     da8:	8082                	ret
     daa:	188c5583          	lhu	a1,392(s8) # 20000188 <ips114_bgcolor>
     dae:	b7e1                	j	d76 <ips114_show_char+0x5a>

00000db0 <ips114_show_string>:
     db0:	1101                	addi	sp,sp,-32
     db2:	cc22                	sw	s0,24(sp)
     db4:	ca26                	sw	s1,20(sp)
     db6:	c84a                	sw	s2,16(sp)
     db8:	c64e                	sw	s3,12(sp)
     dba:	ce06                	sw	ra,28(sp)
     dbc:	892a                	mv	s2,a0
     dbe:	89ae                	mv	s3,a1
     dc0:	84b2                	mv	s1,a2
     dc2:	4401                	li	s0,0
     dc4:	008487b3          	add	a5,s1,s0
     dc8:	00078603          	lb	a2,0(a5)
     dcc:	ea01                	bnez	a2,ddc <ips114_show_string+0x2c>
     dce:	40f2                	lw	ra,28(sp)
     dd0:	4462                	lw	s0,24(sp)
     dd2:	44d2                	lw	s1,20(sp)
     dd4:	4942                	lw	s2,16(sp)
     dd6:	49b2                	lw	s3,12(sp)
     dd8:	6105                	addi	sp,sp,32
     dda:	8082                	ret
     ddc:	00341513          	slli	a0,s0,0x3
     de0:	954a                	add	a0,a0,s2
     de2:	0542                	slli	a0,a0,0x10
     de4:	0405                	addi	s0,s0,1
     de6:	85ce                	mv	a1,s3
     de8:	8141                	srli	a0,a0,0x10
     dea:	0442                	slli	s0,s0,0x10
     dec:	3f05                	jal	d1c <ips114_show_char>
     dee:	8041                	srli	s0,s0,0x10
     df0:	bfd1                	j	dc4 <ips114_show_string+0x14>

00000df2 <ips114_show_int>:
     df2:	7179                	addi	sp,sp,-48
     df4:	d422                	sw	s0,40(sp)
     df6:	d226                	sw	s1,36(sp)
     df8:	d04a                	sw	s2,32(sp)
     dfa:	84aa                	mv	s1,a0
     dfc:	892e                	mv	s2,a1
     dfe:	8432                	mv	s0,a2
     e00:	02000593          	li	a1,32
     e04:	00168613          	addi	a2,a3,1
     e08:	0848                	addi	a0,sp,20
     e0a:	c636                	sw	a3,12(sp)
     e0c:	d606                	sw	ra,44(sp)
     e0e:	ca02                	sw	zero,20(sp)
     e10:	cc02                	sw	zero,24(sp)
     e12:	ce02                	sw	zero,28(sp)
     e14:	becff0ef          	jal	ra,200 <memset>
     e18:	46b2                	lw	a3,12(sp)
     e1a:	47a5                	li	a5,9
     e1c:	02d7f963          	bgeu	a5,a3,e4e <ips114_show_int+0x5c>
     e20:	85a2                	mv	a1,s0
     e22:	0848                	addi	a0,sp,20
     e24:	66a000ef          	jal	ra,148e <int_to_str>
     e28:	0850                	addi	a2,sp,20
     e2a:	85ca                	mv	a1,s2
     e2c:	8526                	mv	a0,s1
     e2e:	3749                	jal	db0 <ips114_show_string>
     e30:	50b2                	lw	ra,44(sp)
     e32:	5422                	lw	s0,40(sp)
     e34:	5492                	lw	s1,36(sp)
     e36:	5902                	lw	s2,32(sp)
     e38:	6145                	addi	sp,sp,48
     e3a:	8082                	ret
     e3c:	02e787b3          	mul	a5,a5,a4
     e40:	16fd                	addi	a3,a3,-1
     e42:	0ff6f693          	andi	a3,a3,255
     e46:	fafd                	bnez	a3,e3c <ips114_show_int+0x4a>
     e48:	02f46433          	rem	s0,s0,a5
     e4c:	bfd1                	j	e20 <ips114_show_int+0x2e>
     e4e:	4785                	li	a5,1
     e50:	4729                	li	a4,10
     e52:	bfd5                	j	e46 <ips114_show_int+0x54>

00000e54 <ips114_show_gray_image>:
     e54:	7139                	addi	sp,sp,-64
     e56:	cc62                	sw	s8,24(sp)
     e58:	c86a                	sw	s10,16(sp)
     e5a:	8c36                	mv	s8,a3
     e5c:	8d32                	mv	s10,a2
     e5e:	fff80693          	addi	a3,a6,-1
     e62:	fff78613          	addi	a2,a5,-1
     e66:	96ae                	add	a3,a3,a1
     e68:	962a                	add	a2,a2,a0
     e6a:	06c2                	slli	a3,a3,0x10
     e6c:	0642                	slli	a2,a2,0x10
     e6e:	d256                	sw	s5,36(sp)
     e70:	82c1                	srli	a3,a3,0x10
     e72:	8241                	srli	a2,a2,0x10
     e74:	6ac1                	lui	s5,0x10
     e76:	da26                	sw	s1,52(sp)
     e78:	d84a                	sw	s2,48(sp)
     e7a:	d64e                	sw	s3,44(sp)
     e7c:	d452                	sw	s4,40(sp)
     e7e:	ca66                	sw	s9,20(sp)
     e80:	c66e                	sw	s11,12(sp)
     e82:	de06                	sw	ra,60(sp)
     e84:	dc22                	sw	s0,56(sp)
     e86:	d05a                	sw	s6,32(sp)
     e88:	ce5e                	sw	s7,28(sp)
     e8a:	8dba                	mv	s11,a4
     e8c:	8a3e                	mv	s4,a5
     e8e:	8942                	mv	s2,a6
     e90:	8cc6                	mv	s9,a7
     e92:	4981                	li	s3,0
     e94:	3b01                	jal	ba4 <ips114_set_region>
     e96:	4481                	li	s1,0
     e98:	1afd                	addi	s5,s5,-1
     e9a:	0324e163          	bltu	s1,s2,ebc <ips114_show_gray_image+0x68>
     e9e:	50f2                	lw	ra,60(sp)
     ea0:	5462                	lw	s0,56(sp)
     ea2:	54d2                	lw	s1,52(sp)
     ea4:	5942                	lw	s2,48(sp)
     ea6:	59b2                	lw	s3,44(sp)
     ea8:	5a22                	lw	s4,40(sp)
     eaa:	5a92                	lw	s5,36(sp)
     eac:	5b02                	lw	s6,32(sp)
     eae:	4bf2                	lw	s7,28(sp)
     eb0:	4c62                	lw	s8,24(sp)
     eb2:	4cd2                	lw	s9,20(sp)
     eb4:	4d42                	lw	s10,16(sp)
     eb6:	4db2                	lw	s11,12(sp)
     eb8:	6121                	addi	sp,sp,64
     eba:	8082                	ret
     ebc:	0329d433          	divu	s0,s3,s2
     ec0:	4b81                	li	s7,0
     ec2:	4b01                	li	s6,0
     ec4:	03840433          	mul	s0,s0,s8
     ec8:	946a                	add	s0,s0,s10
     eca:	014b6563          	bltu	s6,s4,ed4 <ips114_show_gray_image+0x80>
     ece:	0485                	addi	s1,s1,1
     ed0:	99ee                	add	s3,s3,s11
     ed2:	b7e1                	j	e9a <ips114_show_gray_image+0x46>
     ed4:	034bd7b3          	divu	a5,s7,s4
     ed8:	97a2                	add	a5,a5,s0
     eda:	0007c783          	lbu	a5,0(a5)
     ede:	020c9263          	bnez	s9,f02 <ips114_show_gray_image+0xae>
     ee2:	07c2                	slli	a5,a5,0x10
     ee4:	83c1                	srli	a5,a5,0x10
     ee6:	0037d593          	srli	a1,a5,0x3
     eea:	8389                	srli	a5,a5,0x2
     eec:	00b59713          	slli	a4,a1,0xb
     ef0:	0796                	slli	a5,a5,0x5
     ef2:	8fd9                	or	a5,a5,a4
     ef4:	8ddd                	or	a1,a1,a5
     ef6:	4505                	li	a0,1
     ef8:	143010ef          	jal	ra,283a <spi_write_16bit>
     efc:	0b05                	addi	s6,s6,1
     efe:	9be2                	add	s7,s7,s8
     f00:	b7e9                	j	eca <ips114_show_gray_image+0x76>
     f02:	85d6                	mv	a1,s5
     f04:	fefce9e3          	bltu	s9,a5,ef6 <ips114_show_gray_image+0xa2>
     f08:	4581                	li	a1,0
     f0a:	b7f5                	j	ef6 <ips114_show_gray_image+0xa2>

00000f0c <ips114_init>:
     f0c:	8381a803          	lw	a6,-1992(gp) # 200001c0 <SystemCoreClock>
     f10:	1141                	addi	sp,sp,-16
     f12:	0ff00713          	li	a4,255
     f16:	4781                	li	a5,0
     f18:	0ff00693          	li	a3,255
     f1c:	02200613          	li	a2,34
     f20:	02000593          	li	a1,32
     f24:	4505                	li	a0,1
     f26:	c606                	sw	ra,12(sp)
     f28:	c422                	sw	s0,8(sp)
     f2a:	c226                	sw	s1,4(sp)
     f2c:	c04a                	sw	s2,0(sp)
     f2e:	7ee010ef          	jal	ra,271c <spi_init>
     f32:	46c1                	li	a3,16
     f34:	4601                	li	a2,0
     f36:	4585                	li	a1,1
     f38:	06700513          	li	a0,103
     f3c:	6bd000ef          	jal	ra,1df8 <gpio_init>
     f40:	46c1                	li	a3,16
     f42:	4601                	li	a2,0
     f44:	4585                	li	a1,1
     f46:	02700513          	li	a0,39
     f4a:	6af000ef          	jal	ra,1df8 <gpio_init>
     f4e:	46c1                	li	a3,16
     f50:	4601                	li	a2,0
     f52:	4585                	li	a1,1
     f54:	06400513          	li	a0,100
     f58:	6a1000ef          	jal	ra,1df8 <gpio_init>
     f5c:	4585                	li	a1,1
     f5e:	46c1                	li	a3,16
     f60:	4605                	li	a2,1
     f62:	06000513          	li	a0,96
     f66:	693000ef          	jal	ra,1df8 <gpio_init>
     f6a:	80418413          	addi	s0,gp,-2044 # 2000018c <ips114_display_dir>
     f6e:	4008                	lw	a0,0(s0)
     f70:	08000913          	li	s2,128
     f74:	3bad                	jal	cee <ips114_set_dir>
     f76:	67a9                	lui	a5,0xa
     f78:	36c7a483          	lw	s1,876(a5) # a36c <GPION+0x4>
     f7c:	0c800513          	li	a0,200
     f80:	0124aa23          	sw	s2,20(s1)
     f84:	2df000ef          	jal	ra,1a62 <Delay_Ms>
     f88:	06400513          	li	a0,100
     f8c:	0124a823          	sw	s2,16(s1)
     f90:	2d3000ef          	jal	ra,1a62 <Delay_Ms>
     f94:	03600513          	li	a0,54
     f98:	3ec9                	jal	b6a <ips114_write_index>
     f9a:	06400513          	li	a0,100
     f9e:	2c5000ef          	jal	ra,1a62 <Delay_Ms>
     fa2:	401c                	lw	a5,0(s0)
     fa4:	4581                	li	a1,0
     fa6:	cf89                	beqz	a5,fc0 <ips114_init+0xb4>
     fa8:	4705                	li	a4,1
     faa:	0c000593          	li	a1,192
     fae:	00e78963          	beq	a5,a4,fc0 <ips114_init+0xb4>
     fb2:	4709                	li	a4,2
     fb4:	07000593          	li	a1,112
     fb8:	00e78463          	beq	a5,a4,fc0 <ips114_init+0xb4>
     fbc:	0a000593          	li	a1,160
     fc0:	4505                	li	a0,1
     fc2:	05d010ef          	jal	ra,281e <spi_write_8bit>
     fc6:	03a00513          	li	a0,58
     fca:	3645                	jal	b6a <ips114_write_index>
     fcc:	4595                	li	a1,5
     fce:	4505                	li	a0,1
     fd0:	04f010ef          	jal	ra,281e <spi_write_8bit>
     fd4:	0b200513          	li	a0,178
     fd8:	3e49                	jal	b6a <ips114_write_index>
     fda:	45b1                	li	a1,12
     fdc:	4505                	li	a0,1
     fde:	041010ef          	jal	ra,281e <spi_write_8bit>
     fe2:	45b1                	li	a1,12
     fe4:	4505                	li	a0,1
     fe6:	039010ef          	jal	ra,281e <spi_write_8bit>
     fea:	4581                	li	a1,0
     fec:	4505                	li	a0,1
     fee:	031010ef          	jal	ra,281e <spi_write_8bit>
     ff2:	03300593          	li	a1,51
     ff6:	4505                	li	a0,1
     ff8:	027010ef          	jal	ra,281e <spi_write_8bit>
     ffc:	03300593          	li	a1,51
    1000:	4505                	li	a0,1
    1002:	01d010ef          	jal	ra,281e <spi_write_8bit>
    1006:	0b700513          	li	a0,183
    100a:	3685                	jal	b6a <ips114_write_index>
    100c:	03500593          	li	a1,53
    1010:	4505                	li	a0,1
    1012:	00d010ef          	jal	ra,281e <spi_write_8bit>
    1016:	0bb00513          	li	a0,187
    101a:	3e81                	jal	b6a <ips114_write_index>
    101c:	03700593          	li	a1,55
    1020:	4505                	li	a0,1
    1022:	7fc010ef          	jal	ra,281e <spi_write_8bit>
    1026:	0c000513          	li	a0,192
    102a:	3681                	jal	b6a <ips114_write_index>
    102c:	02c00593          	li	a1,44
    1030:	4505                	li	a0,1
    1032:	7ec010ef          	jal	ra,281e <spi_write_8bit>
    1036:	0c200513          	li	a0,194
    103a:	b31ff0ef          	jal	ra,b6a <ips114_write_index>
    103e:	4585                	li	a1,1
    1040:	4505                	li	a0,1
    1042:	7dc010ef          	jal	ra,281e <spi_write_8bit>
    1046:	0c300513          	li	a0,195
    104a:	b21ff0ef          	jal	ra,b6a <ips114_write_index>
    104e:	45c9                	li	a1,18
    1050:	4505                	li	a0,1
    1052:	7cc010ef          	jal	ra,281e <spi_write_8bit>
    1056:	0c400513          	li	a0,196
    105a:	b11ff0ef          	jal	ra,b6a <ips114_write_index>
    105e:	02000593          	li	a1,32
    1062:	4505                	li	a0,1
    1064:	7ba010ef          	jal	ra,281e <spi_write_8bit>
    1068:	0c600513          	li	a0,198
    106c:	affff0ef          	jal	ra,b6a <ips114_write_index>
    1070:	45bd                	li	a1,15
    1072:	4505                	li	a0,1
    1074:	7aa010ef          	jal	ra,281e <spi_write_8bit>
    1078:	0d000513          	li	a0,208
    107c:	aefff0ef          	jal	ra,b6a <ips114_write_index>
    1080:	0a400593          	li	a1,164
    1084:	4505                	li	a0,1
    1086:	798010ef          	jal	ra,281e <spi_write_8bit>
    108a:	0a100593          	li	a1,161
    108e:	4505                	li	a0,1
    1090:	78e010ef          	jal	ra,281e <spi_write_8bit>
    1094:	0e000513          	li	a0,224
    1098:	ad3ff0ef          	jal	ra,b6a <ips114_write_index>
    109c:	0d000593          	li	a1,208
    10a0:	4505                	li	a0,1
    10a2:	77c010ef          	jal	ra,281e <spi_write_8bit>
    10a6:	4591                	li	a1,4
    10a8:	4505                	li	a0,1
    10aa:	774010ef          	jal	ra,281e <spi_write_8bit>
    10ae:	45b5                	li	a1,13
    10b0:	4505                	li	a0,1
    10b2:	76c010ef          	jal	ra,281e <spi_write_8bit>
    10b6:	45c5                	li	a1,17
    10b8:	4505                	li	a0,1
    10ba:	764010ef          	jal	ra,281e <spi_write_8bit>
    10be:	45cd                	li	a1,19
    10c0:	4505                	li	a0,1
    10c2:	75c010ef          	jal	ra,281e <spi_write_8bit>
    10c6:	02b00593          	li	a1,43
    10ca:	4505                	li	a0,1
    10cc:	752010ef          	jal	ra,281e <spi_write_8bit>
    10d0:	03f00593          	li	a1,63
    10d4:	4505                	li	a0,1
    10d6:	748010ef          	jal	ra,281e <spi_write_8bit>
    10da:	05400593          	li	a1,84
    10de:	4505                	li	a0,1
    10e0:	73e010ef          	jal	ra,281e <spi_write_8bit>
    10e4:	04c00593          	li	a1,76
    10e8:	4505                	li	a0,1
    10ea:	734010ef          	jal	ra,281e <spi_write_8bit>
    10ee:	45e1                	li	a1,24
    10f0:	4505                	li	a0,1
    10f2:	72c010ef          	jal	ra,281e <spi_write_8bit>
    10f6:	45b5                	li	a1,13
    10f8:	4505                	li	a0,1
    10fa:	724010ef          	jal	ra,281e <spi_write_8bit>
    10fe:	45ad                	li	a1,11
    1100:	4505                	li	a0,1
    1102:	71c010ef          	jal	ra,281e <spi_write_8bit>
    1106:	45fd                	li	a1,31
    1108:	4505                	li	a0,1
    110a:	714010ef          	jal	ra,281e <spi_write_8bit>
    110e:	02300593          	li	a1,35
    1112:	4505                	li	a0,1
    1114:	70a010ef          	jal	ra,281e <spi_write_8bit>
    1118:	0e100513          	li	a0,225
    111c:	a4fff0ef          	jal	ra,b6a <ips114_write_index>
    1120:	0d000593          	li	a1,208
    1124:	4505                	li	a0,1
    1126:	6f8010ef          	jal	ra,281e <spi_write_8bit>
    112a:	4591                	li	a1,4
    112c:	4505                	li	a0,1
    112e:	6f0010ef          	jal	ra,281e <spi_write_8bit>
    1132:	45b1                	li	a1,12
    1134:	4505                	li	a0,1
    1136:	6e8010ef          	jal	ra,281e <spi_write_8bit>
    113a:	45c5                	li	a1,17
    113c:	4505                	li	a0,1
    113e:	6e0010ef          	jal	ra,281e <spi_write_8bit>
    1142:	45cd                	li	a1,19
    1144:	4505                	li	a0,1
    1146:	6d8010ef          	jal	ra,281e <spi_write_8bit>
    114a:	02c00593          	li	a1,44
    114e:	4505                	li	a0,1
    1150:	6ce010ef          	jal	ra,281e <spi_write_8bit>
    1154:	03f00593          	li	a1,63
    1158:	4505                	li	a0,1
    115a:	6c4010ef          	jal	ra,281e <spi_write_8bit>
    115e:	04400593          	li	a1,68
    1162:	4505                	li	a0,1
    1164:	6ba010ef          	jal	ra,281e <spi_write_8bit>
    1168:	05100593          	li	a1,81
    116c:	4505                	li	a0,1
    116e:	6b0010ef          	jal	ra,281e <spi_write_8bit>
    1172:	02f00593          	li	a1,47
    1176:	4505                	li	a0,1
    1178:	6a6010ef          	jal	ra,281e <spi_write_8bit>
    117c:	45fd                	li	a1,31
    117e:	4505                	li	a0,1
    1180:	69e010ef          	jal	ra,281e <spi_write_8bit>
    1184:	45fd                	li	a1,31
    1186:	4505                	li	a0,1
    1188:	696010ef          	jal	ra,281e <spi_write_8bit>
    118c:	02000593          	li	a1,32
    1190:	4505                	li	a0,1
    1192:	68c010ef          	jal	ra,281e <spi_write_8bit>
    1196:	02300593          	li	a1,35
    119a:	4505                	li	a0,1
    119c:	682010ef          	jal	ra,281e <spi_write_8bit>
    11a0:	02100513          	li	a0,33
    11a4:	9c7ff0ef          	jal	ra,b6a <ips114_write_index>
    11a8:	4545                	li	a0,17
    11aa:	9c1ff0ef          	jal	ra,b6a <ips114_write_index>
    11ae:	07800513          	li	a0,120
    11b2:	0b1000ef          	jal	ra,1a62 <Delay_Ms>
    11b6:	02900513          	li	a0,41
    11ba:	9b1ff0ef          	jal	ra,b6a <ips114_write_index>
    11be:	4422                	lw	s0,8(sp)
    11c0:	40b2                	lw	ra,12(sp)
    11c2:	4492                	lw	s1,4(sp)
    11c4:	4902                	lw	s2,0(sp)
    11c6:	0141                	addi	sp,sp,16
    11c8:	ae3ff06f          	j	caa <ips114_clear>

000011cc <mt9v03x_get_config_dvp.constprop.0>:
    11cc:	7179                	addi	sp,sp,-48
    11ce:	d226                	sw	s1,36(sp)
    11d0:	ce4e                	sw	s3,28(sp)
    11d2:	cc52                	sw	s4,24(sp)
    11d4:	200004b7          	lui	s1,0x20000
    11d8:	7a7d                	lui	s4,0xfffff
    11da:	d422                	sw	s0,40(sp)
    11dc:	ca56                	sw	s5,20(sp)
    11de:	c85a                	sw	s6,16(sp)
    11e0:	d606                	sw	ra,44(sp)
    11e2:	d04a                	sw	s2,32(sp)
    11e4:	00048493          	mv	s1,s1
    11e8:	4401                	li	s0,0
    11ea:	1a5a0a13          	addi	s4,s4,421 # fffff1a5 <_eusrstack+0xdffef1a5>
    11ee:	5b7d                	li	s6,-1
    11f0:	85418993          	addi	s3,gp,-1964 # 200001dc <receive_dvp>
    11f4:	0004d783          	lhu	a5,0(s1) # 20000000 <_data_vma>
    11f8:	4611                	li	a2,4
    11fa:	006c                	addi	a1,sp,12
    11fc:	00879713          	slli	a4,a5,0x8
    1200:	83a1                	srli	a5,a5,0x8
    1202:	8fd9                	or	a5,a5,a4
    1204:	4511                	li	a0,4
    1206:	01411623          	sh	s4,12(sp)
    120a:	00f11723          	sh	a5,14(sp)
    120e:	08000913          	li	s2,128
    1212:	71e010ef          	jal	ra,2930 <uart_putbuff>
    1216:	85818793          	addi	a5,gp,-1960 # 200001e0 <uart_receive_flag_dvp>
    121a:	0007c783          	lbu	a5,0(a5)
    121e:	85818713          	addi	a4,gp,-1960 # 200001e0 <uart_receive_flag_dvp>
    1222:	0ff7f793          	andi	a5,a5,255
    1226:	c3a1                	beqz	a5,1266 <mt9v03x_get_config_dvp.constprop.0+0x9a>
    1228:	00091363          	bnez	s2,122e <mt9v03x_get_config_dvp.constprop.0+0x62>
    122c:	c439                	beqz	s0,127a <mt9v03x_get_config_dvp.constprop.0+0xae>
    122e:	0019c783          	lbu	a5,1(s3)
    1232:	00070023          	sb	zero,0(a4)
    1236:	0029c703          	lbu	a4,2(s3)
    123a:	07a2                	slli	a5,a5,0x8
    123c:	0405                	addi	s0,s0,1
    123e:	8fd9                	or	a5,a5,a4
    1240:	0442                	slli	s0,s0,0x10
    1242:	00f49123          	sh	a5,2(s1)
    1246:	8041                	srli	s0,s0,0x10
    1248:	47a5                	li	a5,9
    124a:	0491                	addi	s1,s1,4
    124c:	faf414e3          	bne	s0,a5,11f4 <mt9v03x_get_config_dvp.constprop.0+0x28>
    1250:	4501                	li	a0,0
    1252:	50b2                	lw	ra,44(sp)
    1254:	5422                	lw	s0,40(sp)
    1256:	5492                	lw	s1,36(sp)
    1258:	5902                	lw	s2,32(sp)
    125a:	49f2                	lw	s3,28(sp)
    125c:	4a62                	lw	s4,24(sp)
    125e:	4ad2                	lw	s5,20(sp)
    1260:	4b42                	lw	s6,16(sp)
    1262:	6145                	addi	sp,sp,48
    1264:	8082                	ret
    1266:	197d                	addi	s2,s2,-1
    1268:	0942                	slli	s2,s2,0x10
    126a:	41095913          	srai	s2,s2,0x10
    126e:	fb690fe3          	beq	s2,s6,122c <mt9v03x_get_config_dvp.constprop.0+0x60>
    1272:	4505                	li	a0,1
    1274:	7ee000ef          	jal	ra,1a62 <Delay_Ms>
    1278:	bf79                	j	1216 <mt9v03x_get_config_dvp.constprop.0+0x4a>
    127a:	4505                	li	a0,1
    127c:	bfd9                	j	1252 <mt9v03x_get_config_dvp.constprop.0+0x86>

0000127e <mt9v03x_uart_callback_dvp>:
    127e:	1141                	addi	sp,sp,-16
    1280:	c422                	sw	s0,8(sp)
    1282:	8571c783          	lbu	a5,-1961(gp) # 200001df <receive_num_dvp>
    1286:	c226                	sw	s1,4(sp)
    1288:	85418593          	addi	a1,gp,-1964 # 200001dc <receive_dvp>
    128c:	95be                	add	a1,a1,a5
    128e:	4511                	li	a0,4
    1290:	c606                	sw	ra,12(sp)
    1292:	7a2010ef          	jal	ra,2a34 <uart_query>
    1296:	85418493          	addi	s1,gp,-1964 # 200001dc <receive_dvp>
    129a:	85718793          	addi	a5,gp,-1961 # 200001df <receive_num_dvp>
    129e:	c511                	beqz	a0,12aa <mt9v03x_uart_callback_dvp+0x2c>
    12a0:	0007c703          	lbu	a4,0(a5)
    12a4:	0705                	addi	a4,a4,1
    12a6:	00e78023          	sb	a4,0(a5)
    12aa:	0007c683          	lbu	a3,0(a5)
    12ae:	4705                	li	a4,1
    12b0:	00e69f63          	bne	a3,a4,12ce <mt9v03x_uart_callback_dvp+0x50>
    12b4:	0004c683          	lbu	a3,0(s1)
    12b8:	0a500713          	li	a4,165
    12bc:	00e68463          	beq	a3,a4,12c4 <mt9v03x_uart_callback_dvp+0x46>
    12c0:	00078023          	sb	zero,0(a5)
    12c4:	40b2                	lw	ra,12(sp)
    12c6:	4422                	lw	s0,8(sp)
    12c8:	4492                	lw	s1,4(sp)
    12ca:	0141                	addi	sp,sp,16
    12cc:	8082                	ret
    12ce:	460d                	li	a2,3
    12d0:	fec69ae3          	bne	a3,a2,12c4 <mt9v03x_uart_callback_dvp+0x46>
    12d4:	00078023          	sb	zero,0(a5)
    12d8:	84e18c23          	sb	a4,-1960(gp) # 200001e0 <uart_receive_flag_dvp>
    12dc:	b7e5                	j	12c4 <mt9v03x_uart_callback_dvp+0x46>

000012de <mt9v03x_handler_dvp>:
    12de:	2000b7b7          	lui	a5,0x2000b
    12e2:	5987a703          	lw	a4,1432(a5) # 2000b598 <camera_buffer_addr>
    12e6:	500507b7          	lui	a5,0x50050
    12ea:	4685                	li	a3,1
    12ec:	c798                	sw	a4,8(a5)
    12ee:	84d18823          	sb	a3,-1968(gp) # 200001d8 <_edata>
    12f2:	0007c703          	lbu	a4,0(a5) # 50050000 <_eusrstack+0x30040000>
    12f6:	00176713          	ori	a4,a4,1
    12fa:	00e78023          	sb	a4,0(a5)
    12fe:	8082                	ret

00001300 <mt9v03x_init_dvp>:
    1300:	6589                	lui	a1,0x2
    1302:	7139                	addi	sp,sp,-64
    1304:	05100693          	li	a3,81
    1308:	05000613          	li	a2,80
    130c:	58058593          	addi	a1,a1,1408 # 2580 <pwm_init+0x160>
    1310:	4511                	li	a0,4
    1312:	de06                	sw	ra,60(sp)
    1314:	dc22                	sw	s0,56(sp)
    1316:	da26                	sw	s1,52(sp)
    1318:	d84a                	sw	s2,48(sp)
    131a:	d64e                	sw	s3,44(sp)
    131c:	d452                	sw	s4,40(sp)
    131e:	17b010ef          	jal	ra,2c98 <uart_init>
    1322:	4601                	li	a2,0
    1324:	4585                	li	a1,1
    1326:	4511                	li	a0,4
    1328:	638010ef          	jal	ra,2960 <uart_interrupt_init>
    132c:	431000ef          	jal	ra,1f5c <interrupt_global_enable>
    1330:	85818793          	addi	a5,gp,-1960 # 200001e0 <uart_receive_flag_dvp>
    1334:	00078023          	sb	zero,0(a5)
    1338:	3d51                	jal	11cc <mt9v03x_get_config_dvp.constprop.0>
    133a:	c105                	beqz	a0,135a <mt9v03x_init_dvp+0x5a>
    133c:	0000a6b7          	lui	a3,0xa
    1340:	6629                	lui	a2,0xa
    1342:	cc868693          	addi	a3,a3,-824 # 9cc8 <__func__.6409+0x14>
    1346:	cb460613          	addi	a2,a2,-844 # 9cb4 <__func__.6409>
    134a:	12b00593          	li	a1,299
    134e:	0000a537          	lui	a0,0xa
    1352:	ccc50513          	addi	a0,a0,-820 # 9ccc <__func__.6409+0x18>
    1356:	492070ef          	jal	ra,87e8 <__assert_func>
    135a:	85818413          	addi	s0,gp,-1960 # 200001e0 <uart_receive_flag_dvp>
    135e:	200004b7          	lui	s1,0x20000
    1362:	00040023          	sb	zero,0(s0)
    1366:	02448493          	addi	s1,s1,36 # 20000024 <mt9v03x_set_confing_buffer_dvp>
    136a:	00040023          	sb	zero,0(s0)
    136e:	02848913          	addi	s2,s1,40
    1372:	fa500993          	li	s3,-91
    1376:	0004d783          	lhu	a5,0(s1)
    137a:	4611                	li	a2,4
    137c:	086c                	addi	a1,sp,28
    137e:	00f10ea3          	sb	a5,29(sp)
    1382:	0024d783          	lhu	a5,2(s1)
    1386:	4511                	li	a0,4
    1388:	01310e23          	sb	s3,28(sp)
    138c:	00879713          	slli	a4,a5,0x8
    1390:	83a1                	srli	a5,a5,0x8
    1392:	8fd9                	or	a5,a5,a4
    1394:	00f11f23          	sh	a5,30(sp)
    1398:	598010ef          	jal	ra,2930 <uart_putbuff>
    139c:	4509                	li	a0,2
    139e:	0491                	addi	s1,s1,4
    13a0:	6c2000ef          	jal	ra,1a62 <Delay_Ms>
    13a4:	fd2499e3          	bne	s1,s2,1376 <mt9v03x_init_dvp+0x76>
    13a8:	08100493          	li	s1,129
    13ac:	00044783          	lbu	a5,0(s0)
    13b0:	0ff7f793          	andi	a5,a5,255
    13b4:	e789                	bnez	a5,13be <mt9v03x_init_dvp+0xbe>
    13b6:	14fd                	addi	s1,s1,-1
    13b8:	04c2                	slli	s1,s1,0x10
    13ba:	80c1                	srli	s1,s1,0x10
    13bc:	ec85                	bnez	s1,13f4 <mt9v03x_init_dvp+0xf4>
    13be:	00040023          	sb	zero,0(s0)
    13c2:	08000493          	li	s1,128
    13c6:	85418913          	addi	s2,gp,-1964 # 200001dc <receive_dvp>
    13ca:	0ff00a13          	li	s4,255
    13ce:	59fd                	li	s3,-1
    13d0:	00194783          	lbu	a5,1(s2)
    13d4:	00294703          	lbu	a4,2(s2)
    13d8:	8ff9                	and	a5,a5,a4
    13da:	03479163          	bne	a5,s4,13fc <mt9v03x_init_dvp+0xfc>
    13de:	e885                	bnez	s1,140e <mt9v03x_init_dvp+0x10e>
    13e0:	0000a6b7          	lui	a3,0xa
    13e4:	6629                	lui	a2,0xa
    13e6:	cc868693          	addi	a3,a3,-824 # 9cc8 <__func__.6409+0x14>
    13ea:	cb460613          	addi	a2,a2,-844 # 9cb4 <__func__.6409>
    13ee:	13200593          	li	a1,306
    13f2:	bfb1                	j	134e <mt9v03x_init_dvp+0x4e>
    13f4:	4505                	li	a0,1
    13f6:	66c000ef          	jal	ra,1a62 <Delay_Ms>
    13fa:	bf4d                	j	13ac <mt9v03x_init_dvp+0xac>
    13fc:	14fd                	addi	s1,s1,-1
    13fe:	04c2                	slli	s1,s1,0x10
    1400:	84c1                	srai	s1,s1,0x10
    1402:	fd348fe3          	beq	s1,s3,13e0 <mt9v03x_init_dvp+0xe0>
    1406:	4505                	li	a0,1
    1408:	65a000ef          	jal	ra,1a62 <Delay_Ms>
    140c:	b7d1                	j	13d0 <mt9v03x_init_dvp+0xd0>
    140e:	00040023          	sb	zero,0(s0)
    1412:	3b6d                	jal	11cc <mt9v03x_get_config_dvp.constprop.0>
    1414:	c919                	beqz	a0,142a <mt9v03x_init_dvp+0x12a>
    1416:	0000a6b7          	lui	a3,0xa
    141a:	6629                	lui	a2,0xa
    141c:	cc868693          	addi	a3,a3,-824 # 9cc8 <__func__.6409+0x14>
    1420:	cb460613          	addi	a2,a2,-844 # 9cb4 <__func__.6409>
    1424:	13900593          	li	a1,313
    1428:	b71d                	j	134e <mt9v03x_init_dvp+0x4e>
    142a:	335000ef          	jal	ra,1f5e <interrupt_global_disable>
    142e:	4791                	li	a5,4
    1430:	c43e                	sw	a5,8(sp)
    1432:	4795                	li	a5,5
    1434:	c23e                	sw	a5,4(sp)
    1436:	4799                	li	a5,6
    1438:	c03e                	sw	a5,0(sp)
    143a:	02900893          	li	a7,41
    143e:	02800813          	li	a6,40
    1442:	02600793          	li	a5,38
    1446:	04b00713          	li	a4,75
    144a:	04900693          	li	a3,73
    144e:	04800613          	li	a2,72
    1452:	45a9                	li	a1,10
    1454:	4525                	li	a0,9
    1456:	7a2000ef          	jal	ra,1bf8 <dvp_gpio_init>
    145a:	20006537          	lui	a0,0x20006
    145e:	6619                	lui	a2,0x6
    1460:	d7850713          	addi	a4,a0,-648 # 20005d78 <mt9v03x_image_dvp>
    1464:	2000b7b7          	lui	a5,0x2000b
    1468:	d7850513          	addi	a0,a0,-648
    146c:	4685                	li	a3,1
    146e:	82060613          	addi	a2,a2,-2016 # 5820 <OTG_FS_IRQHandler+0x1a>
    1472:	4581                	li	a1,0
    1474:	58e7ac23          	sw	a4,1432(a5) # 2000b598 <camera_buffer_addr>
    1478:	045000ef          	jal	ra,1cbc <dvp_camera_init>
    147c:	50f2                	lw	ra,60(sp)
    147e:	5462                	lw	s0,56(sp)
    1480:	54d2                	lw	s1,52(sp)
    1482:	5942                	lw	s2,48(sp)
    1484:	59b2                	lw	s3,44(sp)
    1486:	5a22                	lw	s4,40(sp)
    1488:	4501                	li	a0,0
    148a:	6121                	addi	sp,sp,64
    148c:	8082                	ret

0000148e <int_to_str>:
    148e:	0005db63          	bgez	a1,14a4 <int_to_str+0x16>
    1492:	02d00793          	li	a5,45
    1496:	00f50023          	sb	a5,0(a0)
    149a:	0505                	addi	a0,a0,1
    149c:	1141                	addi	sp,sp,-16
    149e:	4781                	li	a5,0
    14a0:	46a9                	li	a3,10
    14a2:	a03d                	j	14d0 <int_to_str+0x42>
    14a4:	fde5                	bnez	a1,149c <int_to_str+0xe>
    14a6:	03000793          	li	a5,48
    14aa:	00f50023          	sb	a5,0(a0)
    14ae:	8082                	ret
    14b0:	0818                	addi	a4,sp,16
    14b2:	00178813          	addi	a6,a5,1
    14b6:	97ba                	add	a5,a5,a4
    14b8:	02d5e733          	rem	a4,a1,a3
    14bc:	02d5c5b3          	div	a1,a1,a3
    14c0:	41f75613          	srai	a2,a4,0x1f
    14c4:	8f31                	xor	a4,a4,a2
    14c6:	8f11                	sub	a4,a4,a2
    14c8:	fee78823          	sb	a4,-16(a5)
    14cc:	0ff87793          	andi	a5,a6,255
    14d0:	f1e5                	bnez	a1,14b0 <int_to_str+0x22>
    14d2:	868a                	mv	a3,sp
    14d4:	97b6                	add	a5,a5,a3
    14d6:	00f69463          	bne	a3,a5,14de <int_to_str+0x50>
    14da:	0141                	addi	sp,sp,16
    14dc:	8082                	ret
    14de:	fff7c703          	lbu	a4,-1(a5)
    14e2:	0505                	addi	a0,a0,1
    14e4:	17fd                	addi	a5,a5,-1
    14e6:	03070713          	addi	a4,a4,48
    14ea:	fee50fa3          	sb	a4,-1(a0)
    14ee:	b7e5                	j	14d6 <int_to_str+0x48>

000014f0 <ws2812b_write>:
    14f0:	7179                	addi	sp,sp,-48
    14f2:	d422                	sw	s0,40(sp)
    14f4:	d04a                	sw	s2,32(sp)
    14f6:	ce4e                	sw	s3,28(sp)
    14f8:	cc52                	sw	s4,24(sp)
    14fa:	ca56                	sw	s5,20(sp)
    14fc:	d606                	sw	ra,44(sp)
    14fe:	d226                	sw	s1,36(sp)
    1500:	00154783          	lbu	a5,1(a0)
    1504:	40000437          	lui	s0,0x40000
    1508:	4581                	li	a1,0
    150a:	00f10623          	sb	a5,12(sp)
    150e:	00054783          	lbu	a5,0(a0)
    1512:	00c10913          	addi	s2,sp,12
    1516:	00f10a13          	addi	s4,sp,15
    151a:	00f106a3          	sb	a5,13(sp)
    151e:	00254783          	lbu	a5,2(a0)
    1522:	40040513          	addi	a0,s0,1024 # 40000400 <_eusrstack+0x1fff0400>
    1526:	40040413          	addi	s0,s0,1024
    152a:	00f10723          	sb	a5,14(sp)
    152e:	076040ef          	jal	ra,55a4 <TIM_SetCounter>
    1532:	6589                	lui	a1,0x2
    1534:	51c58a93          	addi	s5,a1,1308 # 251c <pwm_init+0xfc>
    1538:	13458993          	addi	s3,a1,308
    153c:	44a1                	li	s1,8
    153e:	00094783          	lbu	a5,0(s2)
    1542:	14fd                	addi	s1,s1,-1
    1544:	85ce                	mv	a1,s3
    1546:	4097d7b3          	sra	a5,a5,s1
    154a:	8b85                	andi	a5,a5,1
    154c:	e391                	bnez	a5,1550 <ws2812b_write+0x60>
    154e:	85d6                	mv	a1,s5
    1550:	20100513          	li	a0,513
    1554:	22b000ef          	jal	ra,1f7e <pwm_duty>
    1558:	4605                	li	a2,1
    155a:	4591                	li	a1,4
    155c:	8522                	mv	a0,s0
    155e:	01e040ef          	jal	ra,557c <TIM_CCxCmd>
    1562:	4585                	li	a1,1
    1564:	8522                	mv	a0,s0
    1566:	044040ef          	jal	ra,55aa <TIM_GetFlagStatus>
    156a:	dd65                	beqz	a0,1562 <ws2812b_write+0x72>
    156c:	4601                	li	a2,0
    156e:	4591                	li	a1,4
    1570:	8522                	mv	a0,s0
    1572:	00a040ef          	jal	ra,557c <TIM_CCxCmd>
    1576:	4585                	li	a1,1
    1578:	8522                	mv	a0,s0
    157a:	03c040ef          	jal	ra,55b6 <TIM_ClearFlag>
    157e:	4581                	li	a1,0
    1580:	8522                	mv	a0,s0
    1582:	022040ef          	jal	ra,55a4 <TIM_SetCounter>
    1586:	fcc5                	bnez	s1,153e <ws2812b_write+0x4e>
    1588:	0905                	addi	s2,s2,1
    158a:	fb2a19e3          	bne	s4,s2,153c <ws2812b_write+0x4c>
    158e:	50b2                	lw	ra,44(sp)
    1590:	5422                	lw	s0,40(sp)
    1592:	5492                	lw	s1,36(sp)
    1594:	5902                	lw	s2,32(sp)
    1596:	49f2                	lw	s3,28(sp)
    1598:	4a62                	lw	s4,24(sp)
    159a:	4ad2                	lw	s5,20(sp)
    159c:	6145                	addi	sp,sp,48
    159e:	8082                	ret

000015a0 <ws2812b_init>:
    15a0:	0002c5b7          	lui	a1,0x2c
    15a4:	1101                	addi	sp,sp,-32
    15a6:	4681                	li	a3,0
    15a8:	4601                	li	a2,0
    15aa:	f2058593          	addi	a1,a1,-224 # 2bf20 <_data_lma+0x21724>
    15ae:	20100513          	li	a0,513
    15b2:	ce06                	sw	ra,28(sp)
    15b4:	00011623          	sh	zero,12(sp)
    15b8:	00010723          	sb	zero,14(sp)
    15bc:	665000ef          	jal	ra,2420 <pwm_init>
    15c0:	40000537          	lui	a0,0x40000
    15c4:	4589                	li	a1,2
    15c6:	40050513          	addi	a0,a0,1024 # 40000400 <_eusrstack+0x1fff0400>
    15ca:	799030ef          	jal	ra,5562 <TIM_OC2PolarityConfig>
    15ce:	0068                	addi	a0,sp,12
    15d0:	3705                	jal	14f0 <ws2812b_write>
    15d2:	06400513          	li	a0,100
    15d6:	2991                	jal	1a2a <Delay_Us>
    15d8:	0068                	addi	a0,sp,12
    15da:	3f19                	jal	14f0 <ws2812b_write>
    15dc:	40f2                	lw	ra,28(sp)
    15de:	6105                	addi	sp,sp,32
    15e0:	8082                	ret

000015e2 <TOF400C_Start>:
    15e2:	1141                	addi	sp,sp,-16
    15e4:	4585                	li	a1,1
    15e6:	06b00513          	li	a0,107
    15ea:	c606                	sw	ra,12(sp)
    15ec:	0e9000ef          	jal	ra,1ed4 <gpio_bit_output>
    15f0:	4585                	li	a1,1
    15f2:	06c00513          	li	a0,108
    15f6:	0df000ef          	jal	ra,1ed4 <gpio_bit_output>
    15fa:	4501                	li	a0,0
    15fc:	219d                	jal	1a62 <Delay_Ms>
    15fe:	4581                	li	a1,0
    1600:	06c00513          	li	a0,108
    1604:	0d1000ef          	jal	ra,1ed4 <gpio_bit_output>
    1608:	4501                	li	a0,0
    160a:	29a1                	jal	1a62 <Delay_Ms>
    160c:	40b2                	lw	ra,12(sp)
    160e:	4581                	li	a1,0
    1610:	06b00513          	li	a0,107
    1614:	0141                	addi	sp,sp,16
    1616:	0bf0006f          	j	1ed4 <gpio_bit_output>

0000161a <TOF400C_Stop>:
    161a:	1141                	addi	sp,sp,-16
    161c:	4581                	li	a1,0
    161e:	06b00513          	li	a0,107
    1622:	c606                	sw	ra,12(sp)
    1624:	0b1000ef          	jal	ra,1ed4 <gpio_bit_output>
    1628:	4581                	li	a1,0
    162a:	06c00513          	li	a0,108
    162e:	0a7000ef          	jal	ra,1ed4 <gpio_bit_output>
    1632:	4501                	li	a0,0
    1634:	213d                	jal	1a62 <Delay_Ms>
    1636:	4585                	li	a1,1
    1638:	06b00513          	li	a0,107
    163c:	099000ef          	jal	ra,1ed4 <gpio_bit_output>
    1640:	4501                	li	a0,0
    1642:	2105                	jal	1a62 <Delay_Ms>
    1644:	06c00513          	li	a0,108
    1648:	4585                	li	a1,1
    164a:	08b000ef          	jal	ra,1ed4 <gpio_bit_output>
    164e:	40b2                	lw	ra,12(sp)
    1650:	4501                	li	a0,0
    1652:	0141                	addi	sp,sp,16
    1654:	a139                	j	1a62 <Delay_Ms>

00001656 <TOF400C_Write_Char>:
    1656:	1141                	addi	sp,sp,-16
    1658:	c422                	sw	s0,8(sp)
    165a:	c226                	sw	s1,4(sp)
    165c:	c606                	sw	ra,12(sp)
    165e:	84aa                	mv	s1,a0
    1660:	4425                	li	s0,9
    1662:	147d                	addi	s0,s0,-1
    1664:	0ff47413          	andi	s0,s0,255
    1668:	ec0d                	bnez	s0,16a2 <TOF400C_Write_Char+0x4c>
    166a:	4581                	li	a1,0
    166c:	06b00513          	li	a0,107
    1670:	065000ef          	jal	ra,1ed4 <gpio_bit_output>
    1674:	4501                	li	a0,0
    1676:	26f5                	jal	1a62 <Delay_Ms>
    1678:	4585                	li	a1,1
    167a:	06b00513          	li	a0,107
    167e:	057000ef          	jal	ra,1ed4 <gpio_bit_output>
    1682:	4501                	li	a0,0
    1684:	2ef9                	jal	1a62 <Delay_Ms>
    1686:	06c00513          	li	a0,108
    168a:	071000ef          	jal	ra,1efa <gpio_get_input>
    168e:	c539                	beqz	a0,16dc <TOF400C_Write_Char+0x86>
    1690:	4422                	lw	s0,8(sp)
    1692:	40b2                	lw	ra,12(sp)
    1694:	4492                	lw	s1,4(sp)
    1696:	4585                	li	a1,1
    1698:	06b00513          	li	a0,107
    169c:	0141                	addi	sp,sp,16
    169e:	0370006f          	j	1ed4 <gpio_bit_output>
    16a2:	01849793          	slli	a5,s1,0x18
    16a6:	87e1                	srai	a5,a5,0x18
    16a8:	4585                	li	a1,1
    16aa:	0007c363          	bltz	a5,16b0 <TOF400C_Write_Char+0x5a>
    16ae:	4581                	li	a1,0
    16b0:	06c00513          	li	a0,108
    16b4:	021000ef          	jal	ra,1ed4 <gpio_bit_output>
    16b8:	4501                	li	a0,0
    16ba:	2665                	jal	1a62 <Delay_Ms>
    16bc:	4585                	li	a1,1
    16be:	06b00513          	li	a0,107
    16c2:	013000ef          	jal	ra,1ed4 <gpio_bit_output>
    16c6:	4501                	li	a0,0
    16c8:	2e69                	jal	1a62 <Delay_Ms>
    16ca:	0486                	slli	s1,s1,0x1
    16cc:	4581                	li	a1,0
    16ce:	06b00513          	li	a0,107
    16d2:	0ff4f493          	andi	s1,s1,255
    16d6:	7fe000ef          	jal	ra,1ed4 <gpio_bit_output>
    16da:	b761                	j	1662 <TOF400C_Write_Char+0xc>
    16dc:	06b00513          	li	a0,107
    16e0:	4581                	li	a1,0
    16e2:	7f2000ef          	jal	ra,1ed4 <gpio_bit_output>
    16e6:	4422                	lw	s0,8(sp)
    16e8:	40b2                	lw	ra,12(sp)
    16ea:	4492                	lw	s1,4(sp)
    16ec:	4501                	li	a0,0
    16ee:	0141                	addi	sp,sp,16
    16f0:	ae8d                	j	1a62 <Delay_Ms>

000016f2 <TOF400C_Write_Datas>:
    16f2:	1141                	addi	sp,sp,-16
    16f4:	c606                	sw	ra,12(sp)
    16f6:	c422                	sw	s0,8(sp)
    16f8:	c226                	sw	s1,4(sp)
    16fa:	842e                	mv	s0,a1
    16fc:	84b2                	mv	s1,a2
    16fe:	c04a                	sw	s2,0(sp)
    1700:	892a                	mv	s2,a0
    1702:	35c5                	jal	15e2 <TOF400C_Start>
    1704:	05200513          	li	a0,82
    1708:	37b9                	jal	1656 <TOF400C_Write_Char>
    170a:	4501                	li	a0,0
    170c:	37a9                	jal	1656 <TOF400C_Write_Char>
    170e:	0ff97513          	andi	a0,s2,255
    1712:	3791                	jal	1656 <TOF400C_Write_Char>
    1714:	94a2                	add	s1,s1,s0
    1716:	00849863          	bne	s1,s0,1726 <TOF400C_Write_Datas+0x34>
    171a:	4422                	lw	s0,8(sp)
    171c:	40b2                	lw	ra,12(sp)
    171e:	4492                	lw	s1,4(sp)
    1720:	4902                	lw	s2,0(sp)
    1722:	0141                	addi	sp,sp,16
    1724:	bddd                	j	161a <TOF400C_Stop>
    1726:	0405                	addi	s0,s0,1
    1728:	fff44503          	lbu	a0,-1(s0)
    172c:	372d                	jal	1656 <TOF400C_Write_Char>
    172e:	b7e5                	j	1716 <TOF400C_Write_Datas+0x24>

00001730 <TOF400C_Read_Char>:
    1730:	1141                	addi	sp,sp,-16
    1732:	4581                	li	a1,0
    1734:	c04a                	sw	s2,0(sp)
    1736:	892a                	mv	s2,a0
    1738:	06b00513          	li	a0,107
    173c:	c606                	sw	ra,12(sp)
    173e:	c422                	sw	s0,8(sp)
    1740:	c226                	sw	s1,4(sp)
    1742:	792000ef          	jal	ra,1ed4 <gpio_bit_output>
    1746:	4501                	li	a0,0
    1748:	2e29                	jal	1a62 <Delay_Ms>
    174a:	4585                	li	a1,1
    174c:	06c00513          	li	a0,108
    1750:	784000ef          	jal	ra,1ed4 <gpio_bit_output>
    1754:	44a1                	li	s1,8
    1756:	4401                	li	s0,0
    1758:	4501                	li	a0,0
    175a:	2621                	jal	1a62 <Delay_Ms>
    175c:	4581                	li	a1,0
    175e:	06b00513          	li	a0,107
    1762:	772000ef          	jal	ra,1ed4 <gpio_bit_output>
    1766:	4501                	li	a0,0
    1768:	2ced                	jal	1a62 <Delay_Ms>
    176a:	4585                	li	a1,1
    176c:	06b00513          	li	a0,107
    1770:	764000ef          	jal	ra,1ed4 <gpio_bit_output>
    1774:	4501                	li	a0,0
    1776:	24f5                	jal	1a62 <Delay_Ms>
    1778:	0406                	slli	s0,s0,0x1
    177a:	06c00513          	li	a0,108
    177e:	0ff47413          	andi	s0,s0,255
    1782:	778000ef          	jal	ra,1efa <gpio_get_input>
    1786:	c501                	beqz	a0,178e <TOF400C_Read_Char+0x5e>
    1788:	0405                	addi	s0,s0,1
    178a:	0ff47413          	andi	s0,s0,255
    178e:	14fd                	addi	s1,s1,-1
    1790:	0ff4f493          	andi	s1,s1,255
    1794:	f0f1                	bnez	s1,1758 <TOF400C_Read_Char+0x28>
    1796:	4581                	li	a1,0
    1798:	06b00513          	li	a0,107
    179c:	738000ef          	jal	ra,1ed4 <gpio_bit_output>
    17a0:	4501                	li	a0,0
    17a2:	24c1                	jal	1a62 <Delay_Ms>
    17a4:	4581                	li	a1,0
    17a6:	06b00513          	li	a0,107
    17aa:	72a000ef          	jal	ra,1ed4 <gpio_bit_output>
    17ae:	4501                	li	a0,0
    17b0:	2c4d                	jal	1a62 <Delay_Ms>
    17b2:	4581                	li	a1,0
    17b4:	00091363          	bnez	s2,17ba <TOF400C_Read_Char+0x8a>
    17b8:	4585                	li	a1,1
    17ba:	06c00513          	li	a0,108
    17be:	716000ef          	jal	ra,1ed4 <gpio_bit_output>
    17c2:	4585                	li	a1,1
    17c4:	06b00513          	li	a0,107
    17c8:	70c000ef          	jal	ra,1ed4 <gpio_bit_output>
    17cc:	4501                	li	a0,0
    17ce:	2c51                	jal	1a62 <Delay_Ms>
    17d0:	4581                	li	a1,0
    17d2:	06b00513          	li	a0,107
    17d6:	6fe000ef          	jal	ra,1ed4 <gpio_bit_output>
    17da:	4501                	li	a0,0
    17dc:	2459                	jal	1a62 <Delay_Ms>
    17de:	8522                	mv	a0,s0
    17e0:	40b2                	lw	ra,12(sp)
    17e2:	4422                	lw	s0,8(sp)
    17e4:	4492                	lw	s1,4(sp)
    17e6:	4902                	lw	s2,0(sp)
    17e8:	0141                	addi	sp,sp,16
    17ea:	8082                	ret

000017ec <TOF400C_Read_Datas>:
    17ec:	1101                	addi	sp,sp,-32
    17ee:	ce06                	sw	ra,28(sp)
    17f0:	cc22                	sw	s0,24(sp)
    17f2:	ca26                	sw	s1,20(sp)
    17f4:	842a                	mv	s0,a0
    17f6:	c84a                	sw	s2,16(sp)
    17f8:	c452                	sw	s4,8(sp)
    17fa:	8932                	mv	s2,a2
    17fc:	8a2e                	mv	s4,a1
    17fe:	c64e                	sw	s3,12(sp)
    1800:	de3ff0ef          	jal	ra,15e2 <TOF400C_Start>
    1804:	05200513          	li	a0,82
    1808:	35b9                	jal	1656 <TOF400C_Write_Char>
    180a:	4501                	li	a0,0
    180c:	35a9                	jal	1656 <TOF400C_Write_Char>
    180e:	0ff47513          	andi	a0,s0,255
    1812:	3591                	jal	1656 <TOF400C_Write_Char>
    1814:	dcfff0ef          	jal	ra,15e2 <TOF400C_Start>
    1818:	05300513          	li	a0,83
    181c:	fff90493          	addi	s1,s2,-1
    1820:	3d1d                	jal	1656 <TOF400C_Write_Char>
    1822:	4401                	li	s0,0
    1824:	009034b3          	snez	s1,s1
    1828:	01246b63          	bltu	s0,s2,183e <TOF400C_Read_Datas+0x52>
    182c:	4462                	lw	s0,24(sp)
    182e:	40f2                	lw	ra,28(sp)
    1830:	44d2                	lw	s1,20(sp)
    1832:	4942                	lw	s2,16(sp)
    1834:	49b2                	lw	s3,12(sp)
    1836:	4a22                	lw	s4,8(sp)
    1838:	6105                	addi	sp,sp,32
    183a:	de1ff06f          	j	161a <TOF400C_Stop>
    183e:	008a09b3          	add	s3,s4,s0
    1842:	4505                	li	a0,1
    1844:	00849363          	bne	s1,s0,184a <TOF400C_Read_Datas+0x5e>
    1848:	4501                	li	a0,0
    184a:	35dd                	jal	1730 <TOF400C_Read_Char>
    184c:	0405                	addi	s0,s0,1
    184e:	00a98023          	sb	a0,0(s3)
    1852:	0ff47413          	andi	s0,s0,255
    1856:	bfc9                	j	1828 <TOF400C_Read_Datas+0x3c>

00001858 <Init_TOF400C>:
    1858:	7179                	addi	sp,sp,-48
    185a:	31400693          	li	a3,788
    185e:	4605                	li	a2,1
    1860:	4585                	li	a1,1
    1862:	06b00513          	li	a0,107
    1866:	d606                	sw	ra,44(sp)
    1868:	d226                	sw	s1,36(sp)
    186a:	ce4e                	sw	s3,28(sp)
    186c:	cc52                	sw	s4,24(sp)
    186e:	ca56                	sw	s5,20(sp)
    1870:	d422                	sw	s0,40(sp)
    1872:	d04a                	sw	s2,32(sp)
    1874:	2351                	jal	1df8 <gpio_init>
    1876:	31400693          	li	a3,788
    187a:	4605                	li	a2,1
    187c:	4585                	li	a1,1
    187e:	06c00513          	li	a0,108
    1882:	6999                	lui	s3,0x6
    1884:	7a61                	lui	s4,0xffff8
    1886:	2b8d                	jal	1df8 <gpio_init>
    1888:	44ad                	li	s1,11
    188a:	20000ab7          	lui	s5,0x20000
    188e:	50098993          	addi	s3,s3,1280 # 6500 <__adddf3+0x4be>
    1892:	700a0a13          	addi	s4,s4,1792 # ffff8700 <_eusrstack+0xdffe8700>
    1896:	08700613          	li	a2,135
    189a:	04ca8593          	addi	a1,s5,76 # 2000004c <VL51L1X_CONFIGURATION>
    189e:	4505                	li	a0,1
    18a0:	3d89                	jal	16f2 <TOF400C_Write_Datas>
    18a2:	4609                	li	a2,2
    18a4:	006c                	addi	a1,sp,12
    18a6:	05e00513          	li	a0,94
    18aa:	01311623          	sh	s3,12(sp)
    18ae:	3591                	jal	16f2 <TOF400C_Write_Datas>
    18b0:	4609                	li	a2,2
    18b2:	006c                	addi	a1,sp,12
    18b4:	06100513          	li	a0,97
    18b8:	01411623          	sh	s4,12(sp)
    18bc:	3d1d                	jal	16f2 <TOF400C_Write_Datas>
    18be:	4605                	li	a2,1
    18c0:	006c                	addi	a1,sp,12
    18c2:	03000513          	li	a0,48
    18c6:	371d                	jal	17ec <TOF400C_Read_Datas>
    18c8:	4605                	li	a2,1
    18ca:	006c                	addi	a1,sp,12
    18cc:	03100513          	li	a0,49
    18d0:	00c14403          	lbu	s0,12(sp)
    18d4:	3f21                	jal	17ec <TOF400C_Read_Datas>
    18d6:	4505                	li	a0,1
    18d8:	2269                	jal	1a62 <Delay_Ms>
    18da:	00c14903          	lbu	s2,12(sp)
    18de:	8011                	srli	s0,s0,0x4
    18e0:	14fd                	addi	s1,s1,-1
    18e2:	fff44413          	not	s0,s0
    18e6:	0ff4f493          	andi	s1,s1,255
    18ea:	8805                	andi	s0,s0,1
    18ec:	00197913          	andi	s2,s2,1
    18f0:	e881                	bnez	s1,1900 <Init_TOF400C+0xa8>
    18f2:	0000a537          	lui	a0,0xa
    18f6:	d4850513          	addi	a0,a0,-696 # 9d48 <__func__.6409+0x94>
    18fa:	171070ef          	jal	ra,926a <puts>
    18fe:	a001                	j	18fe <Init_TOF400C+0xa6>
    1900:	06400513          	li	a0,100
    1904:	2ab9                	jal	1a62 <Delay_Ms>
    1906:	f92418e3          	bne	s0,s2,1896 <Init_TOF400C+0x3e>
    190a:	02100793          	li	a5,33
    190e:	006c                	addi	a1,sp,12
    1910:	4605                	li	a2,1
    1912:	08600513          	li	a0,134
    1916:	00f10623          	sb	a5,12(sp)
    191a:	dd9ff0ef          	jal	ra,16f2 <TOF400C_Write_Datas>
    191e:	0000a537          	lui	a0,0xa
    1922:	d6050513          	addi	a0,a0,-672 # 9d60 <__func__.6409+0xac>
    1926:	145070ef          	jal	ra,926a <puts>
    192a:	50b2                	lw	ra,44(sp)
    192c:	5422                	lw	s0,40(sp)
    192e:	5492                	lw	s1,36(sp)
    1930:	5902                	lw	s2,32(sp)
    1932:	49f2                	lw	s3,28(sp)
    1934:	4a62                	lw	s4,24(sp)
    1936:	4ad2                	lw	s5,20(sp)
    1938:	6145                	addi	sp,sp,48
    193a:	8082                	ret

0000193c <Get_Distance_TOF400C>:
    193c:	1101                	addi	sp,sp,-32
    193e:	4785                	li	a5,1
    1940:	4605                	li	a2,1
    1942:	006c                	addi	a1,sp,12
    1944:	08600513          	li	a0,134
    1948:	00f10623          	sb	a5,12(sp)
    194c:	ce06                	sw	ra,28(sp)
    194e:	da5ff0ef          	jal	ra,16f2 <TOF400C_Write_Datas>
    1952:	08900513          	li	a0,137
    1956:	4605                	li	a2,1
    1958:	00b10593          	addi	a1,sp,11
    195c:	3d41                	jal	17ec <TOF400C_Read_Datas>
    195e:	00b14703          	lbu	a4,11(sp)
    1962:	08900793          	li	a5,137
    1966:	57800513          	li	a0,1400
    196a:	02f71863          	bne	a4,a5,199a <Get_Distance_TOF400C+0x5e>
    196e:	09600513          	li	a0,150
    1972:	4609                	li	a2,2
    1974:	006c                	addi	a1,sp,12
    1976:	00011623          	sh	zero,12(sp)
    197a:	e73ff0ef          	jal	ra,17ec <TOF400C_Read_Datas>
    197e:	00c14503          	lbu	a0,12(sp)
    1982:	00d14783          	lbu	a5,13(sp)
    1986:	0522                	slli	a0,a0,0x8
    1988:	953e                	add	a0,a0,a5
    198a:	fd850513          	addi	a0,a0,-40
    198e:	57800793          	li	a5,1400
    1992:	00a7f463          	bgeu	a5,a0,199a <Get_Distance_TOF400C+0x5e>
    1996:	57800513          	li	a0,1400
    199a:	40f2                	lw	ra,28(sp)
    199c:	6105                	addi	sp,sp,32
    199e:	8082                	ret

000019a0 <board_init>:
    19a0:	400217b7          	lui	a5,0x40021
    19a4:	43dc                	lw	a5,4(a5)
    19a6:	007a1737          	lui	a4,0x7a1
    19aa:	20070713          	addi	a4,a4,512 # 7a1200 <_data_lma+0x796a04>
    19ae:	83c9                	srli	a5,a5,0x12
    19b0:	8bbd                	andi	a5,a5,15
    19b2:	02e787b3          	mul	a5,a5,a4
    19b6:	00f42737          	lui	a4,0xf42
    19ba:	40070713          	addi	a4,a4,1024 # f42400 <_data_lma+0xf37c04>
    19be:	65f1                	lui	a1,0x1c
    19c0:	02100693          	li	a3,33
    19c4:	02000613          	li	a2,32
    19c8:	20058593          	addi	a1,a1,512 # 1c200 <_data_lma+0x11a04>
    19cc:	4509                	li	a0,2
    19ce:	97ba                	add	a5,a5,a4
    19d0:	84f1ae23          	sw	a5,-1956(gp) # 200001e4 <sys_clk>
    19d4:	2c40106f          	j	2c98 <uart_init>

000019d8 <_write>:
    19d8:	1101                	addi	sp,sp,-32
    19da:	ca26                	sw	s1,20(sp)
    19dc:	400054b7          	lui	s1,0x40005
    19e0:	cc22                	sw	s0,24(sp)
    19e2:	c84a                	sw	s2,16(sp)
    19e4:	c64e                	sw	s3,12(sp)
    19e6:	ce06                	sw	ra,28(sp)
    19e8:	89ae                	mv	s3,a1
    19ea:	8932                	mv	s2,a2
    19ec:	4401                	li	s0,0
    19ee:	80048493          	addi	s1,s1,-2048 # 40004800 <_eusrstack+0x1fff4800>
    19f2:	01244a63          	blt	s0,s2,1a06 <_write+0x2e>
    19f6:	40f2                	lw	ra,28(sp)
    19f8:	4462                	lw	s0,24(sp)
    19fa:	854a                	mv	a0,s2
    19fc:	44d2                	lw	s1,20(sp)
    19fe:	4942                	lw	s2,16(sp)
    1a00:	49b2                	lw	s3,12(sp)
    1a02:	6105                	addi	sp,sp,32
    1a04:	8082                	ret
    1a06:	04000593          	li	a1,64
    1a0a:	8526                	mv	a0,s1
    1a0c:	519030ef          	jal	ra,5724 <USART_GetFlagStatus>
    1a10:	d97d                	beqz	a0,1a06 <_write+0x2e>
    1a12:	008987b3          	add	a5,s3,s0
    1a16:	00078583          	lb	a1,0(a5) # 40021000 <_eusrstack+0x20011000>
    1a1a:	8526                	mv	a0,s1
    1a1c:	0405                	addi	s0,s0,1
    1a1e:	05c2                	slli	a1,a1,0x10
    1a20:	81c1                	srli	a1,a1,0x10
    1a22:	4f9030ef          	jal	ra,571a <USART_SendData>
    1a26:	b7f1                	j	19f2 <_write+0x1a>

00001a28 <Delay_Init>:
    1a28:	8082                	ret

00001a2a <Delay_Us>:
    1a2a:	8381a783          	lw	a5,-1992(gp) # 200001c0 <SystemCoreClock>
    1a2e:	007a1737          	lui	a4,0x7a1
    1a32:	20070713          	addi	a4,a4,512 # 7a1200 <_data_lma+0x796a04>
    1a36:	02e7d7b3          	divu	a5,a5,a4
    1a3a:	4681                	li	a3,0
    1a3c:	4701                	li	a4,0
    1a3e:	02a78533          	mul	a0,a5,a0
    1a42:	e000f7b7          	lui	a5,0xe000f
    1a46:	0007a023          	sw	zero,0(a5) # e000f000 <_eusrstack+0xbffff000>
    1a4a:	c794                	sw	a3,8(a5)
    1a4c:	c7d8                	sw	a4,12(a5)
    1a4e:	4705                	li	a4,1
    1a50:	c398                	sw	a4,0(a5)
    1a52:	e000f6b7          	lui	a3,0xe000f
    1a56:	4698                	lw	a4,8(a3)
    1a58:	46dc                	lw	a5,12(a3)
    1a5a:	e399                	bnez	a5,1a60 <Delay_Us+0x36>
    1a5c:	fee57de3          	bgeu	a0,a4,1a56 <Delay_Us+0x2c>
    1a60:	8082                	ret

00001a62 <Delay_Ms>:
    1a62:	8381a783          	lw	a5,-1992(gp) # 200001c0 <SystemCoreClock>
    1a66:	6709                	lui	a4,0x2
    1a68:	f4070713          	addi	a4,a4,-192 # 1f40 <interrupt_disable+0xa>
    1a6c:	02e7d7b3          	divu	a5,a5,a4
    1a70:	4681                	li	a3,0
    1a72:	4701                	li	a4,0
    1a74:	02a78533          	mul	a0,a5,a0
    1a78:	e000f7b7          	lui	a5,0xe000f
    1a7c:	0007a023          	sw	zero,0(a5) # e000f000 <_eusrstack+0xbffff000>
    1a80:	c794                	sw	a3,8(a5)
    1a82:	c7d8                	sw	a4,12(a5)
    1a84:	4705                	li	a4,1
    1a86:	c398                	sw	a4,0(a5)
    1a88:	e000f6b7          	lui	a3,0xe000f
    1a8c:	4698                	lw	a4,8(a3)
    1a8e:	46dc                	lw	a5,12(a3)
    1a90:	e399                	bnez	a5,1a96 <Delay_Ms+0x34>
    1a92:	fee57de3          	bgeu	a0,a4,1a8c <Delay_Ms+0x2a>
    1a96:	8082                	ret

00001a98 <adc_gpio_init>:
    1a98:	e509                	bnez	a0,1aa2 <adc_gpio_init+0xa>
    1a9a:	4681                	li	a3,0
    1a9c:	4601                	li	a2,0
    1a9e:	4581                	li	a1,0
    1aa0:	aea1                	j	1df8 <gpio_init>
    1aa2:	4705                	li	a4,1
    1aa4:	fee50be3          	beq	a0,a4,1a9a <adc_gpio_init+0x2>
    1aa8:	4709                	li	a4,2
    1aaa:	fee508e3          	beq	a0,a4,1a9a <adc_gpio_init+0x2>
    1aae:	470d                	li	a4,3
    1ab0:	fee505e3          	beq	a0,a4,1a9a <adc_gpio_init+0x2>
    1ab4:	4711                	li	a4,4
    1ab6:	fee502e3          	beq	a0,a4,1a9a <adc_gpio_init+0x2>
    1aba:	4715                	li	a4,5
    1abc:	fce50fe3          	beq	a0,a4,1a9a <adc_gpio_init+0x2>
    1ac0:	4719                	li	a4,6
    1ac2:	fce50ce3          	beq	a0,a4,1a9a <adc_gpio_init+0x2>
    1ac6:	471d                	li	a4,7
    1ac8:	fce509e3          	beq	a0,a4,1a9a <adc_gpio_init+0x2>
    1acc:	4721                	li	a4,8
    1ace:	00e51863          	bne	a0,a4,1ade <adc_gpio_init+0x46>
    1ad2:	4681                	li	a3,0
    1ad4:	4601                	li	a2,0
    1ad6:	4581                	li	a1,0
    1ad8:	02000513          	li	a0,32
    1adc:	b7d1                	j	1aa0 <adc_gpio_init+0x8>
    1ade:	4725                	li	a4,9
    1ae0:	00e51863          	bne	a0,a4,1af0 <adc_gpio_init+0x58>
    1ae4:	4681                	li	a3,0
    1ae6:	4601                	li	a2,0
    1ae8:	4581                	li	a1,0
    1aea:	02100513          	li	a0,33
    1aee:	bf4d                	j	1aa0 <adc_gpio_init+0x8>
    1af0:	4729                	li	a4,10
    1af2:	00e51863          	bne	a0,a4,1b02 <adc_gpio_init+0x6a>
    1af6:	4681                	li	a3,0
    1af8:	4601                	li	a2,0
    1afa:	4581                	li	a1,0
    1afc:	04000513          	li	a0,64
    1b00:	b745                	j	1aa0 <adc_gpio_init+0x8>
    1b02:	472d                	li	a4,11
    1b04:	00e51863          	bne	a0,a4,1b14 <adc_gpio_init+0x7c>
    1b08:	4681                	li	a3,0
    1b0a:	4601                	li	a2,0
    1b0c:	4581                	li	a1,0
    1b0e:	04100513          	li	a0,65
    1b12:	b779                	j	1aa0 <adc_gpio_init+0x8>
    1b14:	4731                	li	a4,12
    1b16:	00e51863          	bne	a0,a4,1b26 <adc_gpio_init+0x8e>
    1b1a:	4681                	li	a3,0
    1b1c:	4601                	li	a2,0
    1b1e:	4581                	li	a1,0
    1b20:	04200513          	li	a0,66
    1b24:	bfb5                	j	1aa0 <adc_gpio_init+0x8>
    1b26:	4735                	li	a4,13
    1b28:	00e51863          	bne	a0,a4,1b38 <adc_gpio_init+0xa0>
    1b2c:	4681                	li	a3,0
    1b2e:	4601                	li	a2,0
    1b30:	4581                	li	a1,0
    1b32:	04300513          	li	a0,67
    1b36:	b7ad                	j	1aa0 <adc_gpio_init+0x8>
    1b38:	4739                	li	a4,14
    1b3a:	00e51863          	bne	a0,a4,1b4a <adc_gpio_init+0xb2>
    1b3e:	4681                	li	a3,0
    1b40:	4601                	li	a2,0
    1b42:	4581                	li	a1,0
    1b44:	04400513          	li	a0,68
    1b48:	bfa1                	j	1aa0 <adc_gpio_init+0x8>
    1b4a:	473d                	li	a4,15
    1b4c:	00e51863          	bne	a0,a4,1b5c <adc_gpio_init+0xc4>
    1b50:	4681                	li	a3,0
    1b52:	4601                	li	a2,0
    1b54:	4581                	li	a1,0
    1b56:	04500513          	li	a0,69
    1b5a:	b799                	j	1aa0 <adc_gpio_init+0x8>
    1b5c:	8082                	ret

00001b5e <adc_init>:
    1b5e:	7179                	addi	sp,sp,-48
    1b60:	d422                	sw	s0,40(sp)
    1b62:	4585                	li	a1,1
    1b64:	842a                	mv	s0,a0
    1b66:	20000513          	li	a0,512
    1b6a:	d606                	sw	ra,44(sp)
    1b6c:	d226                	sw	s1,36(sp)
    1b6e:	504030ef          	jal	ra,5072 <RCC_APB2PeriphClockCmd>
    1b72:	8522                	mv	a0,s0
    1b74:	3715                	jal	1a98 <adc_gpio_init>
    1b76:	85c1a703          	lw	a4,-1956(gp) # 200001e4 <sys_clk>
    1b7a:	0501c7b7          	lui	a5,0x501c
    1b7e:	d0078793          	addi	a5,a5,-768 # 501bd00 <_data_lma+0x5011504>
    1b82:	6531                	lui	a0,0xc
    1b84:	00e7e363          	bltu	a5,a4,1b8a <adc_init+0x2c>
    1b88:	6521                	lui	a0,0x8
    1b8a:	40012437          	lui	s0,0x40012
    1b8e:	3a6030ef          	jal	ra,4f34 <RCC_ADCCLKConfig>
    1b92:	40040513          	addi	a0,s0,1024 # 40012400 <_eusrstack+0x20002400>
    1b96:	004030ef          	jal	ra,4b9a <ADC_DeInit>
    1b9a:	000e07b7          	lui	a5,0xe0
    1b9e:	c63e                	sw	a5,12(sp)
    1ba0:	858a                	mv	a1,sp
    1ba2:	4785                	li	a5,1
    1ba4:	40040513          	addi	a0,s0,1024
    1ba8:	00f10a23          	sb	a5,20(sp)
    1bac:	c002                	sw	zero,0(sp)
    1bae:	c202                	sw	zero,4(sp)
    1bb0:	c402                	sw	zero,8(sp)
    1bb2:	c802                	sw	zero,16(sp)
    1bb4:	02c030ef          	jal	ra,4be0 <ADC_Init>
    1bb8:	4585                	li	a1,1
    1bba:	40040513          	addi	a0,s0,1024
    1bbe:	07a030ef          	jal	ra,4c38 <ADC_Cmd>
    1bc2:	40040513          	addi	a0,s0,1024
    1bc6:	082030ef          	jal	ra,4c48 <ADC_ResetCalibration>
    1bca:	40040493          	addi	s1,s0,1024
    1bce:	8526                	mv	a0,s1
    1bd0:	082030ef          	jal	ra,4c52 <ADC_GetResetCalibrationStatus>
    1bd4:	fd6d                	bnez	a0,1bce <adc_init+0x70>
    1bd6:	40040513          	addi	a0,s0,1024
    1bda:	40012437          	lui	s0,0x40012
    1bde:	07c030ef          	jal	ra,4c5a <ADC_StartCalibration>
    1be2:	40040413          	addi	s0,s0,1024 # 40012400 <_eusrstack+0x20002400>
    1be6:	8522                	mv	a0,s0
    1be8:	07c030ef          	jal	ra,4c64 <ADC_GetCalibrationStatus>
    1bec:	fd6d                	bnez	a0,1be6 <adc_init+0x88>
    1bee:	50b2                	lw	ra,44(sp)
    1bf0:	5422                	lw	s0,40(sp)
    1bf2:	5492                	lw	s1,36(sp)
    1bf4:	6145                	addi	sp,sp,48
    1bf6:	8082                	ret

00001bf8 <dvp_gpio_init>:
    1bf8:	7179                	addi	sp,sp,-48
    1bfa:	ce4e                	sw	s3,28(sp)
    1bfc:	cc52                	sw	s4,24(sp)
    1bfe:	ca56                	sw	s5,20(sp)
    1c00:	8a32                	mv	s4,a2
    1c02:	8aae                	mv	s5,a1
    1c04:	89b6                	mv	s3,a3
    1c06:	4601                	li	a2,0
    1c08:	04800693          	li	a3,72
    1c0c:	4581                	li	a1,0
    1c0e:	d606                	sw	ra,44(sp)
    1c10:	d422                	sw	s0,40(sp)
    1c12:	d226                	sw	s1,36(sp)
    1c14:	d04a                	sw	s2,32(sp)
    1c16:	c046                	sw	a7,0(sp)
    1c18:	c242                	sw	a6,4(sp)
    1c1a:	c43e                	sw	a5,8(sp)
    1c1c:	c63a                	sw	a4,12(sp)
    1c1e:	03014483          	lbu	s1,48(sp)
    1c22:	03414903          	lbu	s2,52(sp)
    1c26:	03814403          	lbu	s0,56(sp)
    1c2a:	22f9                	jal	1df8 <gpio_init>
    1c2c:	8556                	mv	a0,s5
    1c2e:	04800693          	li	a3,72
    1c32:	4601                	li	a2,0
    1c34:	4581                	li	a1,0
    1c36:	22c9                	jal	1df8 <gpio_init>
    1c38:	8552                	mv	a0,s4
    1c3a:	04800693          	li	a3,72
    1c3e:	4601                	li	a2,0
    1c40:	4581                	li	a1,0
    1c42:	2a5d                	jal	1df8 <gpio_init>
    1c44:	854e                	mv	a0,s3
    1c46:	04800693          	li	a3,72
    1c4a:	4601                	li	a2,0
    1c4c:	4581                	li	a1,0
    1c4e:	226d                	jal	1df8 <gpio_init>
    1c50:	4732                	lw	a4,12(sp)
    1c52:	04800693          	li	a3,72
    1c56:	4601                	li	a2,0
    1c58:	853a                	mv	a0,a4
    1c5a:	4581                	li	a1,0
    1c5c:	2a71                	jal	1df8 <gpio_init>
    1c5e:	47a2                	lw	a5,8(sp)
    1c60:	04800693          	li	a3,72
    1c64:	4601                	li	a2,0
    1c66:	853e                	mv	a0,a5
    1c68:	4581                	li	a1,0
    1c6a:	2279                	jal	1df8 <gpio_init>
    1c6c:	4812                	lw	a6,4(sp)
    1c6e:	04800693          	li	a3,72
    1c72:	4601                	li	a2,0
    1c74:	8542                	mv	a0,a6
    1c76:	4581                	li	a1,0
    1c78:	2241                	jal	1df8 <gpio_init>
    1c7a:	4882                	lw	a7,0(sp)
    1c7c:	04800693          	li	a3,72
    1c80:	4601                	li	a2,0
    1c82:	8546                	mv	a0,a7
    1c84:	4581                	li	a1,0
    1c86:	2a8d                	jal	1df8 <gpio_init>
    1c88:	854a                	mv	a0,s2
    1c8a:	04800693          	li	a3,72
    1c8e:	4601                	li	a2,0
    1c90:	4581                	li	a1,0
    1c92:	229d                	jal	1df8 <gpio_init>
    1c94:	8526                	mv	a0,s1
    1c96:	04800693          	li	a3,72
    1c9a:	4601                	li	a2,0
    1c9c:	4581                	li	a1,0
    1c9e:	2aa9                	jal	1df8 <gpio_init>
    1ca0:	8522                	mv	a0,s0
    1ca2:	5422                	lw	s0,40(sp)
    1ca4:	50b2                	lw	ra,44(sp)
    1ca6:	5492                	lw	s1,36(sp)
    1ca8:	5902                	lw	s2,32(sp)
    1caa:	49f2                	lw	s3,28(sp)
    1cac:	4a62                	lw	s4,24(sp)
    1cae:	4ad2                	lw	s5,20(sp)
    1cb0:	04800693          	li	a3,72
    1cb4:	4601                	li	a2,0
    1cb6:	4581                	li	a1,0
    1cb8:	6145                	addi	sp,sp,48
    1cba:	aa3d                	j	1df8 <gpio_init>

00001cbc <dvp_camera_init>:
    1cbc:	1101                	addi	sp,sp,-32
    1cbe:	cc22                	sw	s0,24(sp)
    1cc0:	ca26                	sw	s1,20(sp)
    1cc2:	842e                	mv	s0,a1
    1cc4:	84aa                	mv	s1,a0
    1cc6:	4585                	li	a1,1
    1cc8:	6509                	lui	a0,0x2
    1cca:	ce06                	sw	ra,28(sp)
    1ccc:	c632                	sw	a2,12(sp)
    1cce:	c436                	sw	a3,8(sp)
    1cd0:	384030ef          	jal	ra,5054 <RCC_AHBPeriphClockCmd>
    1cd4:	500507b7          	lui	a5,0x50050
    1cd8:	0007c703          	lbu	a4,0(a5) # 50050000 <_eusrstack+0x30040000>
    1cdc:	05600513          	li	a0,86
    1ce0:	458d                	li	a1,3
    1ce2:	0cf77713          	andi	a4,a4,207
    1ce6:	00e78023          	sb	a4,0(a5)
    1cea:	0007c703          	lbu	a4,0(a5)
    1cee:	04276713          	ori	a4,a4,66
    1cf2:	00e78023          	sb	a4,0(a5)
    1cf6:	0017c703          	lbu	a4,1(a5)
    1cfa:	0f977713          	andi	a4,a4,249
    1cfe:	00e780a3          	sb	a4,1(a5)
    1d02:	46a2                	lw	a3,8(sp)
    1d04:	4632                	lw	a2,12(sp)
    1d06:	00d79223          	sh	a3,4(a5)
    1d0a:	00c79323          	sh	a2,6(a5)
    1d0e:	c784                	sw	s1,8(a5)
    1d10:	c7c0                	sw	s0,12(a5)
    1d12:	0017c703          	lbu	a4,1(a5)
    1d16:	03f77713          	andi	a4,a4,63
    1d1a:	00e780a3          	sb	a4,1(a5)
    1d1e:	0017c703          	lbu	a4,1(a5)
    1d22:	0ff77713          	andi	a4,a4,255
    1d26:	00e780a3          	sb	a4,1(a5)
    1d2a:	0017c703          	lbu	a4,1(a5)
    1d2e:	01076713          	ori	a4,a4,16
    1d32:	00e780a3          	sb	a4,1(a5)
    1d36:	0027c703          	lbu	a4,2(a5)
    1d3a:	00476713          	ori	a4,a4,4
    1d3e:	00e78123          	sb	a4,2(a5)
    1d42:	0017c703          	lbu	a4,1(a5)
    1d46:	00176713          	ori	a4,a4,1
    1d4a:	00e780a3          	sb	a4,1(a5)
    1d4e:	0007c703          	lbu	a4,0(a5)
    1d52:	00176713          	ori	a4,a4,1
    1d56:	00e78023          	sb	a4,0(a5)
    1d5a:	2add                	jal	1f50 <interrupt_set_priority>
    1d5c:	4462                	lw	s0,24(sp)
    1d5e:	40f2                	lw	ra,28(sp)
    1d60:	44d2                	lw	s1,20(sp)
    1d62:	05600513          	li	a0,86
    1d66:	6105                	addi	sp,sp,32
    1d68:	aa55                	j	1f1c <interrupt_enable>

00001d6a <exti_enable>:
    1d6a:	1101                	addi	sp,sp,-32
    1d6c:	cc22                	sw	s0,24(sp)
    1d6e:	4505                	li	a0,1
    1d70:	842e                	mv	s0,a1
    1d72:	4585                	li	a1,1
    1d74:	ce06                	sw	ra,28(sp)
    1d76:	ca26                	sw	s1,20(sp)
    1d78:	c84a                	sw	s2,16(sp)
    1d7a:	c002                	sw	zero,0(sp)
    1d7c:	8932                	mv	s2,a2
    1d7e:	c202                	sw	zero,4(sp)
    1d80:	c402                	sw	zero,8(sp)
    1d82:	c602                	sw	zero,12(sp)
    1d84:	2ee030ef          	jal	ra,5072 <RCC_APB2PeriphClockCmd>
    1d88:	04800693          	li	a3,72
    1d8c:	4605                	li	a2,1
    1d8e:	4581                	li	a1,0
    1d90:	8522                	mv	a0,s0
    1d92:	209d                	jal	1df8 <gpio_init>
    1d94:	01f47493          	andi	s1,s0,31
    1d98:	00545513          	srli	a0,s0,0x5
    1d9c:	85a6                	mv	a1,s1
    1d9e:	0ff57513          	andi	a0,a0,255
    1da2:	0ae030ef          	jal	ra,4e50 <GPIO_EXTILineConfig>
    1da6:	4785                	li	a5,1
    1da8:	00979733          	sll	a4,a5,s1
    1dac:	850a                	mv	a0,sp
    1dae:	c03a                	sw	a4,0(sp)
    1db0:	c202                	sw	zero,4(sp)
    1db2:	c44a                	sw	s2,8(sp)
    1db4:	c63e                	sw	a5,12(sp)
    1db6:	6b7020ef          	jal	ra,4c6c <EXTI_Init>
    1dba:	4559                	li	a0,22
    1dbc:	c49d                	beqz	s1,1dea <exti_enable+0x80>
    1dbe:	01e47793          	andi	a5,s0,30
    1dc2:	455d                	li	a0,23
    1dc4:	c39d                	beqz	a5,1dea <exti_enable+0x80>
    1dc6:	4789                	li	a5,2
    1dc8:	4561                	li	a0,24
    1dca:	0297f063          	bgeu	a5,s1,1dea <exti_enable+0x80>
    1dce:	8871                	andi	s0,s0,28
    1dd0:	4565                	li	a0,25
    1dd2:	cc01                	beqz	s0,1dea <exti_enable+0x80>
    1dd4:	4791                	li	a5,4
    1dd6:	4569                	li	a0,26
    1dd8:	0097f963          	bgeu	a5,s1,1dea <exti_enable+0x80>
    1ddc:	47a5                	li	a5,9
    1dde:	02700513          	li	a0,39
    1de2:	0097f463          	bgeu	a5,s1,1dea <exti_enable+0x80>
    1de6:	03800513          	li	a0,56
    1dea:	2a0d                	jal	1f1c <interrupt_enable>
    1dec:	40f2                	lw	ra,28(sp)
    1dee:	4462                	lw	s0,24(sp)
    1df0:	44d2                	lw	s1,20(sp)
    1df2:	4942                	lw	s2,16(sp)
    1df4:	6105                	addi	sp,sp,32
    1df6:	8082                	ret

00001df8 <gpio_init>:
    1df8:	0ff00793          	li	a5,255
    1dfc:	0cf50b63          	beq	a0,a5,1ed2 <gpio_init+0xda>
    1e00:	7179                	addi	sp,sp,-48
    1e02:	d422                	sw	s0,40(sp)
    1e04:	00555413          	srli	s0,a0,0x5
    1e08:	d226                	sw	s1,36(sp)
    1e0a:	d04a                	sw	s2,32(sp)
    1e0c:	ce4e                	sw	s3,28(sp)
    1e0e:	cc52                	sw	s4,24(sp)
    1e10:	d606                	sw	ra,44(sp)
    1e12:	881d                	andi	s0,s0,7
    1e14:	00f57493          	andi	s1,a0,15
    1e18:	8936                	mv	s2,a3
    1e1a:	8a32                	mv	s4,a2
    1e1c:	89ae                	mv	s3,a1
    1e1e:	e035                	bnez	s0,1e82 <gpio_init+0x8a>
    1e20:	4585                	li	a1,1
    1e22:	4511                	li	a0,4
    1e24:	24e030ef          	jal	ra,5072 <RCC_APB2PeriphClockCmd>
    1e28:	4785                	li	a5,1
    1e2a:	009794b3          	sll	s1,a5,s1
    1e2e:	04c2                	slli	s1,s1,0x10
    1e30:	80c1                	srli	s1,s1,0x10
    1e32:	00911223          	sh	s1,4(sp)
    1e36:	00f99963          	bne	s3,a5,1e48 <gpio_init+0x50>
    1e3a:	01091793          	slli	a5,s2,0x10
    1e3e:	83c1                	srli	a5,a5,0x10
    1e40:	83a1                	srli	a5,a5,0x8
    1e42:	e391                	bnez	a5,1e46 <gpio_init+0x4e>
    1e44:	478d                	li	a5,3
    1e46:	c43e                	sw	a5,8(sp)
    1e48:	67a9                	lui	a5,0xa
    1e4a:	36878793          	addi	a5,a5,872 # a368 <GPION>
    1e4e:	040a                	slli	s0,s0,0x2
    1e50:	943e                	add	s0,s0,a5
    1e52:	4000                	lw	s0,0(s0)
    1e54:	0ff97913          	andi	s2,s2,255
    1e58:	004c                	addi	a1,sp,4
    1e5a:	8522                	mv	a0,s0
    1e5c:	c64a                	sw	s2,12(sp)
    1e5e:	6a1020ef          	jal	ra,4cfe <GPIO_Init>
    1e62:	4785                	li	a5,1
    1e64:	00f99763          	bne	s3,a5,1e72 <gpio_init+0x7a>
    1e68:	8652                	mv	a2,s4
    1e6a:	85a6                	mv	a1,s1
    1e6c:	8522                	mv	a0,s0
    1e6e:	753020ef          	jal	ra,4dc0 <GPIO_WriteBit>
    1e72:	50b2                	lw	ra,44(sp)
    1e74:	5422                	lw	s0,40(sp)
    1e76:	5492                	lw	s1,36(sp)
    1e78:	5902                	lw	s2,32(sp)
    1e7a:	49f2                	lw	s3,28(sp)
    1e7c:	4a62                	lw	s4,24(sp)
    1e7e:	6145                	addi	sp,sp,48
    1e80:	8082                	ret
    1e82:	4785                	li	a5,1
    1e84:	00f41563          	bne	s0,a5,1e8e <gpio_init+0x96>
    1e88:	4585                	li	a1,1
    1e8a:	4521                	li	a0,8
    1e8c:	bf61                	j	1e24 <gpio_init+0x2c>
    1e8e:	4789                	li	a5,2
    1e90:	00f41563          	bne	s0,a5,1e9a <gpio_init+0xa2>
    1e94:	4585                	li	a1,1
    1e96:	4541                	li	a0,16
    1e98:	b771                	j	1e24 <gpio_init+0x2c>
    1e9a:	478d                	li	a5,3
    1e9c:	00f41663          	bne	s0,a5,1ea8 <gpio_init+0xb0>
    1ea0:	4585                	li	a1,1
    1ea2:	02000513          	li	a0,32
    1ea6:	bfbd                	j	1e24 <gpio_init+0x2c>
    1ea8:	4791                	li	a5,4
    1eaa:	00f41663          	bne	s0,a5,1eb6 <gpio_init+0xbe>
    1eae:	4585                	li	a1,1
    1eb0:	04000513          	li	a0,64
    1eb4:	bf85                	j	1e24 <gpio_init+0x2c>
    1eb6:	4795                	li	a5,5
    1eb8:	00f41663          	bne	s0,a5,1ec4 <gpio_init+0xcc>
    1ebc:	4585                	li	a1,1
    1ebe:	08000513          	li	a0,128
    1ec2:	b78d                	j	1e24 <gpio_init+0x2c>
    1ec4:	4799                	li	a5,6
    1ec6:	f6f411e3          	bne	s0,a5,1e28 <gpio_init+0x30>
    1eca:	4585                	li	a1,1
    1ecc:	10000513          	li	a0,256
    1ed0:	bf91                	j	1e24 <gpio_init+0x2c>
    1ed2:	8082                	ret

00001ed4 <gpio_bit_output>:
    1ed4:	00555793          	srli	a5,a0,0x5
    1ed8:	00279713          	slli	a4,a5,0x2
    1edc:	67a9                	lui	a5,0xa
    1ede:	36878793          	addi	a5,a5,872 # a368 <GPION>
    1ee2:	97ba                	add	a5,a5,a4
    1ee4:	4398                	lw	a4,0(a5)
    1ee6:	00f57793          	andi	a5,a0,15
    1eea:	4505                	li	a0,1
    1eec:	00f51533          	sll	a0,a0,a5
    1ef0:	c199                	beqz	a1,1ef6 <gpio_bit_output+0x22>
    1ef2:	cb08                	sw	a0,16(a4)
    1ef4:	8082                	ret
    1ef6:	cb48                	sw	a0,20(a4)
    1ef8:	8082                	ret

00001efa <gpio_get_input>:
    1efa:	00355713          	srli	a4,a0,0x3
    1efe:	01c77693          	andi	a3,a4,28
    1f02:	6729                	lui	a4,0xa
    1f04:	36870713          	addi	a4,a4,872 # a368 <GPION>
    1f08:	9736                	add	a4,a4,a3
    1f0a:	431c                	lw	a5,0(a4)
    1f0c:	4798                	lw	a4,8(a5)
    1f0e:	4785                	li	a5,1
    1f10:	00a79533          	sll	a0,a5,a0
    1f14:	8d79                	and	a0,a0,a4
    1f16:	00a03533          	snez	a0,a0
    1f1a:	8082                	ret

00001f1c <interrupt_enable>:
    1f1c:	00555793          	srli	a5,a0,0x5
    1f20:	4705                	li	a4,1
    1f22:	04078793          	addi	a5,a5,64
    1f26:	00a71533          	sll	a0,a4,a0
    1f2a:	078a                	slli	a5,a5,0x2
    1f2c:	e000e737          	lui	a4,0xe000e
    1f30:	97ba                	add	a5,a5,a4
    1f32:	c388                	sw	a0,0(a5)
    1f34:	8082                	ret

00001f36 <interrupt_disable>:
    1f36:	00555793          	srli	a5,a0,0x5
    1f3a:	4705                	li	a4,1
    1f3c:	06078793          	addi	a5,a5,96
    1f40:	00a71533          	sll	a0,a4,a0
    1f44:	078a                	slli	a5,a5,0x2
    1f46:	e000e737          	lui	a4,0xe000e
    1f4a:	97ba                	add	a5,a5,a4
    1f4c:	c388                	sw	a0,0(a5)
    1f4e:	8082                	ret

00001f50 <interrupt_set_priority>:
    1f50:	e000e7b7          	lui	a5,0xe000e
    1f54:	953e                	add	a0,a0,a5
    1f56:	40b50023          	sb	a1,1024(a0) # 2400 <pwm_gpio_init+0x452>
    1f5a:	8082                	ret

00001f5c <interrupt_global_enable>:
    1f5c:	8082                	ret

00001f5e <interrupt_global_disable>:
    1f5e:	8082                	ret

00001f60 <nvic_init>:
    1f60:	1101                	addi	sp,sp,-32
    1f62:	00a10423          	sb	a0,8(sp)
    1f66:	0028                	addi	a0,sp,8
    1f68:	ce06                	sw	ra,28(sp)
    1f6a:	00b104a3          	sb	a1,9(sp)
    1f6e:	00c10523          	sb	a2,10(sp)
    1f72:	c636                	sw	a3,12(sp)
    1f74:	709020ef          	jal	ra,4e7c <NVIC_Init>
    1f78:	40f2                	lw	ra,28(sp)
    1f7a:	6105                	addi	sp,sp,32
    1f7c:	8082                	ret

00001f7e <pwm_duty>:
    1f7e:	00855793          	srli	a5,a0,0x8
    1f82:	6729                	lui	a4,0xa
    1f84:	38870713          	addi	a4,a4,904 # a388 <TIMERN>
    1f88:	078a                	slli	a5,a5,0x2
    1f8a:	97ba                	add	a5,a5,a4
    1f8c:	4398                	lw	a4,0(a5)
    1f8e:	890d                	andi	a0,a0,3
    1f90:	050a                	slli	a0,a0,0x2
    1f92:	02c75783          	lhu	a5,44(a4)
    1f96:	953a                	add	a0,a0,a4
    1f98:	02f585b3          	mul	a1,a1,a5
    1f9c:	6789                	lui	a5,0x2
    1f9e:	71078793          	addi	a5,a5,1808 # 2710 <spi_gpio_init+0x12e>
    1fa2:	02f5d5b3          	divu	a1,a1,a5
    1fa6:	05c2                	slli	a1,a1,0x10
    1fa8:	81c1                	srli	a1,a1,0x10
    1faa:	d94c                	sw	a1,52(a0)
    1fac:	8082                	ret

00001fae <pwm_gpio_init>:
    1fae:	e901                	bnez	a0,1fbe <pwm_gpio_init+0x10>
    1fb0:	31800693          	li	a3,792
    1fb4:	4601                	li	a2,0
    1fb6:	4585                	li	a1,1
    1fb8:	4521                	li	a0,8
    1fba:	e3fff06f          	j	1df8 <gpio_init>
    1fbe:	4785                	li	a5,1
    1fc0:	00f51863          	bne	a0,a5,1fd0 <pwm_gpio_init+0x22>
    1fc4:	31800693          	li	a3,792
    1fc8:	4601                	li	a2,0
    1fca:	4585                	li	a1,1
    1fcc:	4525                	li	a0,9
    1fce:	b7f5                	j	1fba <pwm_gpio_init+0xc>
    1fd0:	4789                	li	a5,2
    1fd2:	00f51863          	bne	a0,a5,1fe2 <pwm_gpio_init+0x34>
    1fd6:	31800693          	li	a3,792
    1fda:	4601                	li	a2,0
    1fdc:	4585                	li	a1,1
    1fde:	4529                	li	a0,10
    1fe0:	bfe9                	j	1fba <pwm_gpio_init+0xc>
    1fe2:	478d                	li	a5,3
    1fe4:	00f51863          	bne	a0,a5,1ff4 <pwm_gpio_init+0x46>
    1fe8:	31800693          	li	a3,792
    1fec:	4601                	li	a2,0
    1fee:	4585                	li	a1,1
    1ff0:	452d                	li	a0,11
    1ff2:	b7e1                	j	1fba <pwm_gpio_init+0xc>
    1ff4:	47c1                	li	a5,16
    1ff6:	00f51963          	bne	a0,a5,2008 <pwm_gpio_init+0x5a>
    1ffa:	31800693          	li	a3,792
    1ffe:	4601                	li	a2,0
    2000:	4585                	li	a1,1
    2002:	08900513          	li	a0,137
    2006:	bf55                	j	1fba <pwm_gpio_init+0xc>
    2008:	47c5                	li	a5,17
    200a:	00f51963          	bne	a0,a5,201c <pwm_gpio_init+0x6e>
    200e:	31800693          	li	a3,792
    2012:	4601                	li	a2,0
    2014:	4585                	li	a1,1
    2016:	08b00513          	li	a0,139
    201a:	b745                	j	1fba <pwm_gpio_init+0xc>
    201c:	47c9                	li	a5,18
    201e:	00f51963          	bne	a0,a5,2030 <pwm_gpio_init+0x82>
    2022:	31800693          	li	a3,792
    2026:	4601                	li	a2,0
    2028:	4585                	li	a1,1
    202a:	08d00513          	li	a0,141
    202e:	b771                	j	1fba <pwm_gpio_init+0xc>
    2030:	47cd                	li	a5,19
    2032:	00f51963          	bne	a0,a5,2044 <pwm_gpio_init+0x96>
    2036:	31800693          	li	a3,792
    203a:	4601                	li	a2,0
    203c:	4585                	li	a1,1
    203e:	08e00513          	li	a0,142
    2042:	bfa5                	j	1fba <pwm_gpio_init+0xc>
    2044:	10000793          	li	a5,256
    2048:	00f51863          	bne	a0,a5,2058 <pwm_gpio_init+0xaa>
    204c:	31800693          	li	a3,792
    2050:	4601                	li	a2,0
    2052:	4585                	li	a1,1
    2054:	4501                	li	a0,0
    2056:	b795                	j	1fba <pwm_gpio_init+0xc>
    2058:	10100793          	li	a5,257
    205c:	00f51863          	bne	a0,a5,206c <pwm_gpio_init+0xbe>
    2060:	31800693          	li	a3,792
    2064:	4601                	li	a2,0
    2066:	4585                	li	a1,1
    2068:	4505                	li	a0,1
    206a:	bf81                	j	1fba <pwm_gpio_init+0xc>
    206c:	10200793          	li	a5,258
    2070:	00f51863          	bne	a0,a5,2080 <pwm_gpio_init+0xd2>
    2074:	31800693          	li	a3,792
    2078:	4601                	li	a2,0
    207a:	4585                	li	a1,1
    207c:	4509                	li	a0,2
    207e:	bf35                	j	1fba <pwm_gpio_init+0xc>
    2080:	10300793          	li	a5,259
    2084:	00f51863          	bne	a0,a5,2094 <pwm_gpio_init+0xe6>
    2088:	31800693          	li	a3,792
    208c:	4601                	li	a2,0
    208e:	4585                	li	a1,1
    2090:	450d                	li	a0,3
    2092:	b725                	j	1fba <pwm_gpio_init+0xc>
    2094:	11000793          	li	a5,272
    2098:	00f51863          	bne	a0,a5,20a8 <pwm_gpio_init+0xfa>
    209c:	31800693          	li	a3,792
    20a0:	4601                	li	a2,0
    20a2:	4585                	li	a1,1
    20a4:	453d                	li	a0,15
    20a6:	bf11                	j	1fba <pwm_gpio_init+0xc>
    20a8:	11100793          	li	a5,273
    20ac:	00f51963          	bne	a0,a5,20be <pwm_gpio_init+0x110>
    20b0:	31800693          	li	a3,792
    20b4:	4601                	li	a2,0
    20b6:	4585                	li	a1,1
    20b8:	02300513          	li	a0,35
    20bc:	bdfd                	j	1fba <pwm_gpio_init+0xc>
    20be:	11200793          	li	a5,274
    20c2:	00f51963          	bne	a0,a5,20d4 <pwm_gpio_init+0x126>
    20c6:	31800693          	li	a3,792
    20ca:	4601                	li	a2,0
    20cc:	4585                	li	a1,1
    20ce:	02a00513          	li	a0,42
    20d2:	b5e5                	j	1fba <pwm_gpio_init+0xc>
    20d4:	11300793          	li	a5,275
    20d8:	00f51963          	bne	a0,a5,20ea <pwm_gpio_init+0x13c>
    20dc:	31800693          	li	a3,792
    20e0:	4601                	li	a2,0
    20e2:	4585                	li	a1,1
    20e4:	02b00513          	li	a0,43
    20e8:	bdc9                	j	1fba <pwm_gpio_init+0xc>
    20ea:	20000793          	li	a5,512
    20ee:	00f51863          	bne	a0,a5,20fe <pwm_gpio_init+0x150>
    20f2:	31800693          	li	a3,792
    20f6:	4601                	li	a2,0
    20f8:	4585                	li	a1,1
    20fa:	4519                	li	a0,6
    20fc:	bd7d                	j	1fba <pwm_gpio_init+0xc>
    20fe:	20100793          	li	a5,513
    2102:	00f51863          	bne	a0,a5,2112 <pwm_gpio_init+0x164>
    2106:	31800693          	li	a3,792
    210a:	4601                	li	a2,0
    210c:	4585                	li	a1,1
    210e:	451d                	li	a0,7
    2110:	b56d                	j	1fba <pwm_gpio_init+0xc>
    2112:	20200793          	li	a5,514
    2116:	00f51963          	bne	a0,a5,2128 <pwm_gpio_init+0x17a>
    211a:	31800693          	li	a3,792
    211e:	4601                	li	a2,0
    2120:	4585                	li	a1,1
    2122:	02000513          	li	a0,32
    2126:	bd51                	j	1fba <pwm_gpio_init+0xc>
    2128:	20300793          	li	a5,515
    212c:	00f51963          	bne	a0,a5,213e <pwm_gpio_init+0x190>
    2130:	31800693          	li	a3,792
    2134:	4601                	li	a2,0
    2136:	4585                	li	a1,1
    2138:	02100513          	li	a0,33
    213c:	bdbd                	j	1fba <pwm_gpio_init+0xc>
    213e:	21000793          	li	a5,528
    2142:	00f51963          	bne	a0,a5,2154 <pwm_gpio_init+0x1a6>
    2146:	31800693          	li	a3,792
    214a:	4601                	li	a2,0
    214c:	4585                	li	a1,1
    214e:	04600513          	li	a0,70
    2152:	b5a5                	j	1fba <pwm_gpio_init+0xc>
    2154:	21100793          	li	a5,529
    2158:	00f51963          	bne	a0,a5,216a <pwm_gpio_init+0x1bc>
    215c:	31800693          	li	a3,792
    2160:	4601                	li	a2,0
    2162:	4585                	li	a1,1
    2164:	04700513          	li	a0,71
    2168:	bd89                	j	1fba <pwm_gpio_init+0xc>
    216a:	21200793          	li	a5,530
    216e:	00f51963          	bne	a0,a5,2180 <pwm_gpio_init+0x1d2>
    2172:	31800693          	li	a3,792
    2176:	4601                	li	a2,0
    2178:	4585                	li	a1,1
    217a:	04800513          	li	a0,72
    217e:	bd35                	j	1fba <pwm_gpio_init+0xc>
    2180:	21300793          	li	a5,531
    2184:	00f51963          	bne	a0,a5,2196 <pwm_gpio_init+0x1e8>
    2188:	31800693          	li	a3,792
    218c:	4601                	li	a2,0
    218e:	4585                	li	a1,1
    2190:	04900513          	li	a0,73
    2194:	b51d                	j	1fba <pwm_gpio_init+0xc>
    2196:	22000793          	li	a5,544
    219a:	00f51963          	bne	a0,a5,21ac <pwm_gpio_init+0x1fe>
    219e:	31800693          	li	a3,792
    21a2:	4601                	li	a2,0
    21a4:	4585                	li	a1,1
    21a6:	02400513          	li	a0,36
    21aa:	bd01                	j	1fba <pwm_gpio_init+0xc>
    21ac:	22100793          	li	a5,545
    21b0:	00f51963          	bne	a0,a5,21c2 <pwm_gpio_init+0x214>
    21b4:	31800693          	li	a3,792
    21b8:	4601                	li	a2,0
    21ba:	4585                	li	a1,1
    21bc:	02500513          	li	a0,37
    21c0:	bbed                	j	1fba <pwm_gpio_init+0xc>
    21c2:	30000793          	li	a5,768
    21c6:	00f51963          	bne	a0,a5,21d8 <pwm_gpio_init+0x22a>
    21ca:	31800693          	li	a3,792
    21ce:	4601                	li	a2,0
    21d0:	4585                	li	a1,1
    21d2:	02600513          	li	a0,38
    21d6:	b3d5                	j	1fba <pwm_gpio_init+0xc>
    21d8:	30100793          	li	a5,769
    21dc:	00f51963          	bne	a0,a5,21ee <pwm_gpio_init+0x240>
    21e0:	31800693          	li	a3,792
    21e4:	4601                	li	a2,0
    21e6:	4585                	li	a1,1
    21e8:	02700513          	li	a0,39
    21ec:	b3f9                	j	1fba <pwm_gpio_init+0xc>
    21ee:	30200793          	li	a5,770
    21f2:	00f51963          	bne	a0,a5,2204 <pwm_gpio_init+0x256>
    21f6:	31800693          	li	a3,792
    21fa:	4601                	li	a2,0
    21fc:	4585                	li	a1,1
    21fe:	02800513          	li	a0,40
    2202:	bb65                	j	1fba <pwm_gpio_init+0xc>
    2204:	30300793          	li	a5,771
    2208:	00f51963          	bne	a0,a5,221a <pwm_gpio_init+0x26c>
    220c:	31800693          	li	a3,792
    2210:	4601                	li	a2,0
    2212:	4585                	li	a1,1
    2214:	02900513          	li	a0,41
    2218:	b34d                	j	1fba <pwm_gpio_init+0xc>
    221a:	31000793          	li	a5,784
    221e:	00f51963          	bne	a0,a5,2230 <pwm_gpio_init+0x282>
    2222:	31800693          	li	a3,792
    2226:	4601                	li	a2,0
    2228:	4585                	li	a1,1
    222a:	06c00513          	li	a0,108
    222e:	b371                	j	1fba <pwm_gpio_init+0xc>
    2230:	31100793          	li	a5,785
    2234:	00f51963          	bne	a0,a5,2246 <pwm_gpio_init+0x298>
    2238:	31800693          	li	a3,792
    223c:	4601                	li	a2,0
    223e:	4585                	li	a1,1
    2240:	06d00513          	li	a0,109
    2244:	bb9d                	j	1fba <pwm_gpio_init+0xc>
    2246:	31200793          	li	a5,786
    224a:	00f51963          	bne	a0,a5,225c <pwm_gpio_init+0x2ae>
    224e:	31800693          	li	a3,792
    2252:	4601                	li	a2,0
    2254:	4585                	li	a1,1
    2256:	06e00513          	li	a0,110
    225a:	b385                	j	1fba <pwm_gpio_init+0xc>
    225c:	31300793          	li	a5,787
    2260:	00f51963          	bne	a0,a5,2272 <pwm_gpio_init+0x2c4>
    2264:	31800693          	li	a3,792
    2268:	4601                	li	a2,0
    226a:	4585                	li	a1,1
    226c:	06f00513          	li	a0,111
    2270:	b3a9                	j	1fba <pwm_gpio_init+0xc>
    2272:	40000793          	li	a5,1024
    2276:	dcf50be3          	beq	a0,a5,204c <pwm_gpio_init+0x9e>
    227a:	40100793          	li	a5,1025
    227e:	def501e3          	beq	a0,a5,2060 <pwm_gpio_init+0xb2>
    2282:	40200793          	li	a5,1026
    2286:	def507e3          	beq	a0,a5,2074 <pwm_gpio_init+0xc6>
    228a:	40300793          	li	a5,1027
    228e:	def50de3          	beq	a0,a5,2088 <pwm_gpio_init+0xda>
    2292:	70000793          	li	a5,1792
    2296:	eaf508e3          	beq	a0,a5,2146 <pwm_gpio_init+0x198>
    229a:	70100793          	li	a5,1793
    229e:	eaf50fe3          	beq	a0,a5,215c <pwm_gpio_init+0x1ae>
    22a2:	70200793          	li	a5,1794
    22a6:	ecf506e3          	beq	a0,a5,2172 <pwm_gpio_init+0x1c4>
    22aa:	70300793          	li	a5,1795
    22ae:	ecf50de3          	beq	a0,a5,2188 <pwm_gpio_init+0x1da>
    22b2:	71000793          	li	a5,1808
    22b6:	f0f50ae3          	beq	a0,a5,21ca <pwm_gpio_init+0x21c>
    22ba:	71100793          	li	a5,1809
    22be:	f2f501e3          	beq	a0,a5,21e0 <pwm_gpio_init+0x232>
    22c2:	71200793          	li	a5,1810
    22c6:	f2f508e3          	beq	a0,a5,21f6 <pwm_gpio_init+0x248>
    22ca:	71300793          	li	a5,1811
    22ce:	00f51963          	bne	a0,a5,22e0 <pwm_gpio_init+0x332>
    22d2:	31800693          	li	a3,792
    22d6:	4601                	li	a2,0
    22d8:	4585                	li	a1,1
    22da:	04d00513          	li	a0,77
    22de:	b9f1                	j	1fba <pwm_gpio_init+0xc>
    22e0:	80050793          	addi	a5,a0,-2048
    22e4:	d80788e3          	beqz	a5,2074 <pwm_gpio_init+0xc6>
    22e8:	6785                	lui	a5,0x1
    22ea:	80178713          	addi	a4,a5,-2047 # 801 <__stack_size+0x1>
    22ee:	d8e50de3          	beq	a0,a4,2088 <pwm_gpio_init+0xda>
    22f2:	80278713          	addi	a4,a5,-2046
    22f6:	00e51863          	bne	a0,a4,2306 <pwm_gpio_init+0x358>
    22fa:	31800693          	li	a3,792
    22fe:	4601                	li	a2,0
    2300:	4585                	li	a1,1
    2302:	4511                	li	a0,4
    2304:	b95d                	j	1fba <pwm_gpio_init+0xc>
    2306:	80378793          	addi	a5,a5,-2045
    230a:	00f51963          	bne	a0,a5,231c <pwm_gpio_init+0x36e>
    230e:	31800693          	li	a3,792
    2312:	4601                	li	a2,0
    2314:	4585                	li	a1,1
    2316:	04400513          	li	a0,68
    231a:	b145                	j	1fba <pwm_gpio_init+0xc>
    231c:	6785                	lui	a5,0x1
    231e:	81078713          	addi	a4,a5,-2032 # 810 <__stack_size+0x10>
    2322:	00e51963          	bne	a0,a4,2334 <pwm_gpio_init+0x386>
    2326:	31800693          	li	a3,792
    232a:	4601                	li	a2,0
    232c:	4585                	li	a1,1
    232e:	06900513          	li	a0,105
    2332:	b161                	j	1fba <pwm_gpio_init+0xc>
    2334:	81178713          	addi	a4,a5,-2031
    2338:	00e51963          	bne	a0,a4,234a <pwm_gpio_init+0x39c>
    233c:	31800693          	li	a3,792
    2340:	4601                	li	a2,0
    2342:	4585                	li	a1,1
    2344:	06b00513          	li	a0,107
    2348:	b98d                	j	1fba <pwm_gpio_init+0xc>
    234a:	81278713          	addi	a4,a5,-2030
    234e:	eee505e3          	beq	a0,a4,2238 <pwm_gpio_init+0x28a>
    2352:	81378713          	addi	a4,a5,-2029
    2356:	f0e507e3          	beq	a0,a4,2264 <pwm_gpio_init+0x2b6>
    235a:	90078713          	addi	a4,a5,-1792
    235e:	e8e50ce3          	beq	a0,a4,21f6 <pwm_gpio_init+0x248>
    2362:	90178713          	addi	a4,a5,-1791
    2366:	eae503e3          	beq	a0,a4,220c <pwm_gpio_init+0x25e>
    236a:	90278713          	addi	a4,a5,-1790
    236e:	00e51963          	bne	a0,a4,2380 <pwm_gpio_init+0x3d2>
    2372:	31800693          	li	a3,792
    2376:	4601                	li	a2,0
    2378:	4585                	li	a1,1
    237a:	04300513          	li	a0,67
    237e:	b935                	j	1fba <pwm_gpio_init+0xc>
    2380:	90378713          	addi	a4,a5,-1789
    2384:	00e51963          	bne	a0,a4,2396 <pwm_gpio_init+0x3e8>
    2388:	31800693          	li	a3,792
    238c:	4601                	li	a2,0
    238e:	4585                	li	a1,1
    2390:	04b00513          	li	a0,75
    2394:	b11d                	j	1fba <pwm_gpio_init+0xc>
    2396:	91078713          	addi	a4,a5,-1776
    239a:	00e51963          	bne	a0,a4,23ac <pwm_gpio_init+0x3fe>
    239e:	31800693          	li	a3,792
    23a2:	4601                	li	a2,0
    23a4:	4585                	li	a1,1
    23a6:	06100513          	li	a0,97
    23aa:	b901                	j	1fba <pwm_gpio_init+0xc>
    23ac:	91178793          	addi	a5,a5,-1775
    23b0:	00f51963          	bne	a0,a5,23c2 <pwm_gpio_init+0x414>
    23b4:	31800693          	li	a3,792
    23b8:	4601                	li	a2,0
    23ba:	4585                	li	a1,1
    23bc:	06300513          	li	a0,99
    23c0:	beed                	j	1fba <pwm_gpio_init+0xc>
    23c2:	6785                	lui	a5,0x1
    23c4:	91278713          	addi	a4,a5,-1774 # 912 <__stack_size+0x112>
    23c8:	00e51963          	bne	a0,a4,23da <pwm_gpio_init+0x42c>
    23cc:	31800693          	li	a3,792
    23d0:	4601                	li	a2,0
    23d2:	4585                	li	a1,1
    23d4:	06500513          	li	a0,101
    23d8:	b6cd                	j	1fba <pwm_gpio_init+0xc>
    23da:	91378713          	addi	a4,a5,-1773
    23de:	00e51963          	bne	a0,a4,23f0 <pwm_gpio_init+0x442>
    23e2:	31800693          	li	a3,792
    23e6:	4601                	li	a2,0
    23e8:	4585                	li	a1,1
    23ea:	06700513          	li	a0,103
    23ee:	b6f1                	j	1fba <pwm_gpio_init+0xc>
    23f0:	92078713          	addi	a4,a5,-1760
    23f4:	cae50ee3          	beq	a0,a4,20b0 <pwm_gpio_init+0x102>
    23f8:	92178713          	addi	a4,a5,-1759
    23fc:	dae501e3          	beq	a0,a4,219e <pwm_gpio_init+0x1f0>
    2400:	92278713          	addi	a4,a5,-1758
    2404:	dae508e3          	beq	a0,a4,21b4 <pwm_gpio_init+0x206>
    2408:	92378793          	addi	a5,a5,-1757
    240c:	00f51963          	bne	a0,a5,241e <pwm_gpio_init+0x470>
    2410:	31800693          	li	a3,792
    2414:	4601                	li	a2,0
    2416:	4585                	li	a1,1
    2418:	04f00513          	li	a0,79
    241c:	be79                	j	1fba <pwm_gpio_init+0xc>
    241e:	8082                	ret

00002420 <pwm_init>:
    2420:	7139                	addi	sp,sp,-64
    2422:	de06                	sw	ra,60(sp)
    2424:	dc22                	sw	s0,56(sp)
    2426:	da26                	sw	s1,52(sp)
    2428:	842a                	mv	s0,a0
    242a:	d84a                	sw	s2,48(sp)
    242c:	d64e                	sw	s3,44(sp)
    242e:	c62e                	sw	a1,12(sp)
    2430:	c432                	sw	a2,8(sp)
    2432:	8936                	mv	s2,a3
    2434:	b7bff0ef          	jal	ra,1fae <pwm_gpio_init>
    2438:	45b2                	lw	a1,12(sp)
    243a:	8381a783          	lw	a5,-1992(gp) # 200001c0 <SystemCoreClock>
    243e:	4622                	lw	a2,8(sp)
    2440:	00845993          	srli	s3,s0,0x8
    2444:	02b7d733          	divu	a4,a5,a1
    2448:	854e                	mv	a0,s3
    244a:	8341                	srli	a4,a4,0x10
    244c:	00170693          	addi	a3,a4,1
    2450:	02b686b3          	mul	a3,a3,a1
    2454:	02d7d7b3          	divu	a5,a5,a3
    2458:	01079493          	slli	s1,a5,0x10
    245c:	80c1                	srli	s1,s1,0x10
    245e:	02c484b3          	mul	s1,s1,a2
    2462:	6609                	lui	a2,0x2
    2464:	71060613          	addi	a2,a2,1808 # 2710 <spi_gpio_init+0x12e>
    2468:	17fd                	addi	a5,a5,-1
    246a:	01079593          	slli	a1,a5,0x10
    246e:	81c1                	srli	a1,a1,0x10
    2470:	02c4d4b3          	divu	s1,s1,a2
    2474:	863a                	mv	a2,a4
    2476:	2edd                	jal	286c <timbase_init>
    2478:	4585                	li	a1,1
    247a:	4505                	li	a0,1
    247c:	3f7020ef          	jal	ra,5072 <RCC_APB2PeriphClockCmd>
    2480:	00445793          	srli	a5,s0,0x4
    2484:	4705                	li	a4,1
    2486:	04c2                	slli	s1,s1,0x10
    2488:	80c1                	srli	s1,s1,0x10
    248a:	06e79463          	bne	a5,a4,24f2 <pwm_init+0xd2>
    248e:	00160537          	lui	a0,0x160
    2492:	4585                	li	a1,1
    2494:	0c050513          	addi	a0,a0,192 # 1600c0 <_data_lma+0x1558c4>
    2498:	133020ef          	jal	ra,4dca <GPIO_PinRemapConfig>
    249c:	67c1                	lui	a5,0x10
    249e:	6729                	lui	a4,0xa
    24a0:	06078793          	addi	a5,a5,96 # 10060 <_data_lma+0x5864>
    24a4:	00299513          	slli	a0,s3,0x2
    24a8:	38870713          	addi	a4,a4,904 # a388 <TIMERN>
    24ac:	c83e                	sw	a5,16(sp)
    24ae:	953a                	add	a0,a0,a4
    24b0:	00347793          	andi	a5,s0,3
    24b4:	00911b23          	sh	s1,22(sp)
    24b8:	00011c23          	sh	zero,24(sp)
    24bc:	00011e23          	sh	zero,28(sp)
    24c0:	4100                	lw	s0,0(a0)
    24c2:	e7e9                	bnez	a5,258c <pwm_init+0x16c>
    24c4:	080c                	addi	a1,sp,16
    24c6:	8522                	mv	a0,s0
    24c8:	53d020ef          	jal	ra,5204 <TIM_OC1Init>
    24cc:	4585                	li	a1,1
    24ce:	8522                	mv	a0,s0
    24d0:	024030ef          	jal	ra,54f4 <TIM_CtrlPWMOutputs>
    24d4:	85ca                	mv	a1,s2
    24d6:	8522                	mv	a0,s0
    24d8:	032030ef          	jal	ra,550a <TIM_OC1PreloadConfig>
    24dc:	8522                	mv	a0,s0
    24de:	4585                	li	a1,1
    24e0:	7f9020ef          	jal	ra,54d8 <TIM_Cmd>
    24e4:	50f2                	lw	ra,60(sp)
    24e6:	5462                	lw	s0,56(sp)
    24e8:	54d2                	lw	s1,52(sp)
    24ea:	5942                	lw	s2,48(sp)
    24ec:	59b2                	lw	s3,44(sp)
    24ee:	6121                	addi	sp,sp,64
    24f0:	8082                	ret
    24f2:	4745                	li	a4,17
    24f4:	00e79863          	bne	a5,a4,2504 <pwm_init+0xe4>
    24f8:	00180537          	lui	a0,0x180
    24fc:	4585                	li	a1,1
    24fe:	30050513          	addi	a0,a0,768 # 180300 <_data_lma+0x175b04>
    2502:	bf59                	j	2498 <pwm_init+0x78>
    2504:	02100713          	li	a4,33
    2508:	00e79863          	bne	a5,a4,2518 <pwm_init+0xf8>
    250c:	001a1537          	lui	a0,0x1a1
    2510:	4585                	li	a1,1
    2512:	c0050513          	addi	a0,a0,-1024 # 1a0c00 <_data_lma+0x196404>
    2516:	b749                	j	2498 <pwm_init+0x78>
    2518:	02200713          	li	a4,34
    251c:	00e79863          	bne	a5,a4,252c <pwm_init+0x10c>
    2520:	001a1537          	lui	a0,0x1a1
    2524:	4585                	li	a1,1
    2526:	80050513          	addi	a0,a0,-2048 # 1a0800 <_data_lma+0x196004>
    252a:	b7bd                	j	2498 <pwm_init+0x78>
    252c:	03100713          	li	a4,49
    2530:	00e79563          	bne	a5,a4,253a <pwm_init+0x11a>
    2534:	4585                	li	a1,1
    2536:	6505                	lui	a0,0x1
    2538:	b785                	j	2498 <pwm_init+0x78>
    253a:	07100713          	li	a4,113
    253e:	00e79963          	bne	a5,a4,2550 <pwm_init+0x130>
    2542:	40010737          	lui	a4,0x40010
    2546:	4f5c                	lw	a5,28(a4)
    2548:	0047e793          	ori	a5,a5,4
    254c:	cf5c                	sw	a5,28(a4)
    254e:	b7b9                	j	249c <pwm_init+0x7c>
    2550:	08100713          	li	a4,129
    2554:	00e79863          	bne	a5,a4,2564 <pwm_init+0x144>
    2558:	40010737          	lui	a4,0x40010
    255c:	4f5c                	lw	a5,28(a4)
    255e:	0107e793          	ori	a5,a5,16
    2562:	b7ed                	j	254c <pwm_init+0x12c>
    2564:	09100713          	li	a4,145
    2568:	00e79863          	bne	a5,a4,2578 <pwm_init+0x158>
    256c:	40010737          	lui	a4,0x40010
    2570:	4f5c                	lw	a5,28(a4)
    2572:	0407e793          	ori	a5,a5,64
    2576:	bfd9                	j	254c <pwm_init+0x12c>
    2578:	09200713          	li	a4,146
    257c:	f2e790e3          	bne	a5,a4,249c <pwm_init+0x7c>
    2580:	40010737          	lui	a4,0x40010
    2584:	4f5c                	lw	a5,28(a4)
    2586:	0207e793          	ori	a5,a5,32
    258a:	b7c9                	j	254c <pwm_init+0x12c>
    258c:	4705                	li	a4,1
    258e:	00e79f63          	bne	a5,a4,25ac <pwm_init+0x18c>
    2592:	080c                	addi	a1,sp,16
    2594:	8522                	mv	a0,s0
    2596:	50f020ef          	jal	ra,52a4 <TIM_OC2Init>
    259a:	8522                	mv	a0,s0
    259c:	4585                	li	a1,1
    259e:	757020ef          	jal	ra,54f4 <TIM_CtrlPWMOutputs>
    25a2:	85ca                	mv	a1,s2
    25a4:	8522                	mv	a0,s0
    25a6:	777020ef          	jal	ra,551c <TIM_OC2PreloadConfig>
    25aa:	bf0d                	j	24dc <pwm_init+0xbc>
    25ac:	4709                	li	a4,2
    25ae:	080c                	addi	a1,sp,16
    25b0:	8522                	mv	a0,s0
    25b2:	00e79d63          	bne	a5,a4,25cc <pwm_init+0x1ac>
    25b6:	5bb020ef          	jal	ra,5370 <TIM_OC3Init>
    25ba:	8522                	mv	a0,s0
    25bc:	4585                	li	a1,1
    25be:	737020ef          	jal	ra,54f4 <TIM_CtrlPWMOutputs>
    25c2:	85ca                	mv	a1,s2
    25c4:	8522                	mv	a0,s0
    25c6:	771020ef          	jal	ra,5536 <TIM_OC3PreloadConfig>
    25ca:	bf09                	j	24dc <pwm_init+0xbc>
    25cc:	66f020ef          	jal	ra,543a <TIM_OC4Init>
    25d0:	8522                	mv	a0,s0
    25d2:	4585                	li	a1,1
    25d4:	721020ef          	jal	ra,54f4 <TIM_CtrlPWMOutputs>
    25d8:	85ca                	mv	a1,s2
    25da:	8522                	mv	a0,s0
    25dc:	76d020ef          	jal	ra,5548 <TIM_OC4PreloadConfig>
    25e0:	bdf5                	j	24dc <pwm_init+0xbc>

000025e2 <spi_gpio_init>:
    25e2:	1141                	addi	sp,sp,-16
    25e4:	c422                	sw	s0,8(sp)
    25e6:	c226                	sw	s1,4(sp)
    25e8:	c04a                	sw	s2,0(sp)
    25ea:	c606                	sw	ra,12(sp)
    25ec:	84ae                	mv	s1,a1
    25ee:	8432                	mv	s0,a2
    25f0:	8936                	mv	s2,a3
    25f2:	e921                	bnez	a0,2642 <spi_gpio_init+0x60>
    25f4:	31800693          	li	a3,792
    25f8:	4605                	li	a2,1
    25fa:	4585                	li	a1,1
    25fc:	4515                	li	a0,5
    25fe:	ffaff0ef          	jal	ra,1df8 <gpio_init>
    2602:	4789                	li	a5,2
    2604:	08f49363          	bne	s1,a5,268a <spi_gpio_init+0xa8>
    2608:	31800693          	li	a3,792
    260c:	4605                	li	a2,1
    260e:	4585                	li	a1,1
    2610:	451d                	li	a0,7
    2612:	fe6ff0ef          	jal	ra,1df8 <gpio_init>
    2616:	4785                	li	a5,1
    2618:	0af41d63          	bne	s0,a5,26d2 <spi_gpio_init+0xf0>
    261c:	31800693          	li	a3,792
    2620:	4605                	li	a2,1
    2622:	4581                	li	a1,0
    2624:	4519                	li	a0,6
    2626:	fd2ff0ef          	jal	ra,1df8 <gpio_init>
    262a:	4422                	lw	s0,8(sp)
    262c:	40b2                	lw	ra,12(sp)
    262e:	4492                	lw	s1,4(sp)
    2630:	854a                	mv	a0,s2
    2632:	4902                	lw	s2,0(sp)
    2634:	31000693          	li	a3,784
    2638:	4601                	li	a2,0
    263a:	4585                	li	a1,1
    263c:	0141                	addi	sp,sp,16
    263e:	fbaff06f          	j	1df8 <gpio_init>
    2642:	47c1                	li	a5,16
    2644:	00f51963          	bne	a0,a5,2656 <spi_gpio_init+0x74>
    2648:	31800693          	li	a3,792
    264c:	4605                	li	a2,1
    264e:	4585                	li	a1,1
    2650:	02300513          	li	a0,35
    2654:	b76d                	j	25fe <spi_gpio_init+0x1c>
    2656:	02000793          	li	a5,32
    265a:	00f51963          	bne	a0,a5,266c <spi_gpio_init+0x8a>
    265e:	31800693          	li	a3,792
    2662:	4605                	li	a2,1
    2664:	4585                	li	a1,1
    2666:	02d00513          	li	a0,45
    266a:	bf51                	j	25fe <spi_gpio_init+0x1c>
    266c:	03000793          	li	a5,48
    2670:	fcf50ce3          	beq	a0,a5,2648 <spi_gpio_init+0x66>
    2674:	04000793          	li	a5,64
    2678:	f8f515e3          	bne	a0,a5,2602 <spi_gpio_init+0x20>
    267c:	31800693          	li	a3,792
    2680:	4605                	li	a2,1
    2682:	4585                	li	a1,1
    2684:	04a00513          	li	a0,74
    2688:	bf9d                	j	25fe <spi_gpio_init+0x1c>
    268a:	47c9                	li	a5,18
    268c:	00f49963          	bne	s1,a5,269e <spi_gpio_init+0xbc>
    2690:	31800693          	li	a3,792
    2694:	4605                	li	a2,1
    2696:	4585                	li	a1,1
    2698:	02500513          	li	a0,37
    269c:	bf9d                	j	2612 <spi_gpio_init+0x30>
    269e:	02200793          	li	a5,34
    26a2:	00f49963          	bne	s1,a5,26b4 <spi_gpio_init+0xd2>
    26a6:	31800693          	li	a3,792
    26aa:	4605                	li	a2,1
    26ac:	4585                	li	a1,1
    26ae:	02f00513          	li	a0,47
    26b2:	b785                	j	2612 <spi_gpio_init+0x30>
    26b4:	03200793          	li	a5,50
    26b8:	fcf48ce3          	beq	s1,a5,2690 <spi_gpio_init+0xae>
    26bc:	04200793          	li	a5,66
    26c0:	f4f49be3          	bne	s1,a5,2616 <spi_gpio_init+0x34>
    26c4:	31800693          	li	a3,792
    26c8:	4605                	li	a2,1
    26ca:	4585                	li	a1,1
    26cc:	04c00513          	li	a0,76
    26d0:	b789                	j	2612 <spi_gpio_init+0x30>
    26d2:	47c5                	li	a5,17
    26d4:	00f41963          	bne	s0,a5,26e6 <spi_gpio_init+0x104>
    26d8:	31800693          	li	a3,792
    26dc:	4605                	li	a2,1
    26de:	4581                	li	a1,0
    26e0:	02400513          	li	a0,36
    26e4:	b789                	j	2626 <spi_gpio_init+0x44>
    26e6:	02100793          	li	a5,33
    26ea:	00f41963          	bne	s0,a5,26fc <spi_gpio_init+0x11a>
    26ee:	31800693          	li	a3,792
    26f2:	4605                	li	a2,1
    26f4:	4581                	li	a1,0
    26f6:	02e00513          	li	a0,46
    26fa:	b735                	j	2626 <spi_gpio_init+0x44>
    26fc:	04100793          	li	a5,65
    2700:	00f41963          	bne	s0,a5,2712 <spi_gpio_init+0x130>
    2704:	31800693          	li	a3,792
    2708:	4605                	li	a2,1
    270a:	4581                	li	a1,0
    270c:	04b00513          	li	a0,75
    2710:	bf19                	j	2626 <spi_gpio_init+0x44>
    2712:	03100793          	li	a5,49
    2716:	f0f41ae3          	bne	s0,a5,262a <spi_gpio_init+0x48>
    271a:	bf7d                	j	26d8 <spi_gpio_init+0xf6>

0000271c <spi_init>:
    271c:	7139                	addi	sp,sp,-64
    271e:	dc22                	sw	s0,56(sp)
    2720:	da26                	sw	s1,52(sp)
    2722:	d84a                	sw	s2,48(sp)
    2724:	d64e                	sw	s3,44(sp)
    2726:	d452                	sw	s4,40(sp)
    2728:	d256                	sw	s5,36(sp)
    272a:	d05a                	sw	s6,32(sp)
    272c:	de06                	sw	ra,60(sp)
    272e:	842a                	mv	s0,a0
    2730:	892e                	mv	s2,a1
    2732:	8a32                	mv	s4,a2
    2734:	8ab6                	mv	s5,a3
    2736:	8b3a                	mv	s6,a4
    2738:	84be                	mv	s1,a5
    273a:	89c2                	mv	s3,a6
    273c:	e551                	bnez	a0,27c8 <spi_init+0xac>
    273e:	6505                	lui	a0,0x1
    2740:	4585                	li	a1,1
    2742:	0505                	addi	a0,a0,1
    2744:	12f020ef          	jal	ra,5072 <RCC_APB2PeriphClockCmd>
    2748:	86da                	mv	a3,s6
    274a:	8656                	mv	a2,s5
    274c:	85d2                	mv	a1,s4
    274e:	854a                	mv	a0,s2
    2750:	e93ff0ef          	jal	ra,25e2 <spi_gpio_init>
    2754:	010407b7          	lui	a5,0x1040
    2758:	c63e                	sw	a5,12(sp)
    275a:	00011823          	sh	zero,16(sp)
    275e:	4785                	li	a5,1
    2760:	08f48863          	beq	s1,a5,27f0 <spi_init+0xd4>
    2764:	c0c9                	beqz	s1,27e6 <spi_init+0xca>
    2766:	4709                	li	a4,2
    2768:	08e48963          	beq	s1,a4,27fa <spi_init+0xde>
    276c:	468d                	li	a3,3
    276e:	08d48963          	beq	s1,a3,2800 <spi_init+0xe4>
    2772:	20000793          	li	a5,512
    2776:	00f11b23          	sh	a5,22(sp)
    277a:	479d                	li	a5,7
    277c:	00f11e23          	sh	a5,28(sp)
    2780:	67a9                	lui	a5,0xa
    2782:	37c78793          	addi	a5,a5,892 # a37c <SPIN>
    2786:	040a                	slli	s0,s0,0x2
    2788:	943e                	add	s0,s0,a5
    278a:	4000                	lw	s0,0(s0)
    278c:	098e                	slli	s3,s3,0x3
    278e:	006c                	addi	a1,sp,12
    2790:	8522                	mv	a0,s0
    2792:	01311c23          	sh	s3,24(sp)
    2796:	00011d23          	sh	zero,26(sp)
    279a:	133020ef          	jal	ra,50cc <SPI_Init>
    279e:	47c1                	li	a5,16
    27a0:	06f91563          	bne	s2,a5,280a <spi_init+0xee>
    27a4:	4585                	li	a1,1
    27a6:	4505                	li	a0,1
    27a8:	622020ef          	jal	ra,4dca <GPIO_PinRemapConfig>
    27ac:	8522                	mv	a0,s0
    27ae:	4585                	li	a1,1
    27b0:	177020ef          	jal	ra,5126 <SPI_Cmd>
    27b4:	50f2                	lw	ra,60(sp)
    27b6:	5462                	lw	s0,56(sp)
    27b8:	54d2                	lw	s1,52(sp)
    27ba:	5942                	lw	s2,48(sp)
    27bc:	59b2                	lw	s3,44(sp)
    27be:	5a22                	lw	s4,40(sp)
    27c0:	5a92                	lw	s5,36(sp)
    27c2:	5b02                	lw	s6,32(sp)
    27c4:	6121                	addi	sp,sp,64
    27c6:	8082                	ret
    27c8:	4785                	li	a5,1
    27ca:	00f51863          	bne	a0,a5,27da <spi_init+0xbe>
    27ce:	4585                	li	a1,1
    27d0:	6511                	lui	a0,0x4
    27d2:	0505                	addi	a0,a0,1
    27d4:	0bd020ef          	jal	ra,5090 <RCC_APB1PeriphClockCmd>
    27d8:	bf85                	j	2748 <spi_init+0x2c>
    27da:	4789                	li	a5,2
    27dc:	f6f516e3          	bne	a0,a5,2748 <spi_init+0x2c>
    27e0:	4585                	li	a1,1
    27e2:	6521                	lui	a0,0x8
    27e4:	b7fd                	j	27d2 <spi_init+0xb6>
    27e6:	00011923          	sh	zero,18(sp)
    27ea:	00011a23          	sh	zero,20(sp)
    27ee:	b751                	j	2772 <spi_init+0x56>
    27f0:	00011923          	sh	zero,18(sp)
    27f4:	00911a23          	sh	s1,20(sp)
    27f8:	bfad                	j	2772 <spi_init+0x56>
    27fa:	00911923          	sh	s1,18(sp)
    27fe:	b7f5                	j	27ea <spi_init+0xce>
    2800:	00e11923          	sh	a4,18(sp)
    2804:	00f11a23          	sh	a5,20(sp)
    2808:	b7ad                	j	2772 <spi_init+0x56>
    280a:	04000793          	li	a5,64
    280e:	f8f91fe3          	bne	s2,a5,27ac <spi_init+0x90>
    2812:	00201537          	lui	a0,0x201
    2816:	4585                	li	a1,1
    2818:	10050513          	addi	a0,a0,256 # 201100 <_data_lma+0x1f6904>
    281c:	b771                	j	27a8 <spi_init+0x8c>

0000281e <spi_write_8bit>:
    281e:	67a9                	lui	a5,0xa
    2820:	050a                	slli	a0,a0,0x2
    2822:	37c78793          	addi	a5,a5,892 # a37c <SPIN>
    2826:	97aa                	add	a5,a5,a0
    2828:	4398                	lw	a4,0(a5)
    282a:	00b71623          	sh	a1,12(a4) # 4001000c <_eusrstack+0x2000000c>
    282e:	00875783          	lhu	a5,8(a4)
    2832:	0807f793          	andi	a5,a5,128
    2836:	ffe5                	bnez	a5,282e <spi_write_8bit+0x10>
    2838:	8082                	ret

0000283a <spi_write_16bit>:
    283a:	67a9                	lui	a5,0xa
    283c:	050a                	slli	a0,a0,0x2
    283e:	37c78793          	addi	a5,a5,892 # a37c <SPIN>
    2842:	97aa                	add	a5,a5,a0
    2844:	439c                	lw	a5,0(a5)
    2846:	0085d713          	srli	a4,a1,0x8
    284a:	00e79623          	sh	a4,12(a5)
    284e:	0087d703          	lhu	a4,8(a5)
    2852:	08077713          	andi	a4,a4,128
    2856:	ff65                	bnez	a4,284e <spi_write_16bit+0x14>
    2858:	0ff5f593          	andi	a1,a1,255
    285c:	00b79623          	sh	a1,12(a5)
    2860:	0087d703          	lhu	a4,8(a5)
    2864:	08077713          	andi	a4,a4,128
    2868:	ff65                	bnez	a4,2860 <spi_write_16bit+0x26>
    286a:	8082                	ret

0000286c <timbase_init>:
    286c:	1101                	addi	sp,sp,-32
    286e:	cc22                	sw	s0,24(sp)
    2870:	ca26                	sw	s1,20(sp)
    2872:	c84a                	sw	s2,16(sp)
    2874:	ce06                	sw	ra,28(sp)
    2876:	842a                	mv	s0,a0
    2878:	892e                	mv	s2,a1
    287a:	84b2                	mv	s1,a2
    287c:	e901                	bnez	a0,288c <timbase_init+0x20>
    287e:	6505                	lui	a0,0x1
    2880:	4585                	li	a1,1
    2882:	80050513          	addi	a0,a0,-2048 # 800 <__stack_size>
    2886:	7ec020ef          	jal	ra,5072 <RCC_APB2PeriphClockCmd>
    288a:	a039                	j	2898 <timbase_init+0x2c>
    288c:	4785                	li	a5,1
    288e:	02f51e63          	bne	a0,a5,28ca <timbase_init+0x5e>
    2892:	4585                	li	a1,1
    2894:	7fc020ef          	jal	ra,5090 <RCC_APB1PeriphClockCmd>
    2898:	67a9                	lui	a5,0xa
    289a:	38878793          	addi	a5,a5,904 # a388 <TIMERN>
    289e:	040a                	slli	s0,s0,0x2
    28a0:	943e                	add	s0,s0,a5
    28a2:	4008                	lw	a0,0(s0)
    28a4:	004c                	addi	a1,sp,4
    28a6:	01211423          	sh	s2,8(sp)
    28aa:	00911223          	sh	s1,4(sp)
    28ae:	00011523          	sh	zero,10(sp)
    28b2:	00011323          	sh	zero,6(sp)
    28b6:	00010623          	sb	zero,12(sp)
    28ba:	08b020ef          	jal	ra,5144 <TIM_TimeBaseInit>
    28be:	40f2                	lw	ra,28(sp)
    28c0:	4462                	lw	s0,24(sp)
    28c2:	44d2                	lw	s1,20(sp)
    28c4:	4942                	lw	s2,16(sp)
    28c6:	6105                	addi	sp,sp,32
    28c8:	8082                	ret
    28ca:	4789                	li	a5,2
    28cc:	fcf503e3          	beq	a0,a5,2892 <timbase_init+0x26>
    28d0:	478d                	li	a5,3
    28d2:	00f51563          	bne	a0,a5,28dc <timbase_init+0x70>
    28d6:	4585                	li	a1,1
    28d8:	4511                	li	a0,4
    28da:	bf6d                	j	2894 <timbase_init+0x28>
    28dc:	4791                	li	a5,4
    28de:	00f51563          	bne	a0,a5,28e8 <timbase_init+0x7c>
    28e2:	4585                	li	a1,1
    28e4:	4521                	li	a0,8
    28e6:	b77d                	j	2894 <timbase_init+0x28>
    28e8:	479d                	li	a5,7
    28ea:	00f51563          	bne	a0,a5,28f4 <timbase_init+0x88>
    28ee:	4585                	li	a1,1
    28f0:	6509                	lui	a0,0x2
    28f2:	bf51                	j	2886 <timbase_init+0x1a>
    28f4:	47a1                	li	a5,8
    28f6:	00f51663          	bne	a0,a5,2902 <timbase_init+0x96>
    28fa:	4585                	li	a1,1
    28fc:	00080537          	lui	a0,0x80
    2900:	b759                	j	2886 <timbase_init+0x1a>
    2902:	47a5                	li	a5,9
    2904:	f8f51ae3          	bne	a0,a5,2898 <timbase_init+0x2c>
    2908:	4585                	li	a1,1
    290a:	00100537          	lui	a0,0x100
    290e:	bfa5                	j	2886 <timbase_init+0x1a>

00002910 <uart_putchar>:
    2910:	67a9                	lui	a5,0xa
    2912:	050a                	slli	a0,a0,0x2
    2914:	3a878793          	addi	a5,a5,936 # a3a8 <UARTN>
    2918:	97aa                	add	a5,a5,a0
    291a:	4398                	lw	a4,0(a5)
    291c:	00075783          	lhu	a5,0(a4)
    2920:	0807f793          	andi	a5,a5,128
    2924:	dfe5                	beqz	a5,291c <uart_putchar+0xc>
    2926:	05c2                	slli	a1,a1,0x10
    2928:	81c1                	srli	a1,a1,0x10
    292a:	00b71223          	sh	a1,4(a4)
    292e:	8082                	ret

00002930 <uart_putbuff>:
    2930:	1141                	addi	sp,sp,-16
    2932:	c422                	sw	s0,8(sp)
    2934:	c226                	sw	s1,4(sp)
    2936:	c04a                	sw	s2,0(sp)
    2938:	c606                	sw	ra,12(sp)
    293a:	892a                	mv	s2,a0
    293c:	842e                	mv	s0,a1
    293e:	00c584b3          	add	s1,a1,a2
    2942:	00941863          	bne	s0,s1,2952 <uart_putbuff+0x22>
    2946:	40b2                	lw	ra,12(sp)
    2948:	4422                	lw	s0,8(sp)
    294a:	4492                	lw	s1,4(sp)
    294c:	4902                	lw	s2,0(sp)
    294e:	0141                	addi	sp,sp,16
    2950:	8082                	ret
    2952:	0405                	addi	s0,s0,1
    2954:	fff44583          	lbu	a1,-1(s0)
    2958:	854a                	mv	a0,s2
    295a:	fb7ff0ef          	jal	ra,2910 <uart_putchar>
    295e:	b7d5                	j	2942 <uart_putbuff+0x12>

00002960 <uart_interrupt_init>:
    2960:	1141                	addi	sp,sp,-16
    2962:	c422                	sw	s0,8(sp)
    2964:	c226                	sw	s1,4(sp)
    2966:	c606                	sw	ra,12(sp)
    2968:	c04a                	sw	s2,0(sp)
    296a:	842a                	mv	s0,a0
    296c:	84ae                	mv	s1,a1
    296e:	ee1d                	bnez	a2,29ac <uart_interrupt_init+0x4c>
    2970:	67a9                	lui	a5,0xa
    2972:	00251713          	slli	a4,a0,0x2
    2976:	3a878793          	addi	a5,a5,936 # a3a8 <UARTN>
    297a:	862e                	mv	a2,a1
    297c:	97ba                	add	a5,a5,a4
    297e:	52500593          	li	a1,1317
    2982:	4388                	lw	a0,0(a5)
    2984:	561020ef          	jal	ra,56e4 <USART_ITConfig>
    2988:	84018793          	addi	a5,gp,-1984 # 200001c8 <uart_irq>
    298c:	943e                	add	s0,s0,a5
    298e:	00044503          	lbu	a0,0(s0)
    2992:	e000e7b7          	lui	a5,0xe000e
    2996:	97aa                	add	a5,a5,a0
    2998:	40078023          	sb	zero,1024(a5) # e000e400 <_eusrstack+0xbfffe400>
    299c:	c48d                	beqz	s1,29c6 <uart_interrupt_init+0x66>
    299e:	4422                	lw	s0,8(sp)
    29a0:	40b2                	lw	ra,12(sp)
    29a2:	4492                	lw	s1,4(sp)
    29a4:	4902                	lw	s2,0(sp)
    29a6:	0141                	addi	sp,sp,16
    29a8:	d74ff06f          	j	1f1c <interrupt_enable>
    29ac:	4785                	li	a5,1
    29ae:	02f61363          	bne	a2,a5,29d4 <uart_interrupt_init+0x74>
    29b2:	67a9                	lui	a5,0xa
    29b4:	00251713          	slli	a4,a0,0x2
    29b8:	3a878793          	addi	a5,a5,936 # a3a8 <UARTN>
    29bc:	862e                	mv	a2,a1
    29be:	97ba                	add	a5,a5,a4
    29c0:	72700593          	li	a1,1831
    29c4:	bf7d                	j	2982 <uart_interrupt_init+0x22>
    29c6:	4422                	lw	s0,8(sp)
    29c8:	40b2                	lw	ra,12(sp)
    29ca:	4492                	lw	s1,4(sp)
    29cc:	4902                	lw	s2,0(sp)
    29ce:	0141                	addi	sp,sp,16
    29d0:	d66ff06f          	j	1f36 <interrupt_disable>
    29d4:	4789                	li	a5,2
    29d6:	04f61963          	bne	a2,a5,2a28 <uart_interrupt_init+0xc8>
    29da:	67a9                	lui	a5,0xa
    29dc:	00251713          	slli	a4,a0,0x2
    29e0:	3a878793          	addi	a5,a5,936 # a3a8 <UARTN>
    29e4:	97ba                	add	a5,a5,a4
    29e6:	0007a903          	lw	s2,0(a5)
    29ea:	4605                	li	a2,1
    29ec:	52500593          	li	a1,1317
    29f0:	854a                	mv	a0,s2
    29f2:	4f3020ef          	jal	ra,56e4 <USART_ITConfig>
    29f6:	03540413          	addi	s0,s0,53
    29fa:	86a6                	mv	a3,s1
    29fc:	8522                	mv	a0,s0
    29fe:	4601                	li	a2,0
    2a00:	4581                	li	a1,0
    2a02:	d5eff0ef          	jal	ra,1f60 <nvic_init>
    2a06:	854a                	mv	a0,s2
    2a08:	4605                	li	a2,1
    2a0a:	72700593          	li	a1,1831
    2a0e:	4d7020ef          	jal	ra,56e4 <USART_ITConfig>
    2a12:	8522                	mv	a0,s0
    2a14:	4422                	lw	s0,8(sp)
    2a16:	40b2                	lw	ra,12(sp)
    2a18:	4902                	lw	s2,0(sp)
    2a1a:	86a6                	mv	a3,s1
    2a1c:	4492                	lw	s1,4(sp)
    2a1e:	4605                	li	a2,1
    2a20:	4581                	li	a1,0
    2a22:	0141                	addi	sp,sp,16
    2a24:	d3cff06f          	j	1f60 <nvic_init>
    2a28:	40b2                	lw	ra,12(sp)
    2a2a:	4422                	lw	s0,8(sp)
    2a2c:	4492                	lw	s1,4(sp)
    2a2e:	4902                	lw	s2,0(sp)
    2a30:	0141                	addi	sp,sp,16
    2a32:	8082                	ret

00002a34 <uart_query>:
    2a34:	67a9                	lui	a5,0xa
    2a36:	050a                	slli	a0,a0,0x2
    2a38:	3a878793          	addi	a5,a5,936 # a3a8 <UARTN>
    2a3c:	97aa                	add	a5,a5,a0
    2a3e:	4398                	lw	a4,0(a5)
    2a40:	00075783          	lhu	a5,0(a4)
    2a44:	0207f793          	andi	a5,a5,32
    2a48:	c799                	beqz	a5,2a56 <uart_query+0x22>
    2a4a:	00475783          	lhu	a5,4(a4)
    2a4e:	4505                	li	a0,1
    2a50:	00f58023          	sb	a5,0(a1)
    2a54:	8082                	ret
    2a56:	4501                	li	a0,0
    2a58:	8082                	ret

00002a5a <uart_gpio_init>:
    2a5a:	1141                	addi	sp,sp,-16
    2a5c:	c606                	sw	ra,12(sp)
    2a5e:	e10d                	bnez	a0,2a80 <uart_gpio_init+0x26>
    2a60:	4785                	li	a5,1
    2a62:	22f59863          	bne	a1,a5,2c92 <uart_gpio_init+0x238>
    2a66:	46e1                	li	a3,24
    2a68:	4601                	li	a2,0
    2a6a:	4525                	li	a0,9
    2a6c:	b8cff0ef          	jal	ra,1df8 <gpio_init>
    2a70:	4691                	li	a3,4
    2a72:	4601                	li	a2,0
    2a74:	4581                	li	a1,0
    2a76:	4529                	li	a0,10
    2a78:	40b2                	lw	ra,12(sp)
    2a7a:	0141                	addi	sp,sp,16
    2a7c:	b7cff06f          	j	1df8 <gpio_init>
    2a80:	4789                	li	a5,2
    2a82:	00f51f63          	bne	a0,a5,2aa0 <uart_gpio_init+0x46>
    2a86:	46e1                	li	a3,24
    2a88:	4601                	li	a2,0
    2a8a:	4585                	li	a1,1
    2a8c:	02600513          	li	a0,38
    2a90:	b68ff0ef          	jal	ra,1df8 <gpio_init>
    2a94:	4691                	li	a3,4
    2a96:	4601                	li	a2,0
    2a98:	4581                	li	a1,0
    2a9a:	02700513          	li	a0,39
    2a9e:	bfe9                	j	2a78 <uart_gpio_init+0x1e>
    2aa0:	47c1                	li	a5,16
    2aa2:	00f51d63          	bne	a0,a5,2abc <uart_gpio_init+0x62>
    2aa6:	46e1                	li	a3,24
    2aa8:	4601                	li	a2,0
    2aaa:	4585                	li	a1,1
    2aac:	4509                	li	a0,2
    2aae:	b4aff0ef          	jal	ra,1df8 <gpio_init>
    2ab2:	4691                	li	a3,4
    2ab4:	4601                	li	a2,0
    2ab6:	4581                	li	a1,0
    2ab8:	450d                	li	a0,3
    2aba:	bf7d                	j	2a78 <uart_gpio_init+0x1e>
    2abc:	47c9                	li	a5,18
    2abe:	00f51f63          	bne	a0,a5,2adc <uart_gpio_init+0x82>
    2ac2:	46e1                	li	a3,24
    2ac4:	4601                	li	a2,0
    2ac6:	4585                	li	a1,1
    2ac8:	06500513          	li	a0,101
    2acc:	b2cff0ef          	jal	ra,1df8 <gpio_init>
    2ad0:	4691                	li	a3,4
    2ad2:	4601                	li	a2,0
    2ad4:	4581                	li	a1,0
    2ad6:	06600513          	li	a0,102
    2ada:	bf79                	j	2a78 <uart_gpio_init+0x1e>
    2adc:	02000793          	li	a5,32
    2ae0:	00f51f63          	bne	a0,a5,2afe <uart_gpio_init+0xa4>
    2ae4:	46e1                	li	a3,24
    2ae6:	4601                	li	a2,0
    2ae8:	4585                	li	a1,1
    2aea:	02a00513          	li	a0,42
    2aee:	b0aff0ef          	jal	ra,1df8 <gpio_init>
    2af2:	4691                	li	a3,4
    2af4:	4601                	li	a2,0
    2af6:	4581                	li	a1,0
    2af8:	02b00513          	li	a0,43
    2afc:	bfb5                	j	2a78 <uart_gpio_init+0x1e>
    2afe:	02200793          	li	a5,34
    2b02:	00f51f63          	bne	a0,a5,2b20 <uart_gpio_init+0xc6>
    2b06:	46e1                	li	a3,24
    2b08:	4601                	li	a2,0
    2b0a:	4585                	li	a1,1
    2b0c:	04a00513          	li	a0,74
    2b10:	ae8ff0ef          	jal	ra,1df8 <gpio_init>
    2b14:	4691                	li	a3,4
    2b16:	4601                	li	a2,0
    2b18:	4581                	li	a1,0
    2b1a:	04b00513          	li	a0,75
    2b1e:	bfa9                	j	2a78 <uart_gpio_init+0x1e>
    2b20:	02400793          	li	a5,36
    2b24:	02f51063          	bne	a0,a5,2b44 <uart_gpio_init+0xea>
    2b28:	46e1                	li	a3,24
    2b2a:	4601                	li	a2,0
    2b2c:	4585                	li	a1,1
    2b2e:	06800513          	li	a0,104
    2b32:	ac6ff0ef          	jal	ra,1df8 <gpio_init>
    2b36:	04800693          	li	a3,72
    2b3a:	4601                	li	a2,0
    2b3c:	4581                	li	a1,0
    2b3e:	06900513          	li	a0,105
    2b42:	bf1d                	j	2a78 <uart_gpio_init+0x1e>
    2b44:	04000793          	li	a5,64
    2b48:	faf50fe3          	beq	a0,a5,2b06 <uart_gpio_init+0xac>
    2b4c:	04200793          	li	a5,66
    2b50:	00f51f63          	bne	a0,a5,2b6e <uart_gpio_init+0x114>
    2b54:	46e1                	li	a3,24
    2b56:	4601                	li	a2,0
    2b58:	4585                	li	a1,1
    2b5a:	02000513          	li	a0,32
    2b5e:	a9aff0ef          	jal	ra,1df8 <gpio_init>
    2b62:	4691                	li	a3,4
    2b64:	4601                	li	a2,0
    2b66:	4581                	li	a1,0
    2b68:	02100513          	li	a0,33
    2b6c:	b731                	j	2a78 <uart_gpio_init+0x1e>
    2b6e:	05000793          	li	a5,80
    2b72:	00f51f63          	bne	a0,a5,2b90 <uart_gpio_init+0x136>
    2b76:	46e1                	li	a3,24
    2b78:	4601                	li	a2,0
    2b7a:	4585                	li	a1,1
    2b7c:	04c00513          	li	a0,76
    2b80:	a78ff0ef          	jal	ra,1df8 <gpio_init>
    2b84:	4691                	li	a3,4
    2b86:	4601                	li	a2,0
    2b88:	4581                	li	a1,0
    2b8a:	06200513          	li	a0,98
    2b8e:	b5ed                	j	2a78 <uart_gpio_init+0x1e>
    2b90:	05200793          	li	a5,82
    2b94:	00f51f63          	bne	a0,a5,2bb2 <uart_gpio_init+0x158>
    2b98:	46e1                	li	a3,24
    2b9a:	4601                	li	a2,0
    2b9c:	4585                	li	a1,1
    2b9e:	08800513          	li	a0,136
    2ba2:	a56ff0ef          	jal	ra,1df8 <gpio_init>
    2ba6:	4691                	li	a3,4
    2ba8:	4601                	li	a2,0
    2baa:	4581                	li	a1,0
    2bac:	08900513          	li	a0,137
    2bb0:	b5e1                	j	2a78 <uart_gpio_init+0x1e>
    2bb2:	06000793          	li	a5,96
    2bb6:	02f51063          	bne	a0,a5,2bd6 <uart_gpio_init+0x17c>
    2bba:	46e1                	li	a3,24
    2bbc:	4601                	li	a2,0
    2bbe:	4585                	li	a1,1
    2bc0:	04000513          	li	a0,64
    2bc4:	a34ff0ef          	jal	ra,1df8 <gpio_init>
    2bc8:	04800693          	li	a3,72
    2bcc:	4601                	li	a2,0
    2bce:	4581                	li	a1,0
    2bd0:	04100513          	li	a0,65
    2bd4:	b555                	j	2a78 <uart_gpio_init+0x1e>
    2bd6:	06200793          	li	a5,98
    2bda:	00f51f63          	bne	a0,a5,2bf8 <uart_gpio_init+0x19e>
    2bde:	46e1                	li	a3,24
    2be0:	4601                	li	a2,0
    2be2:	4585                	li	a1,1
    2be4:	08a00513          	li	a0,138
    2be8:	a10ff0ef          	jal	ra,1df8 <gpio_init>
    2bec:	4691                	li	a3,4
    2bee:	4601                	li	a2,0
    2bf0:	4581                	li	a1,0
    2bf2:	08b00513          	li	a0,139
    2bf6:	b549                	j	2a78 <uart_gpio_init+0x1e>
    2bf8:	07000793          	li	a5,112
    2bfc:	00f51f63          	bne	a0,a5,2c1a <uart_gpio_init+0x1c0>
    2c00:	46e1                	li	a3,24
    2c02:	4601                	li	a2,0
    2c04:	4585                	li	a1,1
    2c06:	04200513          	li	a0,66
    2c0a:	9eeff0ef          	jal	ra,1df8 <gpio_init>
    2c0e:	4691                	li	a3,4
    2c10:	4601                	li	a2,0
    2c12:	4581                	li	a1,0
    2c14:	04300513          	li	a0,67
    2c18:	b585                	j	2a78 <uart_gpio_init+0x1e>
    2c1a:	07200793          	li	a5,114
    2c1e:	00f51763          	bne	a0,a5,2c2c <uart_gpio_init+0x1d2>
    2c22:	46e1                	li	a3,24
    2c24:	4601                	li	a2,0
    2c26:	4585                	li	a1,1
    2c28:	4519                	li	a0,6
    2c2a:	b7c5                	j	2c0a <uart_gpio_init+0x1b0>
    2c2c:	07400793          	li	a5,116
    2c30:	00f51f63          	bne	a0,a5,2c4e <uart_gpio_init+0x1f4>
    2c34:	46e1                	li	a3,24
    2c36:	4601                	li	a2,0
    2c38:	4585                	li	a1,1
    2c3a:	08c00513          	li	a0,140
    2c3e:	9baff0ef          	jal	ra,1df8 <gpio_init>
    2c42:	4691                	li	a3,4
    2c44:	4601                	li	a2,0
    2c46:	4581                	li	a1,0
    2c48:	08d00513          	li	a0,141
    2c4c:	b535                	j	2a78 <uart_gpio_init+0x1e>
    2c4e:	08000793          	li	a5,128
    2c52:	00f51f63          	bne	a0,a5,2c70 <uart_gpio_init+0x216>
    2c56:	46e1                	li	a3,24
    2c58:	4601                	li	a2,0
    2c5a:	4585                	li	a1,1
    2c5c:	04400513          	li	a0,68
    2c60:	998ff0ef          	jal	ra,1df8 <gpio_init>
    2c64:	4691                	li	a3,4
    2c66:	4601                	li	a2,0
    2c68:	4581                	li	a1,0
    2c6a:	04500513          	li	a0,69
    2c6e:	b529                	j	2a78 <uart_gpio_init+0x1e>
    2c70:	08200793          	li	a5,130
    2c74:	00f51f63          	bne	a0,a5,2c92 <uart_gpio_init+0x238>
    2c78:	46e1                	li	a3,24
    2c7a:	4601                	li	a2,0
    2c7c:	4585                	li	a1,1
    2c7e:	08e00513          	li	a0,142
    2c82:	976ff0ef          	jal	ra,1df8 <gpio_init>
    2c86:	4691                	li	a3,4
    2c88:	4601                	li	a2,0
    2c8a:	4581                	li	a1,0
    2c8c:	08f00513          	li	a0,143
    2c90:	b3e5                	j	2a78 <uart_gpio_init+0x1e>
    2c92:	40b2                	lw	ra,12(sp)
    2c94:	0141                	addi	sp,sp,16
    2c96:	8082                	ret

00002c98 <uart_init>:
    2c98:	7179                	addi	sp,sp,-48
    2c9a:	d422                	sw	s0,40(sp)
    2c9c:	ce4e                	sw	s3,28(sp)
    2c9e:	842a                	mv	s0,a0
    2ca0:	89ae                	mv	s3,a1
    2ca2:	4505                	li	a0,1
    2ca4:	4585                	li	a1,1
    2ca6:	d226                	sw	s1,36(sp)
    2ca8:	d04a                	sw	s2,32(sp)
    2caa:	d606                	sw	ra,44(sp)
    2cac:	84b2                	mv	s1,a2
    2cae:	8936                	mv	s2,a3
    2cb0:	3c2020ef          	jal	ra,5072 <RCC_APB2PeriphClockCmd>
    2cb4:	4789                	li	a5,2
    2cb6:	04f49f63          	bne	s1,a5,2d14 <uart_init+0x7c>
    2cba:	478d                	li	a5,3
    2cbc:	00f91663          	bne	s2,a5,2cc8 <uart_init+0x30>
    2cc0:	4585                	li	a1,1
    2cc2:	4511                	li	a0,4
    2cc4:	106020ef          	jal	ra,4dca <GPIO_PinRemapConfig>
    2cc8:	12041c63          	bnez	s0,2e00 <uart_init+0x168>
    2ccc:	4585                	li	a1,1
    2cce:	6511                	lui	a0,0x4
    2cd0:	3a2020ef          	jal	ra,5072 <RCC_APB2PeriphClockCmd>
    2cd4:	85ca                	mv	a1,s2
    2cd6:	8526                	mv	a0,s1
    2cd8:	d83ff0ef          	jal	ra,2a5a <uart_gpio_init>
    2cdc:	000c07b7          	lui	a5,0xc0
    2ce0:	c43e                	sw	a5,8(sp)
    2ce2:	67a9                	lui	a5,0xa
    2ce4:	3a878793          	addi	a5,a5,936 # a3a8 <UARTN>
    2ce8:	040a                	slli	s0,s0,0x2
    2cea:	943e                	add	s0,s0,a5
    2cec:	4000                	lw	s0,0(s0)
    2cee:	858a                	mv	a1,sp
    2cf0:	c04e                	sw	s3,0(sp)
    2cf2:	8522                	mv	a0,s0
    2cf4:	c202                	sw	zero,4(sp)
    2cf6:	00011623          	sh	zero,12(sp)
    2cfa:	0f5020ef          	jal	ra,55ee <USART_Init>
    2cfe:	8522                	mv	a0,s0
    2d00:	4585                	li	a1,1
    2d02:	1c7020ef          	jal	ra,56c8 <USART_Cmd>
    2d06:	50b2                	lw	ra,44(sp)
    2d08:	5422                	lw	s0,40(sp)
    2d0a:	5492                	lw	s1,36(sp)
    2d0c:	5902                	lw	s2,32(sp)
    2d0e:	49f2                	lw	s3,28(sp)
    2d10:	6145                	addi	sp,sp,48
    2d12:	8082                	ret
    2d14:	47c9                	li	a5,18
    2d16:	00f49863          	bne	s1,a5,2d26 <uart_init+0x8e>
    2d1a:	47cd                	li	a5,19
    2d1c:	faf916e3          	bne	s2,a5,2cc8 <uart_init+0x30>
    2d20:	4585                	li	a1,1
    2d22:	4521                	li	a0,8
    2d24:	b745                	j	2cc4 <uart_init+0x2c>
    2d26:	02200793          	li	a5,34
    2d2a:	00f49b63          	bne	s1,a5,2d40 <uart_init+0xa8>
    2d2e:	02300793          	li	a5,35
    2d32:	f8f91be3          	bne	s2,a5,2cc8 <uart_init+0x30>
    2d36:	00140537          	lui	a0,0x140
    2d3a:	4585                	li	a1,1
    2d3c:	0541                	addi	a0,a0,16
    2d3e:	b759                	j	2cc4 <uart_init+0x2c>
    2d40:	02400793          	li	a5,36
    2d44:	00f49c63          	bne	s1,a5,2d5c <uart_init+0xc4>
    2d48:	02500793          	li	a5,37
    2d4c:	f6f91ee3          	bne	s2,a5,2cc8 <uart_init+0x30>
    2d50:	00140537          	lui	a0,0x140
    2d54:	4585                	li	a1,1
    2d56:	03050513          	addi	a0,a0,48 # 140030 <_data_lma+0x135834>
    2d5a:	b7ad                	j	2cc4 <uart_init+0x2c>
    2d5c:	04200793          	li	a5,66
    2d60:	00f49963          	bne	s1,a5,2d72 <uart_init+0xda>
    2d64:	04300793          	li	a5,67
    2d68:	f6f910e3          	bne	s2,a5,2cc8 <uart_init+0x30>
    2d6c:	4585                	li	a1,1
    2d6e:	6505                	lui	a0,0x1
    2d70:	bf91                	j	2cc4 <uart_init+0x2c>
    2d72:	05200793          	li	a5,82
    2d76:	00f49b63          	bne	s1,a5,2d8c <uart_init+0xf4>
    2d7a:	05300793          	li	a5,83
    2d7e:	f4f915e3          	bne	s2,a5,2cc8 <uart_init+0x30>
    2d82:	00200537          	lui	a0,0x200
    2d86:	4585                	li	a1,1
    2d88:	0505                	addi	a0,a0,1
    2d8a:	bf2d                	j	2cc4 <uart_init+0x2c>
    2d8c:	06200793          	li	a5,98
    2d90:	00f49c63          	bne	s1,a5,2da8 <uart_init+0x110>
    2d94:	06300793          	li	a5,99
    2d98:	f2f918e3          	bne	s2,a5,2cc8 <uart_init+0x30>
    2d9c:	80001537          	lui	a0,0x80001
    2da0:	4585                	li	a1,1
    2da2:	80050513          	addi	a0,a0,-2048 # 80000800 <_eusrstack+0x5fff0800>
    2da6:	bf39                	j	2cc4 <uart_init+0x2c>
    2da8:	07200793          	li	a5,114
    2dac:	00f49e63          	bne	s1,a5,2dc8 <uart_init+0x130>
    2db0:	07300793          	li	a5,115
    2db4:	f0f91ae3          	bne	s2,a5,2cc8 <uart_init+0x30>
    2db8:	40010737          	lui	a4,0x40010
    2dbc:	4f5c                	lw	a5,28(a4)
    2dbe:	004006b7          	lui	a3,0x400
    2dc2:	8fd5                	or	a5,a5,a3
    2dc4:	cf5c                	sw	a5,28(a4)
    2dc6:	b709                	j	2cc8 <uart_init+0x30>
    2dc8:	07400793          	li	a5,116
    2dcc:	00f49c63          	bne	s1,a5,2de4 <uart_init+0x14c>
    2dd0:	07500793          	li	a5,117
    2dd4:	eef91ae3          	bne	s2,a5,2cc8 <uart_init+0x30>
    2dd8:	40010737          	lui	a4,0x40010
    2ddc:	4f5c                	lw	a5,28(a4)
    2dde:	008006b7          	lui	a3,0x800
    2de2:	b7c5                	j	2dc2 <uart_init+0x12a>
    2de4:	08200793          	li	a5,130
    2de8:	eef490e3          	bne	s1,a5,2cc8 <uart_init+0x30>
    2dec:	08300793          	li	a5,131
    2df0:	ecf91ce3          	bne	s2,a5,2cc8 <uart_init+0x30>
    2df4:	40010737          	lui	a4,0x40010
    2df8:	4f5c                	lw	a5,28(a4)
    2dfa:	020006b7          	lui	a3,0x2000
    2dfe:	b7d1                	j	2dc2 <uart_init+0x12a>
    2e00:	4785                	li	a5,1
    2e02:	00f41863          	bne	s0,a5,2e12 <uart_init+0x17a>
    2e06:	4585                	li	a1,1
    2e08:	00020537          	lui	a0,0x20
    2e0c:	284020ef          	jal	ra,5090 <RCC_APB1PeriphClockCmd>
    2e10:	b5d1                	j	2cd4 <uart_init+0x3c>
    2e12:	4789                	li	a5,2
    2e14:	00f41663          	bne	s0,a5,2e20 <uart_init+0x188>
    2e18:	4585                	li	a1,1
    2e1a:	00040537          	lui	a0,0x40
    2e1e:	b7fd                	j	2e0c <uart_init+0x174>
    2e20:	478d                	li	a5,3
    2e22:	00f41663          	bne	s0,a5,2e2e <uart_init+0x196>
    2e26:	4585                	li	a1,1
    2e28:	00080537          	lui	a0,0x80
    2e2c:	b7c5                	j	2e0c <uart_init+0x174>
    2e2e:	4791                	li	a5,4
    2e30:	00f41663          	bne	s0,a5,2e3c <uart_init+0x1a4>
    2e34:	4585                	li	a1,1
    2e36:	00100537          	lui	a0,0x100
    2e3a:	bfc9                	j	2e0c <uart_init+0x174>
    2e3c:	4795                	li	a5,5
    2e3e:	00f41663          	bne	s0,a5,2e4a <uart_init+0x1b2>
    2e42:	4585                	li	a1,1
    2e44:	04000513          	li	a0,64
    2e48:	b7d1                	j	2e0c <uart_init+0x174>
    2e4a:	4799                	li	a5,6
    2e4c:	00f41663          	bne	s0,a5,2e58 <uart_init+0x1c0>
    2e50:	4585                	li	a1,1
    2e52:	08000513          	li	a0,128
    2e56:	bf5d                	j	2e0c <uart_init+0x174>
    2e58:	479d                	li	a5,7
    2e5a:	e6f41de3          	bne	s0,a5,2cd4 <uart_init+0x3c>
    2e5e:	4585                	li	a1,1
    2e60:	10000513          	li	a0,256
    2e64:	b765                	j	2e0c <uart_init+0x174>

00002e66 <check_bend>:
    2e66:	7139                	addi	sp,sp,-64
    2e68:	0000a7b7          	lui	a5,0xa
    2e6c:	cc62                	sw	s8,24(sp)
    2e6e:	ca66                	sw	s9,20(sp)
    2e70:	3c87ac03          	lw	s8,968(a5) # a3c8 <UARTN+0x20>
    2e74:	3cc7ac83          	lw	s9,972(a5)
    2e78:	da26                	sw	s1,52(sp)
    2e7a:	d452                	sw	s4,40(sp)
    2e7c:	d256                	sw	s5,36(sp)
    2e7e:	ce5e                	sw	s7,28(sp)
    2e80:	c86a                	sw	s10,16(sp)
    2e82:	4a01                	li	s4,0
    2e84:	4a81                	li	s5,0
    2e86:	20006bb7          	lui	s7,0x20006
    2e8a:	dc22                	sw	s0,56(sp)
    2e8c:	d84a                	sw	s2,48(sp)
    2e8e:	d64e                	sw	s3,44(sp)
    2e90:	d05a                	sw	s6,32(sp)
    2e92:	c66e                	sw	s11,12(sp)
    2e94:	de06                	sw	ra,60(sp)
    2e96:	8952                	mv	s2,s4
    2e98:	89d6                	mv	s3,s5
    2e9a:	02300413          	li	s0,35
    2e9e:	90818493          	addi	s1,gp,-1784 # 20000290 <Left_line>
    2ea2:	05e00b13          	li	s6,94
    2ea6:	b94b8b93          	addi	s7,s7,-1132 # 20005b94 <Center_line>
    2eaa:	89018d13          	addi	s10,gp,-1904 # 20000218 <Right_line>
    2eae:	05600d93          	li	s11,86
    2eb2:	009407b3          	add	a5,s0,s1
    2eb6:	0007c783          	lbu	a5,0(a5)
    2eba:	01679863          	bne	a5,s6,2eca <check_bend+0x64>
    2ebe:	01a407b3          	add	a5,s0,s10
    2ec2:	0007c783          	lbu	a5,0(a5)
    2ec6:	03678a63          	beq	a5,s6,2efa <check_bend+0x94>
    2eca:	8662                	mv	a2,s8
    2ecc:	86e6                	mv	a3,s9
    2ece:	854a                	mv	a0,s2
    2ed0:	85ce                	mv	a1,s3
    2ed2:	170030ef          	jal	ra,6042 <__adddf3>
    2ed6:	008b87b3          	add	a5,s7,s0
    2eda:	892a                	mv	s2,a0
    2edc:	0007c503          	lbu	a0,0(a5)
    2ee0:	89ae                	mv	s3,a1
    2ee2:	40ab0533          	sub	a0,s6,a0
    2ee6:	403040ef          	jal	ra,7ae8 <__floatsidf>
    2eea:	862a                	mv	a2,a0
    2eec:	86ae                	mv	a3,a1
    2eee:	8552                	mv	a0,s4
    2ef0:	85d6                	mv	a1,s5
    2ef2:	150030ef          	jal	ra,6042 <__adddf3>
    2ef6:	8a2a                	mv	s4,a0
    2ef8:	8aae                	mv	s5,a1
    2efa:	0405                	addi	s0,s0,1
    2efc:	fbb41be3          	bne	s0,s11,2eb2 <check_bend+0x4c>
    2f00:	8552                	mv	a0,s4
    2f02:	85d6                	mv	a1,s5
    2f04:	864a                	mv	a2,s2
    2f06:	86ce                	mv	a3,s3
    2f08:	06b030ef          	jal	ra,6772 <__divdf3>
    2f0c:	20006cb7          	lui	s9,0x20006
    2f10:	8a2a                	mv	s4,a0
    2f12:	8aae                	mv	s5,a1
    2f14:	4b01                	li	s6,0
    2f16:	4b81                	li	s7,0
    2f18:	02300413          	li	s0,35
    2f1c:	05e00c13          	li	s8,94
    2f20:	b94c8c93          	addi	s9,s9,-1132 # 20005b94 <Center_line>
    2f24:	89018d13          	addi	s10,gp,-1904 # 20000218 <Right_line>
    2f28:	05600d93          	li	s11,86
    2f2c:	008487b3          	add	a5,s1,s0
    2f30:	0007c783          	lbu	a5,0(a5)
    2f34:	01879863          	bne	a5,s8,2f44 <check_bend+0xde>
    2f38:	01a407b3          	add	a5,s0,s10
    2f3c:	0007c783          	lbu	a5,0(a5)
    2f40:	03878463          	beq	a5,s8,2f68 <check_bend+0x102>
    2f44:	008c87b3          	add	a5,s9,s0
    2f48:	0007c503          	lbu	a0,0(a5)
    2f4c:	40ac0533          	sub	a0,s8,a0
    2f50:	02a50533          	mul	a0,a0,a0
    2f54:	395040ef          	jal	ra,7ae8 <__floatsidf>
    2f58:	862a                	mv	a2,a0
    2f5a:	86ae                	mv	a3,a1
    2f5c:	855a                	mv	a0,s6
    2f5e:	85de                	mv	a1,s7
    2f60:	0e2030ef          	jal	ra,6042 <__adddf3>
    2f64:	8b2a                	mv	s6,a0
    2f66:	8bae                	mv	s7,a1
    2f68:	0405                	addi	s0,s0,1
    2f6a:	fdb411e3          	bne	s0,s11,2f2c <check_bend+0xc6>
    2f6e:	864a                	mv	a2,s2
    2f70:	86ce                	mv	a3,s3
    2f72:	855a                	mv	a0,s6
    2f74:	85de                	mv	a1,s7
    2f76:	7fc030ef          	jal	ra,6772 <__divdf3>
    2f7a:	842a                	mv	s0,a0
    2f7c:	84ae                	mv	s1,a1
    2f7e:	8652                	mv	a2,s4
    2f80:	86d6                	mv	a3,s5
    2f82:	8552                	mv	a0,s4
    2f84:	85d6                	mv	a1,s5
    2f86:	705030ef          	jal	ra,6e8a <__muldf3>
    2f8a:	862a                	mv	a2,a0
    2f8c:	86ae                	mv	a3,a1
    2f8e:	8522                	mv	a0,s0
    2f90:	85a6                	mv	a1,s1
    2f92:	3b0040ef          	jal	ra,7342 <__subdf3>
    2f96:	0000a7b7          	lui	a5,0xa
    2f9a:	3d07a603          	lw	a2,976(a5) # a3d0 <UARTN+0x28>
    2f9e:	3d47a683          	lw	a3,980(a5)
    2fa2:	585030ef          	jal	ra,6d26 <__gedf2>
    2fa6:	50f2                	lw	ra,60(sp)
    2fa8:	5462                	lw	s0,56(sp)
    2faa:	fff54513          	not	a0,a0
    2fae:	54d2                	lw	s1,52(sp)
    2fb0:	5942                	lw	s2,48(sp)
    2fb2:	59b2                	lw	s3,44(sp)
    2fb4:	5a22                	lw	s4,40(sp)
    2fb6:	5a92                	lw	s5,36(sp)
    2fb8:	5b02                	lw	s6,32(sp)
    2fba:	4bf2                	lw	s7,28(sp)
    2fbc:	4c62                	lw	s8,24(sp)
    2fbe:	4cd2                	lw	s9,20(sp)
    2fc0:	4d42                	lw	s10,16(sp)
    2fc2:	4db2                	lw	s11,12(sp)
    2fc4:	817d                	srli	a0,a0,0x1f
    2fc6:	6121                	addi	sp,sp,64
    2fc8:	8082                	ret

00002fca <check_rightangle_bend>:
    2fca:	7139                	addi	sp,sp,-64
    2fcc:	d84a                	sw	s2,48(sp)
    2fce:	20000937          	lui	s2,0x20000
    2fd2:	31490713          	addi	a4,s2,788 # 20000314 <Pixel>
    2fd6:	d64e                	sw	s3,44(sp)
    2fd8:	d452                	sw	s4,40(sp)
    2fda:	de06                	sw	ra,60(sp)
    2fdc:	dc22                	sw	s0,56(sp)
    2fde:	da26                	sw	s1,52(sp)
    2fe0:	d256                	sw	s5,36(sp)
    2fe2:	d05a                	sw	s6,32(sp)
    2fe4:	ce5e                	sw	s7,28(sp)
    2fe6:	cc62                	sw	s8,24(sp)
    2fe8:	ca66                	sw	s9,20(sp)
    2fea:	0bc70a13          	addi	s4,a4,188 # 400100bc <_eusrstack+0x200000bc>
    2fee:	4681                	li	a3,0
    2ff0:	31490993          	addi	s3,s2,788
    2ff4:	0bc00593          	li	a1,188
    2ff8:	557d                	li	a0,-1
    2ffa:	03b00813          	li	a6,59
    2ffe:	07700793          	li	a5,119
    3002:	a021                	j	300a <check_rightangle_bend+0x40>
    3004:	17fd                	addi	a5,a5,-1
    3006:	00a78d63          	beq	a5,a0,3020 <check_rightangle_bend+0x56>
    300a:	02b78633          	mul	a2,a5,a1
    300e:	963a                	add	a2,a2,a4
    3010:	00064603          	lbu	a2,0(a2)
    3014:	fa65                	bnez	a2,3004 <check_rightangle_bend+0x3a>
    3016:	fc478793          	addi	a5,a5,-60
    301a:	00f86363          	bltu	a6,a5,3020 <check_rightangle_bend+0x56>
    301e:	0685                	addi	a3,a3,1
    3020:	0705                	addi	a4,a4,1
    3022:	fd471ee3          	bne	a4,s4,2ffe <check_rightangle_bend+0x34>
    3026:	0b300793          	li	a5,179
    302a:	00d7d963          	bge	a5,a3,303c <check_rightangle_bend+0x72>
    302e:	8801c783          	lbu	a5,-1920(gp) # 20000208 <rightangle_flag>
    3032:	4505                	li	a0,1
    3034:	0785                	addi	a5,a5,1
    3036:	88f18023          	sb	a5,-1920(gp) # 20000208 <rightangle_flag>
    303a:	a87d                	j	30f8 <check_rightangle_bend+0x12e>
    303c:	0000a7b7          	lui	a5,0xa
    3040:	3d87aa83          	lw	s5,984(a5) # a3d8 <UARTN+0x30>
    3044:	3dc7ab03          	lw	s6,988(a5)
    3048:	90818913          	addi	s2,gp,-1784 # 20000290 <Left_line>
    304c:	07700413          	li	s0,119
    3050:	90818493          	addi	s1,gp,-1784 # 20000290 <Left_line>
    3054:	07794503          	lbu	a0,119(s2)
    3058:	fff40b93          	addi	s7,s0,-1
    305c:	197d                	addi	s2,s2,-1
    305e:	2fd040ef          	jal	ra,7b5a <__floatunsidf>
    3062:	c42a                	sw	a0,8(sp)
    3064:	07794503          	lbu	a0,119(s2)
    3068:	c62e                	sw	a1,12(sp)
    306a:	2f1040ef          	jal	ra,7b5a <__floatunsidf>
    306e:	4622                	lw	a2,8(sp)
    3070:	46b2                	lw	a3,12(sp)
    3072:	222010ef          	jal	ra,4294 <Abs>
    3076:	8656                	mv	a2,s5
    3078:	86da                	mv	a3,s6
    307a:	4ad030ef          	jal	ra,6d26 <__gedf2>
    307e:	08054a63          	bltz	a0,3112 <check_rightangle_bend+0x148>
    3082:	ff640793          	addi	a5,s0,-10
    3086:	02d00713          	li	a4,45
    308a:	08f76a63          	bltu	a4,a5,311e <check_rightangle_bend+0x154>
    308e:	008487b3          	add	a5,s1,s0
    3092:	0007c903          	lbu	s2,0(a5)
    3096:	05e00793          	li	a5,94
    309a:	0927e263          	bltu	a5,s2,311e <check_rightangle_bend+0x154>
    309e:	89018793          	addi	a5,gp,-1904 # 20000218 <Right_line>
    30a2:	97a2                	add	a5,a5,s0
    30a4:	00f7c703          	lbu	a4,15(a5)
    30a8:	0bb00793          	li	a5,187
    30ac:	06f71963          	bne	a4,a5,311e <check_rightangle_bend+0x154>
    30b0:	994e                	add	s2,s2,s3
    30b2:	4b81                	li	s7,0
    30b4:	0bc00c13          	li	s8,188
    30b8:	5cfd                	li	s9,-1
    30ba:	00540993          	addi	s3,s0,5
    30be:	038987b3          	mul	a5,s3,s8
    30c2:	97ca                	add	a5,a5,s2
    30c4:	0007c783          	lbu	a5,0(a5)
    30c8:	e7b9                	bnez	a5,3116 <check_rightangle_bend+0x14c>
    30ca:	854e                	mv	a0,s3
    30cc:	21d040ef          	jal	ra,7ae8 <__floatsidf>
    30d0:	c42a                	sw	a0,8(sp)
    30d2:	8522                	mv	a0,s0
    30d4:	c62e                	sw	a1,12(sp)
    30d6:	213040ef          	jal	ra,7ae8 <__floatsidf>
    30da:	4622                	lw	a2,8(sp)
    30dc:	46b2                	lw	a3,12(sp)
    30de:	1b6010ef          	jal	ra,4294 <Abs>
    30e2:	8656                	mv	a2,s5
    30e4:	86da                	mv	a3,s6
    30e6:	4ef030ef          	jal	ra,6dd4 <__ledf2>
    30ea:	02a04663          	bgtz	a0,3116 <check_rightangle_bend+0x14c>
    30ee:	0b85                	addi	s7,s7,1
    30f0:	0905                	addi	s2,s2,1
    30f2:	fd4914e3          	bne	s2,s4,30ba <check_rightangle_bend+0xf0>
    30f6:	4509                	li	a0,2
    30f8:	50f2                	lw	ra,60(sp)
    30fa:	5462                	lw	s0,56(sp)
    30fc:	54d2                	lw	s1,52(sp)
    30fe:	5942                	lw	s2,48(sp)
    3100:	59b2                	lw	s3,44(sp)
    3102:	5a22                	lw	s4,40(sp)
    3104:	5a92                	lw	s5,36(sp)
    3106:	5b02                	lw	s6,32(sp)
    3108:	4bf2                	lw	s7,28(sp)
    310a:	4c62                	lw	s8,24(sp)
    310c:	4cd2                	lw	s9,20(sp)
    310e:	6121                	addi	sp,sp,64
    3110:	8082                	ret
    3112:	845e                	mv	s0,s7
    3114:	b781                	j	3054 <check_rightangle_bend+0x8a>
    3116:	19fd                	addi	s3,s3,-1
    3118:	fb9993e3          	bne	s3,s9,30be <check_rightangle_bend+0xf4>
    311c:	bfd1                	j	30f0 <check_rightangle_bend+0x126>
    311e:	03600793          	li	a5,54
    3122:	4501                	li	a0,0
    3124:	fc87dae3          	bge	a5,s0,30f8 <check_rightangle_bend+0x12e>
    3128:	94a2                	add	s1,s1,s0
    312a:	0004c703          	lbu	a4,0(s1)
    312e:	05000793          	li	a5,80
    3132:	fce7e3e3          	bltu	a5,a4,30f8 <check_rightangle_bend+0x12e>
    3136:	0bc00793          	li	a5,188
    313a:	146d                	addi	s0,s0,-5
    313c:	02f40433          	mul	s0,s0,a5
    3140:	4701                	li	a4,0
    3142:	4781                	li	a5,0
    3144:	0bc00613          	li	a2,188
    3148:	008786b3          	add	a3,a5,s0
    314c:	96ce                	add	a3,a3,s3
    314e:	0006c683          	lbu	a3,0(a3) # 2000000 <_data_lma+0x1ff5804>
    3152:	e291                	bnez	a3,3156 <check_rightangle_bend+0x18c>
    3154:	0705                	addi	a4,a4,1
    3156:	0785                	addi	a5,a5,1
    3158:	fec798e3          	bne	a5,a2,3148 <check_rightangle_bend+0x17e>
    315c:	0a900793          	li	a5,169
    3160:	4501                	li	a0,0
    3162:	f8e7dbe3          	bge	a5,a4,30f8 <check_rightangle_bend+0x12e>
    3166:	b5e1                	j	302e <check_rightangle_bend+0x64>

00003168 <correct_bend_error>:
    3168:	200066b7          	lui	a3,0x20006
    316c:	b9468693          	addi	a3,a3,-1132 # 20005b94 <Center_line>
    3170:	05a6c703          	lbu	a4,90(a3)
    3174:	05e00793          	li	a5,94
    3178:	04e7f563          	bgeu	a5,a4,31c2 <correct_bend_error+0x5a>
    317c:	89018793          	addi	a5,gp,-1904 # 20000218 <Right_line>
    3180:	05a7c703          	lbu	a4,90(a5)
    3184:	0bb00613          	li	a2,187
    3188:	02c71c63          	bne	a4,a2,31c0 <correct_bend_error+0x58>
    318c:	05c7c603          	lbu	a2,92(a5)
    3190:	02e61863          	bne	a2,a4,31c0 <correct_bend_error+0x58>
    3194:	05e7c703          	lbu	a4,94(a5)
    3198:	02c71463          	bne	a4,a2,31c0 <correct_bend_error+0x58>
    319c:	0587c783          	lbu	a5,88(a5)
    31a0:	02e79063          	bne	a5,a4,31c0 <correct_bend_error+0x58>
    31a4:	90818713          	addi	a4,gp,-1784 # 20000290 <Left_line>
    31a8:	05a74603          	lbu	a2,90(a4)
    31ac:	07574703          	lbu	a4,117(a4)
    31b0:	8f99                	sub	a5,a5,a4
    31b2:	97b2                	add	a5,a5,a2
    31b4:	97b2                	add	a5,a5,a2
    31b6:	4709                	li	a4,2
    31b8:	02e7c7b3          	div	a5,a5,a4
    31bc:	04f68d23          	sb	a5,90(a3)
    31c0:	8082                	ret
    31c2:	fef70fe3          	beq	a4,a5,31c0 <correct_bend_error+0x58>
    31c6:	90818713          	addi	a4,gp,-1784 # 20000290 <Left_line>
    31ca:	05c74603          	lbu	a2,92(a4)
    31ce:	05a74783          	lbu	a5,90(a4)
    31d2:	8fd1                	or	a5,a5,a2
    31d4:	05e74603          	lbu	a2,94(a4)
    31d8:	05874703          	lbu	a4,88(a4)
    31dc:	8fd1                	or	a5,a5,a2
    31de:	8fd9                	or	a5,a5,a4
    31e0:	f3e5                	bnez	a5,31c0 <correct_bend_error+0x58>
    31e2:	89018713          	addi	a4,gp,-1904 # 20000218 <Right_line>
    31e6:	05a74603          	lbu	a2,90(a4)
    31ea:	07574783          	lbu	a5,117(a4)
    31ee:	40f607b3          	sub	a5,a2,a5
    31f2:	b7c9                	j	31b4 <correct_bend_error+0x4c>

000031f4 <check_three>:
    31f4:	8881a603          	lw	a2,-1912(gp) # 20000210 <num_white>
    31f8:	1141                	addi	sp,sp,-16
    31fa:	200067b7          	lui	a5,0x20006
    31fe:	200066b7          	lui	a3,0x20006
    3202:	c606                	sw	ra,12(sp)
    3204:	c422                	sw	s0,8(sp)
    3206:	c226                	sw	s1,4(sp)
    3208:	c0078623          	sb	zero,-1012(a5) # 20005c0c <CX>
    320c:	b40680a3          	sb	zero,-1215(a3) # 20005b41 <CY>
    3210:	4775                	li	a4,29
    3212:	06c75663          	bge	a4,a2,327e <check_three+0x8a>
    3216:	20006737          	lui	a4,0x20006
    321a:	b5474603          	lbu	a2,-1196(a4) # 20005b54 <white_line>
    321e:	06e00713          	li	a4,110
    3222:	04e61e63          	bne	a2,a4,327e <check_three+0x8a>
    3226:	20000637          	lui	a2,0x20000
    322a:	33260613          	addi	a2,a2,818 # 20000332 <Pixel+0x1e>
    322e:	4881                	li	a7,0
    3230:	4801                	li	a6,0
    3232:	4581                	li	a1,0
    3234:	4579                	li	a0,30
    3236:	0bc00e93          	li	t4,188
    323a:	5f7d                	li	t5,-1
    323c:	09700e13          	li	t3,151
    3240:	07700713          	li	a4,119
    3244:	a831                	j	3260 <check_three+0x6c>
    3246:	0ff57893          	andi	a7,a0,255
    324a:	0ff77593          	andi	a1,a4,255
    324e:	4805                	li	a6,1
    3250:	0505                	addi	a0,a0,1
    3252:	0605                	addi	a2,a2,1
    3254:	ffc516e3          	bne	a0,t3,3240 <check_three+0x4c>
    3258:	a829                	j	3272 <check_three+0x7e>
    325a:	177d                	addi	a4,a4,-1
    325c:	ffe70ae3          	beq	a4,t5,3250 <check_three+0x5c>
    3260:	03d70333          	mul	t1,a4,t4
    3264:	9332                	add	t1,t1,a2
    3266:	00034303          	lbu	t1,0(t1)
    326a:	fe0318e3          	bnez	t1,325a <check_three+0x66>
    326e:	fcb75ce3          	bge	a4,a1,3246 <check_three+0x52>
    3272:	00080663          	beqz	a6,327e <check_three+0x8a>
    3276:	b4b680a3          	sb	a1,-1215(a3)
    327a:	c1178623          	sb	a7,-1012(a5)
    327e:	200006b7          	lui	a3,0x20000
    3282:	4401                	li	s0,0
    3284:	05000713          	li	a4,80
    3288:	31468693          	addi	a3,a3,788 # 20000314 <Pixel>
    328c:	06400613          	li	a2,100
    3290:	00d705b3          	add	a1,a4,a3
    3294:	0005c583          	lbu	a1,0(a1)
    3298:	e191                	bnez	a1,329c <check_three+0xa8>
    329a:	0405                	addi	s0,s0,1
    329c:	0705                	addi	a4,a4,1
    329e:	fec719e3          	bne	a4,a2,3290 <check_three+0x9c>
    32a2:	c0c7c503          	lbu	a0,-1012(a5)
    32a6:	0000a4b7          	lui	s1,0xa
    32aa:	0b1040ef          	jal	ra,7b5a <__floatunsidf>
    32ae:	3e04a603          	lw	a2,992(s1) # a3e0 <UARTN+0x38>
    32b2:	3e44a683          	lw	a3,996(s1)
    32b6:	7df000ef          	jal	ra,4294 <Abs>
    32ba:	0000a7b7          	lui	a5,0xa
    32be:	3e87a603          	lw	a2,1000(a5) # a3e8 <UARTN+0x40>
    32c2:	3ec7a683          	lw	a3,1004(a5)
    32c6:	30f030ef          	jal	ra,6dd4 <__ledf2>
    32ca:	02a04363          	bgtz	a0,32f0 <check_three+0xfc>
    32ce:	47b9                	li	a5,14
    32d0:	4501                	li	a0,0
    32d2:	0087da63          	bge	a5,s0,32e6 <check_three+0xf2>
    32d6:	20006737          	lui	a4,0x20006
    32da:	b5074783          	lbu	a5,-1200(a4) # 20005b50 <triangle_flag>
    32de:	4505                	li	a0,1
    32e0:	0785                	addi	a5,a5,1
    32e2:	b4f70823          	sb	a5,-1200(a4)
    32e6:	40b2                	lw	ra,12(sp)
    32e8:	4422                	lw	s0,8(sp)
    32ea:	4492                	lw	s1,4(sp)
    32ec:	0141                	addi	sp,sp,16
    32ee:	8082                	ret
    32f0:	4501                	li	a0,0
    32f2:	bfd5                	j	32e6 <check_three+0xf2>

000032f4 <correct_three>:
    32f4:	200067b7          	lui	a5,0x20006
    32f8:	b507c783          	lbu	a5,-1200(a5) # 20005b50 <triangle_flag>
    32fc:	1e078a63          	beqz	a5,34f0 <correct_three+0x1fc>
    3300:	7139                	addi	sp,sp,-64
    3302:	de06                	sw	ra,60(sp)
    3304:	dc22                	sw	s0,56(sp)
    3306:	da26                	sw	s1,52(sp)
    3308:	d84a                	sw	s2,48(sp)
    330a:	d64e                	sw	s3,44(sp)
    330c:	d452                	sw	s4,40(sp)
    330e:	d256                	sw	s5,36(sp)
    3310:	d05a                	sw	s6,32(sp)
    3312:	ce5e                	sw	s7,28(sp)
    3314:	cc62                	sw	s8,24(sp)
    3316:	ca66                	sw	s9,20(sp)
    3318:	c86a                	sw	s10,16(sp)
    331a:	c66e                	sw	s11,12(sp)
    331c:	0e051f63          	bnez	a0,341a <correct_three+0x126>
    3320:	20006437          	lui	s0,0x20006
    3324:	b4144503          	lbu	a0,-1215(s0) # 20005b41 <CY>
    3328:	200064b7          	lui	s1,0x20006
    332c:	20006a37          	lui	s4,0x20006
    3330:	02b040ef          	jal	ra,7b5a <__floatunsidf>
    3334:	0000a7b7          	lui	a5,0xa
    3338:	862a                	mv	a2,a0
    333a:	86ae                	mv	a3,a1
    333c:	3f07a503          	lw	a0,1008(a5) # a3f0 <UARTN+0x48>
    3340:	3f47a583          	lw	a1,1012(a5)
    3344:	20000bb7          	lui	s7,0x20000
    3348:	74d000ef          	jal	ra,4294 <Abs>
    334c:	892a                	mv	s2,a0
    334e:	c0c4c503          	lbu	a0,-1012(s1) # 20005c0c <CX>
    3352:	89ae                	mv	s3,a1
    3354:	07700d93          	li	s11,119
    3358:	003040ef          	jal	ra,7b5a <__floatunsidf>
    335c:	0000a7b7          	lui	a5,0xa
    3360:	862a                	mv	a2,a0
    3362:	86ae                	mv	a3,a1
    3364:	3f87a503          	lw	a0,1016(a5) # a3f8 <UARTN+0x50>
    3368:	3fc7a583          	lw	a1,1020(a5)
    336c:	b94a0a13          	addi	s4,s4,-1132 # 20005b94 <Center_line>
    3370:	90818b13          	addi	s6,gp,-1784 # 20000290 <Left_line>
    3374:	721000ef          	jal	ra,4294 <Abs>
    3378:	862a                	mv	a2,a0
    337a:	86ae                	mv	a3,a1
    337c:	854a                	mv	a0,s2
    337e:	85ce                	mv	a1,s3
    3380:	3f2030ef          	jal	ra,6772 <__divdf3>
    3384:	b4144d03          	lbu	s10,-1215(s0)
    3388:	c0c4ca83          	lbu	s5,-1012(s1)
    338c:	892a                	mv	s2,a0
    338e:	89ae                	mv	s3,a1
    3390:	846a                	mv	s0,s10
    3392:	89018493          	addi	s1,gp,-1904 # 20000218 <Right_line>
    3396:	314b8b93          	addi	s7,s7,788 # 20000314 <Pixel>
    339a:	028df163          	bgeu	s11,s0,33bc <correct_three+0xc8>
    339e:	50f2                	lw	ra,60(sp)
    33a0:	5462                	lw	s0,56(sp)
    33a2:	54d2                	lw	s1,52(sp)
    33a4:	5942                	lw	s2,48(sp)
    33a6:	59b2                	lw	s3,44(sp)
    33a8:	5a22                	lw	s4,40(sp)
    33aa:	5a92                	lw	s5,36(sp)
    33ac:	5b02                	lw	s6,32(sp)
    33ae:	4bf2                	lw	s7,28(sp)
    33b0:	4c62                	lw	s8,24(sp)
    33b2:	4cd2                	lw	s9,20(sp)
    33b4:	4d42                	lw	s10,16(sp)
    33b6:	4db2                	lw	s11,12(sp)
    33b8:	6121                	addi	sp,sp,64
    33ba:	8082                	ret
    33bc:	41a40533          	sub	a0,s0,s10
    33c0:	728040ef          	jal	ra,7ae8 <__floatsidf>
    33c4:	864a                	mv	a2,s2
    33c6:	86ce                	mv	a3,s3
    33c8:	3aa030ef          	jal	ra,6772 <__divdf3>
    33cc:	8c2a                	mv	s8,a0
    33ce:	8556                	mv	a0,s5
    33d0:	8cae                	mv	s9,a1
    33d2:	716040ef          	jal	ra,7ae8 <__floatsidf>
    33d6:	862a                	mv	a2,a0
    33d8:	86ae                	mv	a3,a1
    33da:	8562                	mv	a0,s8
    33dc:	85e6                	mv	a1,s9
    33de:	465020ef          	jal	ra,6042 <__adddf3>
    33e2:	69e040ef          	jal	ra,7a80 <__fixdfsi>
    33e6:	01640733          	add	a4,s0,s6
    33ea:	00074703          	lbu	a4,0(a4)
    33ee:	4809                	li	a6,2
    33f0:	009407b3          	add	a5,s0,s1
    33f4:	972a                	add	a4,a4,a0
    33f6:	03074733          	div	a4,a4,a6
    33fa:	00a78023          	sb	a0,0(a5)
    33fe:	0bc00893          	li	a7,188
    3402:	014407b3          	add	a5,s0,s4
    3406:	00e78023          	sb	a4,0(a5)
    340a:	031407b3          	mul	a5,s0,a7
    340e:	0405                	addi	s0,s0,1
    3410:	97de                	add	a5,a5,s7
    3412:	97aa                	add	a5,a5,a0
    3414:	00078023          	sb	zero,0(a5)
    3418:	b749                	j	339a <correct_three+0xa6>
    341a:	4785                	li	a5,1
    341c:	f8f511e3          	bne	a0,a5,339e <correct_three+0xaa>
    3420:	20006437          	lui	s0,0x20006
    3424:	b4144503          	lbu	a0,-1215(s0) # 20005b41 <CY>
    3428:	200064b7          	lui	s1,0x20006
    342c:	20006a37          	lui	s4,0x20006
    3430:	72a040ef          	jal	ra,7b5a <__floatunsidf>
    3434:	0000a7b7          	lui	a5,0xa
    3438:	862a                	mv	a2,a0
    343a:	86ae                	mv	a3,a1
    343c:	3f07a503          	lw	a0,1008(a5) # a3f0 <UARTN+0x48>
    3440:	3f47a583          	lw	a1,1012(a5)
    3444:	20000bb7          	lui	s7,0x20000
    3448:	64d000ef          	jal	ra,4294 <Abs>
    344c:	892a                	mv	s2,a0
    344e:	c0c4c503          	lbu	a0,-1012(s1) # 20005c0c <CX>
    3452:	89ae                	mv	s3,a1
    3454:	07700d13          	li	s10,119
    3458:	702040ef          	jal	ra,7b5a <__floatunsidf>
    345c:	4601                	li	a2,0
    345e:	4681                	li	a3,0
    3460:	635000ef          	jal	ra,4294 <Abs>
    3464:	862a                	mv	a2,a0
    3466:	86ae                	mv	a3,a1
    3468:	854a                	mv	a0,s2
    346a:	85ce                	mv	a1,s3
    346c:	306030ef          	jal	ra,6772 <__divdf3>
    3470:	b4144a83          	lbu	s5,-1215(s0)
    3474:	c0c4cd83          	lbu	s11,-1012(s1)
    3478:	892a                	mv	s2,a0
    347a:	89ae                	mv	s3,a1
    347c:	8456                	mv	s0,s5
    347e:	90818493          	addi	s1,gp,-1784 # 20000290 <Left_line>
    3482:	b94a0a13          	addi	s4,s4,-1132 # 20005b94 <Center_line>
    3486:	89018b13          	addi	s6,gp,-1904 # 20000218 <Right_line>
    348a:	314b8b93          	addi	s7,s7,788 # 20000314 <Pixel>
    348e:	f08d68e3          	bltu	s10,s0,339e <correct_three+0xaa>
    3492:	856e                	mv	a0,s11
    3494:	654040ef          	jal	ra,7ae8 <__floatsidf>
    3498:	8c2a                	mv	s8,a0
    349a:	41540533          	sub	a0,s0,s5
    349e:	8cae                	mv	s9,a1
    34a0:	648040ef          	jal	ra,7ae8 <__floatsidf>
    34a4:	864a                	mv	a2,s2
    34a6:	86ce                	mv	a3,s3
    34a8:	2ca030ef          	jal	ra,6772 <__divdf3>
    34ac:	862a                	mv	a2,a0
    34ae:	86ae                	mv	a3,a1
    34b0:	8562                	mv	a0,s8
    34b2:	85e6                	mv	a1,s9
    34b4:	68f030ef          	jal	ra,7342 <__subdf3>
    34b8:	5c8040ef          	jal	ra,7a80 <__fixdfsi>
    34bc:	01640733          	add	a4,s0,s6
    34c0:	00074703          	lbu	a4,0(a4)
    34c4:	4809                	li	a6,2
    34c6:	009407b3          	add	a5,s0,s1
    34ca:	972a                	add	a4,a4,a0
    34cc:	03074733          	div	a4,a4,a6
    34d0:	00a78023          	sb	a0,0(a5)
    34d4:	0bc00893          	li	a7,188
    34d8:	014407b3          	add	a5,s0,s4
    34dc:	00e78023          	sb	a4,0(a5)
    34e0:	031407b3          	mul	a5,s0,a7
    34e4:	0405                	addi	s0,s0,1
    34e6:	97de                	add	a5,a5,s7
    34e8:	97aa                	add	a5,a5,a0
    34ea:	00078023          	sb	zero,0(a5)
    34ee:	b745                	j	348e <correct_three+0x19a>
    34f0:	8082                	ret

000034f2 <check_black_white_line>:
    34f2:	20000737          	lui	a4,0x20000
    34f6:	4679                	li	a2,30
    34f8:	31470713          	addi	a4,a4,788 # 20000314 <Pixel>
    34fc:	0bc00513          	li	a0,188
    3500:	0bb00813          	li	a6,187
    3504:	48b9                	li	a7,14
    3506:	07800313          	li	t1,120
    350a:	02a607b3          	mul	a5,a2,a0
    350e:	4681                	li	a3,0
    3510:	4581                	li	a1,0
    3512:	97ba                	add	a5,a5,a4
    3514:	0007ce83          	lbu	t4,0(a5)
    3518:	0017ce03          	lbu	t3,1(a5)
    351c:	0585                	addi	a1,a1,1
    351e:	01ce8363          	beq	t4,t3,3524 <check_black_white_line+0x32>
    3522:	0685                	addi	a3,a3,1
    3524:	0785                	addi	a5,a5,1
    3526:	ff0597e3          	bne	a1,a6,3514 <check_black_white_line+0x22>
    352a:	06d8d663          	bge	a7,a3,3596 <check_black_white_line+0xa4>
    352e:	200066b7          	lui	a3,0x20006
    3532:	b446c783          	lbu	a5,-1212(a3) # 20005b44 <black_white_first>
    3536:	0785                	addi	a5,a5,1
    3538:	b4f68223          	sb	a5,-1212(a3)
    353c:	200067b7          	lui	a5,0x20006
    3540:	b447c683          	lbu	a3,-1212(a5) # 20005b44 <black_white_first>
    3544:	4785                	li	a5,1
    3546:	00f69963          	bne	a3,a5,3558 <check_black_white_line+0x66>
    354a:	200066b7          	lui	a3,0x20006
    354e:	b356c783          	lbu	a5,-1227(a3) # 20005b35 <black_white_flag>
    3552:	0785                	addi	a5,a5,1
    3554:	b2f68aa3          	sb	a5,-1227(a3)
    3558:	200067b7          	lui	a5,0x20006
    355c:	b357c783          	lbu	a5,-1227(a5) # 20005b35 <black_white_flag>
    3560:	4689                	li	a3,2
    3562:	06d79263          	bne	a5,a3,35c6 <check_black_white_line+0xd4>
    3566:	6699                	lui	a3,0x6
    3568:	200067b7          	lui	a5,0x20006
    356c:	81f68693          	addi	a3,a3,-2017 # 581f <OTG_FS_IRQHandler+0x19>
    3570:	a7878793          	addi	a5,a5,-1416 # 20005a78 <__global_pointer$+0x50f0>
    3574:	9736                	add	a4,a4,a3
    3576:	4501                	li	a0,0
    3578:	0007c603          	lbu	a2,0(a5)
    357c:	0017c683          	lbu	a3,1(a5)
    3580:	00d60363          	beq	a2,a3,3586 <check_black_white_line+0x94>
    3584:	0505                	addi	a0,a0,1
    3586:	0785                	addi	a5,a5,1
    3588:	fee798e3          	bne	a5,a4,3578 <check_black_white_line+0x86>
    358c:	00a52513          	slti	a0,a0,10
    3590:	00154513          	xori	a0,a0,1
    3594:	8082                	ret
    3596:	0605                	addi	a2,a2,1
    3598:	f66619e3          	bne	a2,t1,350a <check_black_white_line+0x18>
    359c:	200067b7          	lui	a5,0x20006
    35a0:	b357c603          	lbu	a2,-1227(a5) # 20005b35 <black_white_flag>
    35a4:	47a5                	li	a5,9
    35a6:	f8d7cbe3          	blt	a5,a3,353c <check_black_white_line+0x4a>
    35aa:	4791                	li	a5,4
    35ac:	fad7c6e3          	blt	a5,a3,3558 <check_black_white_line+0x66>
    35b0:	4785                	li	a5,1
    35b2:	faf613e3          	bne	a2,a5,3558 <check_black_white_line+0x66>
    35b6:	200067b7          	lui	a5,0x20006
    35ba:	b447c683          	lbu	a3,-1212(a5) # 20005b44 <black_white_first>
    35be:	dec9                	beqz	a3,3558 <check_black_white_line+0x66>
    35c0:	b4078223          	sb	zero,-1212(a5)
    35c4:	bf51                	j	3558 <check_black_white_line+0x66>
    35c6:	4705                	li	a4,1
    35c8:	4501                	li	a0,0
    35ca:	00e79963          	bne	a5,a4,35dc <check_black_white_line+0xea>
    35ce:	200067b7          	lui	a5,0x20006
    35d2:	b447c503          	lbu	a0,-1212(a5) # 20005b44 <black_white_first>
    35d6:	157d                	addi	a0,a0,-1
    35d8:	00153513          	seqz	a0,a0
    35dc:	8082                	ret

000035de <road_type>:
    35de:	8811c703          	lbu	a4,-1919(gp) # 20000209 <Cross_status>
    35e2:	ef5d                	bnez	a4,36a0 <road_type+0xc2>
    35e4:	1141                	addi	sp,sp,-16
    35e6:	c04a                	sw	s2,0(sp)
    35e8:	c606                	sw	ra,12(sp)
    35ea:	c422                	sw	s0,8(sp)
    35ec:	c226                	sw	s1,4(sp)
    35ee:	893e                	mv	s2,a5
    35f0:	c05ff0ef          	jal	ra,31f4 <check_three>
    35f4:	c115                	beqz	a0,3618 <road_type+0x3a>
    35f6:	87c1a703          	lw	a4,-1924(gp) # 20000204 <flagLED>
    35fa:	e709                	bnez	a4,3604 <road_type+0x26>
    35fc:	06500713          	li	a4,101
    3600:	86e1ae23          	sw	a4,-1924(gp) # 20000204 <flagLED>
    3604:	200067b7          	lui	a5,0x20006
    3608:	b427c503          	lbu	a0,-1214(a5) # 20005b42 <triangle_turn>
    360c:	ce9ff0ef          	jal	ra,32f4 <correct_three>
    3610:	4705                	li	a4,1
    3612:	86e1a223          	sw	a4,-1948(gp) # 200001ec <flag>
    3616:	a809                	j	3628 <road_type+0x4a>
    3618:	9b3ff0ef          	jal	ra,2fca <check_rightangle_bend>
    361c:	c10d                	beqz	a0,363e <road_type+0x60>
    361e:	4789                	li	a5,2
    3620:	00f51a63          	bne	a0,a5,3634 <road_type+0x56>
    3624:	8601a223          	sw	zero,-1948(gp) # 200001ec <flag>
    3628:	40b2                	lw	ra,12(sp)
    362a:	4422                	lw	s0,8(sp)
    362c:	4492                	lw	s1,4(sp)
    362e:	4902                	lw	s2,0(sp)
    3630:	0141                	addi	sp,sp,16
    3632:	8082                	ret
    3634:	4785                	li	a5,1
    3636:	fef519e3          	bne	a0,a5,3628 <road_type+0x4a>
    363a:	4711                	li	a4,4
    363c:	bfd9                	j	3612 <road_type+0x34>
    363e:	200064b7          	lui	s1,0x20006
    3642:	b354c783          	lbu	a5,-1227(s1) # 20005b35 <black_white_flag>
    3646:	4409                	li	s0,2
    3648:	00f46e63          	bltu	s0,a5,3664 <road_type+0x86>
    364c:	ea7ff0ef          	jal	ra,34f2 <check_black_white_line>
    3650:	c911                	beqz	a0,3664 <road_type+0x86>
    3652:	b354c783          	lbu	a5,-1227(s1)
    3656:	4705                	li	a4,1
    3658:	fce786e3          	beq	a5,a4,3624 <road_type+0x46>
    365c:	fc8796e3          	bne	a5,s0,3628 <road_type+0x4a>
    3660:	4719                	li	a4,6
    3662:	bf45                	j	3612 <road_type+0x34>
    3664:	200067b7          	lui	a5,0x20006
    3668:	b467c783          	lbu	a5,-1210(a5) # 20005b46 <entered_Cross>
    366c:	e39d                	bnez	a5,3692 <road_type+0xb4>
    366e:	8881a503          	lw	a0,-1912(gp) # 20000210 <num_white>
    3672:	200067b7          	lui	a5,0x20006
    3676:	b5478793          	addi	a5,a5,-1196 # 20005b54 <white_line>
    367a:	97aa                	add	a5,a5,a0
    367c:	fff7c583          	lbu	a1,-1(a5)
    3680:	2a49                	jal	3812 <check_cross_road_out>
    3682:	c901                	beqz	a0,3692 <road_type+0xb4>
    3684:	4789                	li	a5,2
    3686:	86f1a223          	sw	a5,-1948(gp) # 200001ec <flag>
    368a:	4785                	li	a5,1
    368c:	88f180a3          	sb	a5,-1919(gp) # 20000209 <Cross_status>
    3690:	bf61                	j	3628 <road_type+0x4a>
    3692:	fd4ff0ef          	jal	ra,2e66 <check_bend>
    3696:	d559                	beqz	a0,3624 <road_type+0x46>
    3698:	4785                	li	a5,1
    369a:	86f1a223          	sw	a5,-1948(gp) # 200001ec <flag>
    369e:	b769                	j	3628 <road_type+0x4a>
    36a0:	8082                	ret

000036a2 <seek_vary_pot>:
    36a2:	715d                	addi	sp,sp,-80
    36a4:	0000a7b7          	lui	a5,0xa
    36a8:	c4a2                	sw	s0,72(sp)
    36aa:	d85a                	sw	s6,48(sp)
    36ac:	d65e                	sw	s7,44(sp)
    36ae:	4107ab03          	lw	s6,1040(a5) # a410 <UARTN+0x68>
    36b2:	4147ab83          	lw	s7,1044(a5)
    36b6:	90818413          	addi	s0,gp,-1784 # 20000290 <Left_line>
    36ba:	c2a6                	sw	s1,68(sp)
    36bc:	c0ca                	sw	s2,64(sp)
    36be:	de4e                	sw	s3,60(sp)
    36c0:	da56                	sw	s5,52(sp)
    36c2:	d462                	sw	s8,40(sp)
    36c4:	d266                	sw	s9,36(sp)
    36c6:	c686                	sw	ra,76(sp)
    36c8:	dc52                	sw	s4,56(sp)
    36ca:	d06a                	sw	s10,32(sp)
    36cc:	ce6e                	sw	s11,28(sp)
    36ce:	84aa                	mv	s1,a0
    36d0:	942a                	add	s0,s0,a0
    36d2:	4905                	li	s2,1
    36d4:	ffa50993          	addi	s3,a0,-6 # ffffa <_data_lma+0xf57fe>
    36d8:	4aa9                	li	s5,10
    36da:	4c51                	li	s8,20
    36dc:	4cf9                	li	s9,30
    36de:	07395463          	bge	s2,s3,3746 <seek_vary_pot+0xa4>
    36e2:	fff44a03          	lbu	s4,-1(s0)
    36e6:	120a0063          	beqz	s4,3806 <seek_vary_pot+0x164>
    36ea:	ffd44783          	lbu	a5,-3(s0)
    36ee:	40fa07b3          	sub	a5,s4,a5
    36f2:	0795                	addi	a5,a5,5
    36f4:	10fae963          	bltu	s5,a5,3806 <seek_vary_pot+0x164>
    36f8:	ffb44783          	lbu	a5,-5(s0)
    36fc:	40fa07b3          	sub	a5,s4,a5
    3700:	07a9                	addi	a5,a5,10
    3702:	10fc6263          	bltu	s8,a5,3806 <seek_vary_pot+0x164>
    3706:	ff944783          	lbu	a5,-7(s0)
    370a:	40fa07b3          	sub	a5,s4,a5
    370e:	07bd                	addi	a5,a5,15
    3710:	0efceb63          	bltu	s9,a5,3806 <seek_vary_pot+0x164>
    3714:	00344503          	lbu	a0,3(s0)
    3718:	442040ef          	jal	ra,7b5a <__floatunsidf>
    371c:	c42a                	sw	a0,8(sp)
    371e:	8552                	mv	a0,s4
    3720:	c62e                	sw	a1,12(sp)
    3722:	438040ef          	jal	ra,7b5a <__floatunsidf>
    3726:	4622                	lw	a2,8(sp)
    3728:	46b2                	lw	a3,12(sp)
    372a:	36b000ef          	jal	ra,4294 <Abs>
    372e:	865a                	mv	a2,s6
    3730:	86de                	mv	a3,s7
    3732:	5f4030ef          	jal	ra,6d26 <__gedf2>
    3736:	0c054863          	bltz	a0,3806 <seek_vary_pot+0x164>
    373a:	412487b3          	sub	a5,s1,s2
    373e:	20006737          	lui	a4,0x20006
    3742:	b4f70023          	sb	a5,-1216(a4) # 20005b40 <L_U_dot>
    3746:	ff648b93          	addi	s7,s1,-10
    374a:	01794663          	blt	s2,s7,3756 <seek_vary_pot+0xb4>
    374e:	200067b7          	lui	a5,0x20006
    3752:	b4078023          	sb	zero,-1216(a5) # 20005b40 <L_U_dot>
    3756:	0000a7b7          	lui	a5,0xa
    375a:	4107aa03          	lw	s4,1040(a5) # a410 <UARTN+0x68>
    375e:	4147aa83          	lw	s5,1044(a5)
    3762:	89018413          	addi	s0,gp,-1904 # 20000218 <Right_line>
    3766:	9426                	add	s0,s0,s1
    3768:	4b05                	li	s6,1
    376a:	0bb00c13          	li	s8,187
    376e:	4ca9                	li	s9,10
    3770:	4d51                	li	s10,20
    3772:	4df9                	li	s11,30
    3774:	073b5463          	bge	s6,s3,37dc <seek_vary_pot+0x13a>
    3778:	fff44903          	lbu	s2,-1(s0)
    377c:	09890863          	beq	s2,s8,380c <seek_vary_pot+0x16a>
    3780:	ffd44783          	lbu	a5,-3(s0)
    3784:	40f907b3          	sub	a5,s2,a5
    3788:	0795                	addi	a5,a5,5
    378a:	08fce163          	bltu	s9,a5,380c <seek_vary_pot+0x16a>
    378e:	ffb44783          	lbu	a5,-5(s0)
    3792:	40f907b3          	sub	a5,s2,a5
    3796:	07a9                	addi	a5,a5,10
    3798:	06fd6a63          	bltu	s10,a5,380c <seek_vary_pot+0x16a>
    379c:	ff944783          	lbu	a5,-7(s0)
    37a0:	40f907b3          	sub	a5,s2,a5
    37a4:	07bd                	addi	a5,a5,15
    37a6:	06fde363          	bltu	s11,a5,380c <seek_vary_pot+0x16a>
    37aa:	00344503          	lbu	a0,3(s0)
    37ae:	3ac040ef          	jal	ra,7b5a <__floatunsidf>
    37b2:	c42a                	sw	a0,8(sp)
    37b4:	854a                	mv	a0,s2
    37b6:	c62e                	sw	a1,12(sp)
    37b8:	3a2040ef          	jal	ra,7b5a <__floatunsidf>
    37bc:	4622                	lw	a2,8(sp)
    37be:	46b2                	lw	a3,12(sp)
    37c0:	2d5000ef          	jal	ra,4294 <Abs>
    37c4:	8652                	mv	a2,s4
    37c6:	86d6                	mv	a3,s5
    37c8:	55e030ef          	jal	ra,6d26 <__gedf2>
    37cc:	04054063          	bltz	a0,380c <seek_vary_pot+0x16a>
    37d0:	416484b3          	sub	s1,s1,s6
    37d4:	200067b7          	lui	a5,0x20006
    37d8:	d6978823          	sb	s1,-656(a5) # 20005d70 <R_U_dot>
    37dc:	017b4663          	blt	s6,s7,37e8 <seek_vary_pot+0x146>
    37e0:	200067b7          	lui	a5,0x20006
    37e4:	d6078823          	sb	zero,-656(a5) # 20005d70 <R_U_dot>
    37e8:	40b6                	lw	ra,76(sp)
    37ea:	4426                	lw	s0,72(sp)
    37ec:	4496                	lw	s1,68(sp)
    37ee:	4906                	lw	s2,64(sp)
    37f0:	59f2                	lw	s3,60(sp)
    37f2:	5a62                	lw	s4,56(sp)
    37f4:	5ad2                	lw	s5,52(sp)
    37f6:	5b42                	lw	s6,48(sp)
    37f8:	5bb2                	lw	s7,44(sp)
    37fa:	5c22                	lw	s8,40(sp)
    37fc:	5c92                	lw	s9,36(sp)
    37fe:	5d02                	lw	s10,32(sp)
    3800:	4df2                	lw	s11,28(sp)
    3802:	6161                	addi	sp,sp,80
    3804:	8082                	ret
    3806:	0905                	addi	s2,s2,1
    3808:	147d                	addi	s0,s0,-1
    380a:	bdd1                	j	36de <seek_vary_pot+0x3c>
    380c:	0b05                	addi	s6,s6,1
    380e:	147d                	addi	s0,s0,-1
    3810:	b795                	j	3774 <seek_vary_pot+0xd2>

00003812 <check_cross_road_out>:
    3812:	47cd                	li	a5,19
    3814:	0aa7de63          	bge	a5,a0,38d0 <check_cross_road_out+0xbe>
    3818:	200007b7          	lui	a5,0x20000
    381c:	20000637          	lui	a2,0x20000
    3820:	3cf78793          	addi	a5,a5,975 # 200003cf <Pixel+0xbb>
    3824:	31460613          	addi	a2,a2,788 # 20000314 <Pixel>
    3828:	4681                	li	a3,0
    382a:	0bc00813          	li	a6,188
    382e:	03c00893          	li	a7,60
    3832:	537d                	li	t1,-1
    3834:	07700713          	li	a4,119
    3838:	a021                	j	3840 <check_cross_road_out+0x2e>
    383a:	177d                	addi	a4,a4,-1
    383c:	00670d63          	beq	a4,t1,3856 <check_cross_road_out+0x44>
    3840:	03070533          	mul	a0,a4,a6
    3844:	953e                	add	a0,a0,a5
    3846:	00054503          	lbu	a0,0(a0)
    384a:	f965                	bnez	a0,383a <check_cross_road_out+0x28>
    384c:	fce70513          	addi	a0,a4,-50
    3850:	fea8e5e3          	bltu	a7,a0,383a <check_cross_road_out+0x28>
    3854:	0685                	addi	a3,a3,1
    3856:	fff78713          	addi	a4,a5,-1
    385a:	00c78463          	beq	a5,a2,3862 <check_cross_road_out+0x50>
    385e:	87ba                	mv	a5,a4
    3860:	bfd1                	j	3834 <check_cross_road_out+0x22>
    3862:	0b300793          	li	a5,179
    3866:	06d7c563          	blt	a5,a3,38d0 <check_cross_road_out+0xbe>
    386a:	1101                	addi	sp,sp,-32
    386c:	852e                	mv	a0,a1
    386e:	ce06                	sw	ra,28(sp)
    3870:	cc22                	sw	s0,24(sp)
    3872:	ca26                	sw	s1,20(sp)
    3874:	20006437          	lui	s0,0x20006
    3878:	e2bff0ef          	jal	ra,36a2 <seek_vary_pot>
    387c:	d7044503          	lbu	a0,-656(s0) # 20005d70 <R_U_dot>
    3880:	200064b7          	lui	s1,0x20006
    3884:	2d6040ef          	jal	ra,7b5a <__floatunsidf>
    3888:	c42a                	sw	a0,8(sp)
    388a:	b404c503          	lbu	a0,-1216(s1) # 20005b40 <L_U_dot>
    388e:	c62e                	sw	a1,12(sp)
    3890:	2ca040ef          	jal	ra,7b5a <__floatunsidf>
    3894:	4622                	lw	a2,8(sp)
    3896:	46b2                	lw	a3,12(sp)
    3898:	1fd000ef          	jal	ra,4294 <Abs>
    389c:	0000a7b7          	lui	a5,0xa
    38a0:	4007a603          	lw	a2,1024(a5) # a400 <UARTN+0x58>
    38a4:	4047a683          	lw	a3,1028(a5)
    38a8:	52c030ef          	jal	ra,6dd4 <__ledf2>
    38ac:	00a04c63          	bgtz	a0,38c4 <check_cross_road_out+0xb2>
    38b0:	b404c703          	lbu	a4,-1216(s1)
    38b4:	47cd                	li	a5,19
    38b6:	00e7f763          	bgeu	a5,a4,38c4 <check_cross_road_out+0xb2>
    38ba:	d7044703          	lbu	a4,-656(s0)
    38be:	4505                	li	a0,1
    38c0:	00e7e363          	bltu	a5,a4,38c6 <check_cross_road_out+0xb4>
    38c4:	4501                	li	a0,0
    38c6:	40f2                	lw	ra,28(sp)
    38c8:	4462                	lw	s0,24(sp)
    38ca:	44d2                	lw	s1,20(sp)
    38cc:	6105                	addi	sp,sp,32
    38ce:	8082                	ret
    38d0:	4501                	li	a0,0
    38d2:	8082                	ret

000038d4 <link_Line>:
    38d4:	711d                	addi	sp,sp,-96
    38d6:	dc62                	sw	s8,56(sp)
    38d8:	ce86                	sw	ra,92(sp)
    38da:	cca2                	sw	s0,88(sp)
    38dc:	caa6                	sw	s1,84(sp)
    38de:	c8ca                	sw	s2,80(sp)
    38e0:	c6ce                	sw	s3,76(sp)
    38e2:	c4d2                	sw	s4,72(sp)
    38e4:	c2d6                	sw	s5,68(sp)
    38e6:	c0da                	sw	s6,64(sp)
    38e8:	de5e                	sw	s7,60(sp)
    38ea:	da66                	sw	s9,52(sp)
    38ec:	d86a                	sw	s10,48(sp)
    38ee:	d66e                	sw	s11,44(sp)
    38f0:	cc2a                	sw	a0,24(sp)
    38f2:	4779                	li	a4,30
    38f4:	8c2e                	mv	s8,a1
    38f6:	04b74763          	blt	a4,a1,3944 <link_Line+0x70>
    38fa:	90818713          	addi	a4,gp,-1784 # 20000290 <Left_line>
    38fe:	972e                	add	a4,a4,a1
    3900:	00074683          	lbu	a3,0(a4)
    3904:	02800713          	li	a4,40
    3908:	02d76663          	bltu	a4,a3,3934 <link_Line+0x60>
    390c:	4705                	li	a4,1
    390e:	05000513          	li	a0,80
    3912:	22e61963          	bne	a2,a4,3b44 <link_Line+0x270>
    3916:	40f6                	lw	ra,92(sp)
    3918:	4466                	lw	s0,88(sp)
    391a:	44d6                	lw	s1,84(sp)
    391c:	4946                	lw	s2,80(sp)
    391e:	49b6                	lw	s3,76(sp)
    3920:	4a26                	lw	s4,72(sp)
    3922:	4a96                	lw	s5,68(sp)
    3924:	4b06                	lw	s6,64(sp)
    3926:	5bf2                	lw	s7,60(sp)
    3928:	5c62                	lw	s8,56(sp)
    392a:	5cd2                	lw	s9,52(sp)
    392c:	5d42                	lw	s10,48(sp)
    392e:	5db2                	lw	s11,44(sp)
    3930:	6125                	addi	sp,sp,96
    3932:	8082                	ret
    3934:	4765                	li	a4,25
    3936:	00b74763          	blt	a4,a1,3944 <link_Line+0x70>
    393a:	4709                	li	a4,2
    393c:	07800513          	li	a0,120
    3940:	fce60be3          	beq	a2,a4,3916 <link_Line+0x42>
    3944:	4705                	li	a4,1
    3946:	20e61763          	bne	a2,a4,3b54 <link_Line+0x280>
    394a:	0000a6b7          	lui	a3,0xa
    394e:	4086a783          	lw	a5,1032(a3) # a408 <UARTN+0x60>
    3952:	40c6a803          	lw	a6,1036(a3)
    3956:	4901                	li	s2,0
    3958:	4981                	li	s3,0
    395a:	90818c93          	addi	s9,gp,-1784 # 20000290 <Left_line>
    395e:	9ce2                	add	s9,s9,s8
    3960:	4d81                	li	s11,0
    3962:	8a4a                	mv	s4,s2
    3964:	8ace                	mv	s5,s3
    3966:	8b4a                	mv	s6,s2
    3968:	8bce                	mv	s7,s3
    396a:	844a                	mv	s0,s2
    396c:	84ce                	mv	s1,s3
    396e:	4701                	li	a4,0
    3970:	c43e                	sw	a5,8(sp)
    3972:	c642                	sw	a6,12(sp)
    3974:	001cc503          	lbu	a0,1(s9)
    3978:	40ec0d33          	sub	s10,s8,a4
    397c:	ce3a                	sw	a4,28(sp)
    397e:	1dc040ef          	jal	ra,7b5a <__floatunsidf>
    3982:	c82a                	sw	a0,16(sp)
    3984:	000cc503          	lbu	a0,0(s9)
    3988:	ca2e                	sw	a1,20(sp)
    398a:	1d0040ef          	jal	ra,7b5a <__floatunsidf>
    398e:	4642                	lw	a2,16(sp)
    3990:	46d2                	lw	a3,20(sp)
    3992:	103000ef          	jal	ra,4294 <Abs>
    3996:	4622                	lw	a2,8(sp)
    3998:	46b2                	lw	a3,12(sp)
    399a:	38c030ef          	jal	ra,6d26 <__gedf2>
    399e:	4772                	lw	a4,28(sp)
    39a0:	0c054863          	bltz	a0,3a70 <link_Line+0x19c>
    39a4:	0d85                	addi	s11,s11,1
    39a6:	0705                	addi	a4,a4,1
    39a8:	47a1                	li	a5,8
    39aa:	1cfd                	addi	s9,s9,-1
    39ac:	fcf714e3          	bne	a4,a5,3974 <link_Line+0xa0>
    39b0:	41b70533          	sub	a0,a4,s11
    39b4:	134040ef          	jal	ra,7ae8 <__floatsidf>
    39b8:	8d2a                	mv	s10,a0
    39ba:	8dae                	mv	s11,a1
    39bc:	862a                	mv	a2,a0
    39be:	86ae                	mv	a3,a1
    39c0:	8522                	mv	a0,s0
    39c2:	85a6                	mv	a1,s1
    39c4:	5af020ef          	jal	ra,6772 <__divdf3>
    39c8:	842a                	mv	s0,a0
    39ca:	84ae                	mv	s1,a1
    39cc:	866a                	mv	a2,s10
    39ce:	86ee                	mv	a3,s11
    39d0:	855a                	mv	a0,s6
    39d2:	85de                	mv	a1,s7
    39d4:	59f020ef          	jal	ra,6772 <__divdf3>
    39d8:	8b2a                	mv	s6,a0
    39da:	8bae                	mv	s7,a1
    39dc:	8622                	mv	a2,s0
    39de:	86a6                	mv	a3,s1
    39e0:	856a                	mv	a0,s10
    39e2:	85ee                	mv	a1,s11
    39e4:	4a6030ef          	jal	ra,6e8a <__muldf3>
    39e8:	865a                	mv	a2,s6
    39ea:	86de                	mv	a3,s7
    39ec:	8d2a                	mv	s10,a0
    39ee:	8dae                	mv	s11,a1
    39f0:	49a030ef          	jal	ra,6e8a <__muldf3>
    39f4:	862a                	mv	a2,a0
    39f6:	86ae                	mv	a3,a1
    39f8:	8552                	mv	a0,s4
    39fa:	85d6                	mv	a1,s5
    39fc:	147030ef          	jal	ra,7342 <__subdf3>
    3a00:	8a2a                	mv	s4,a0
    3a02:	8aae                	mv	s5,a1
    3a04:	8622                	mv	a2,s0
    3a06:	86a6                	mv	a3,s1
    3a08:	856a                	mv	a0,s10
    3a0a:	85ee                	mv	a1,s11
    3a0c:	47e030ef          	jal	ra,6e8a <__muldf3>
    3a10:	862a                	mv	a2,a0
    3a12:	86ae                	mv	a3,a1
    3a14:	854a                	mv	a0,s2
    3a16:	85ce                	mv	a1,s3
    3a18:	12b030ef          	jal	ra,7342 <__subdf3>
    3a1c:	862a                	mv	a2,a0
    3a1e:	86ae                	mv	a3,a1
    3a20:	8552                	mv	a0,s4
    3a22:	85d6                	mv	a1,s5
    3a24:	54f020ef          	jal	ra,6772 <__divdf3>
    3a28:	4601                	li	a2,0
    3a2a:	4681                	li	a3,0
    3a2c:	616020ef          	jal	ra,6042 <__adddf3>
    3a30:	892a                	mv	s2,a0
    3a32:	4562                	lw	a0,24(sp)
    3a34:	89ae                	mv	s3,a1
    3a36:	0b2040ef          	jal	ra,7ae8 <__floatsidf>
    3a3a:	864a                	mv	a2,s2
    3a3c:	86ce                	mv	a3,s3
    3a3e:	44c030ef          	jal	ra,6e8a <__muldf3>
    3a42:	8a2a                	mv	s4,a0
    3a44:	8aae                	mv	s5,a1
    3a46:	864a                	mv	a2,s2
    3a48:	86ce                	mv	a3,s3
    3a4a:	8522                	mv	a0,s0
    3a4c:	85a6                	mv	a1,s1
    3a4e:	43c030ef          	jal	ra,6e8a <__muldf3>
    3a52:	862a                	mv	a2,a0
    3a54:	86ae                	mv	a3,a1
    3a56:	855a                	mv	a0,s6
    3a58:	85de                	mv	a1,s7
    3a5a:	0e9030ef          	jal	ra,7342 <__subdf3>
    3a5e:	862a                	mv	a2,a0
    3a60:	86ae                	mv	a3,a1
    3a62:	8552                	mv	a0,s4
    3a64:	85d6                	mv	a1,s5
    3a66:	5dc020ef          	jal	ra,6042 <__adddf3>
    3a6a:	016040ef          	jal	ra,7a80 <__fixdfsi>
    3a6e:	b565                	j	3916 <link_Line+0x42>
    3a70:	856a                	mv	a0,s10
    3a72:	ce3a                	sw	a4,28(sp)
    3a74:	074040ef          	jal	ra,7ae8 <__floatsidf>
    3a78:	862a                	mv	a2,a0
    3a7a:	86ae                	mv	a3,a1
    3a7c:	8522                	mv	a0,s0
    3a7e:	85a6                	mv	a1,s1
    3a80:	5c2020ef          	jal	ra,6042 <__adddf3>
    3a84:	842a                	mv	s0,a0
    3a86:	03ad0533          	mul	a0,s10,s10
    3a8a:	84ae                	mv	s1,a1
    3a8c:	05c040ef          	jal	ra,7ae8 <__floatsidf>
    3a90:	862a                	mv	a2,a0
    3a92:	86ae                	mv	a3,a1
    3a94:	854a                	mv	a0,s2
    3a96:	85ce                	mv	a1,s3
    3a98:	5aa020ef          	jal	ra,6042 <__adddf3>
    3a9c:	000cc883          	lbu	a7,0(s9)
    3aa0:	892a                	mv	s2,a0
    3aa2:	89ae                	mv	s3,a1
    3aa4:	8546                	mv	a0,a7
    3aa6:	c846                	sw	a7,16(sp)
    3aa8:	040040ef          	jal	ra,7ae8 <__floatsidf>
    3aac:	862a                	mv	a2,a0
    3aae:	86ae                	mv	a3,a1
    3ab0:	855a                	mv	a0,s6
    3ab2:	85de                	mv	a1,s7
    3ab4:	58e020ef          	jal	ra,6042 <__adddf3>
    3ab8:	48c2                	lw	a7,16(sp)
    3aba:	8b2a                	mv	s6,a0
    3abc:	8bae                	mv	s7,a1
    3abe:	03a88533          	mul	a0,a7,s10
    3ac2:	026040ef          	jal	ra,7ae8 <__floatsidf>
    3ac6:	862a                	mv	a2,a0
    3ac8:	86ae                	mv	a3,a1
    3aca:	8552                	mv	a0,s4
    3acc:	85d6                	mv	a1,s5
    3ace:	574020ef          	jal	ra,6042 <__adddf3>
    3ad2:	8a2a                	mv	s4,a0
    3ad4:	8aae                	mv	s5,a1
    3ad6:	4772                	lw	a4,28(sp)
    3ad8:	b5f9                	j	39a6 <link_Line+0xd2>
    3ada:	856a                	mv	a0,s10
    3adc:	ce3a                	sw	a4,28(sp)
    3ade:	00a040ef          	jal	ra,7ae8 <__floatsidf>
    3ae2:	862a                	mv	a2,a0
    3ae4:	86ae                	mv	a3,a1
    3ae6:	8522                	mv	a0,s0
    3ae8:	85a6                	mv	a1,s1
    3aea:	558020ef          	jal	ra,6042 <__adddf3>
    3aee:	842a                	mv	s0,a0
    3af0:	03ad0533          	mul	a0,s10,s10
    3af4:	84ae                	mv	s1,a1
    3af6:	7f3030ef          	jal	ra,7ae8 <__floatsidf>
    3afa:	862a                	mv	a2,a0
    3afc:	86ae                	mv	a3,a1
    3afe:	854a                	mv	a0,s2
    3b00:	85ce                	mv	a1,s3
    3b02:	540020ef          	jal	ra,6042 <__adddf3>
    3b06:	000cc883          	lbu	a7,0(s9)
    3b0a:	892a                	mv	s2,a0
    3b0c:	89ae                	mv	s3,a1
    3b0e:	8546                	mv	a0,a7
    3b10:	c846                	sw	a7,16(sp)
    3b12:	7d7030ef          	jal	ra,7ae8 <__floatsidf>
    3b16:	862a                	mv	a2,a0
    3b18:	86ae                	mv	a3,a1
    3b1a:	855a                	mv	a0,s6
    3b1c:	85de                	mv	a1,s7
    3b1e:	524020ef          	jal	ra,6042 <__adddf3>
    3b22:	48c2                	lw	a7,16(sp)
    3b24:	8b2a                	mv	s6,a0
    3b26:	8bae                	mv	s7,a1
    3b28:	03a88533          	mul	a0,a7,s10
    3b2c:	7bd030ef          	jal	ra,7ae8 <__floatsidf>
    3b30:	862a                	mv	a2,a0
    3b32:	86ae                	mv	a3,a1
    3b34:	8552                	mv	a0,s4
    3b36:	85d6                	mv	a1,s5
    3b38:	50a020ef          	jal	ra,6042 <__adddf3>
    3b3c:	8a2a                	mv	s4,a0
    3b3e:	8aae                	mv	s5,a1
    3b40:	4772                	lw	a4,28(sp)
    3b42:	a0bd                	j	3bb0 <link_Line+0x2dc>
    3b44:	4765                	li	a4,25
    3b46:	00b74763          	blt	a4,a1,3b54 <link_Line+0x280>
    3b4a:	4709                	li	a4,2
    3b4c:	07800513          	li	a0,120
    3b50:	dce603e3          	beq	a2,a4,3916 <link_Line+0x42>
    3b54:	0000a6b7          	lui	a3,0xa
    3b58:	4086a783          	lw	a5,1032(a3) # a408 <UARTN+0x60>
    3b5c:	40c6a803          	lw	a6,1036(a3)
    3b60:	4901                	li	s2,0
    3b62:	4981                	li	s3,0
    3b64:	89018c93          	addi	s9,gp,-1904 # 20000218 <Right_line>
    3b68:	9ce2                	add	s9,s9,s8
    3b6a:	4d81                	li	s11,0
    3b6c:	8a4a                	mv	s4,s2
    3b6e:	8ace                	mv	s5,s3
    3b70:	8b4a                	mv	s6,s2
    3b72:	8bce                	mv	s7,s3
    3b74:	844a                	mv	s0,s2
    3b76:	84ce                	mv	s1,s3
    3b78:	4701                	li	a4,0
    3b7a:	c43e                	sw	a5,8(sp)
    3b7c:	c642                	sw	a6,12(sp)
    3b7e:	001cc503          	lbu	a0,1(s9)
    3b82:	40ec0d33          	sub	s10,s8,a4
    3b86:	ce3a                	sw	a4,28(sp)
    3b88:	7d3030ef          	jal	ra,7b5a <__floatunsidf>
    3b8c:	c82a                	sw	a0,16(sp)
    3b8e:	000cc503          	lbu	a0,0(s9)
    3b92:	ca2e                	sw	a1,20(sp)
    3b94:	7c7030ef          	jal	ra,7b5a <__floatunsidf>
    3b98:	4642                	lw	a2,16(sp)
    3b9a:	46d2                	lw	a3,20(sp)
    3b9c:	6f8000ef          	jal	ra,4294 <Abs>
    3ba0:	4622                	lw	a2,8(sp)
    3ba2:	46b2                	lw	a3,12(sp)
    3ba4:	182030ef          	jal	ra,6d26 <__gedf2>
    3ba8:	4772                	lw	a4,28(sp)
    3baa:	f20548e3          	bltz	a0,3ada <link_Line+0x206>
    3bae:	0d85                	addi	s11,s11,1
    3bb0:	0705                	addi	a4,a4,1
    3bb2:	47a1                	li	a5,8
    3bb4:	1cfd                	addi	s9,s9,-1
    3bb6:	fcf714e3          	bne	a4,a5,3b7e <link_Line+0x2aa>
    3bba:	bbdd                	j	39b0 <link_Line+0xdc>

00003bbc <Repair_Line>:
    3bbc:	7179                	addi	sp,sp,-48
    3bbe:	200067b7          	lui	a5,0x20006
    3bc2:	d04a                	sw	s2,32(sp)
    3bc4:	20006937          	lui	s2,0x20006
    3bc8:	d422                	sw	s0,40(sp)
    3bca:	d7094703          	lbu	a4,-656(s2) # 20005d70 <R_U_dot>
    3bce:	b407c403          	lbu	s0,-1216(a5) # 20005b40 <L_U_dot>
    3bd2:	d226                	sw	s1,36(sp)
    3bd4:	d606                	sw	ra,44(sp)
    3bd6:	ce4e                	sw	s3,28(sp)
    3bd8:	cc52                	sw	s4,24(sp)
    3bda:	ca56                	sw	s5,20(sp)
    3bdc:	c85a                	sw	s6,16(sp)
    3bde:	c65e                	sw	s7,12(sp)
    3be0:	84be                	mv	s1,a5
    3be2:	00875363          	bge	a4,s0,3be8 <Repair_Line+0x2c>
    3be6:	843a                	mv	s0,a4
    3be8:	200069b7          	lui	s3,0x20006
    3bec:	20000a37          	lui	s4,0x20000
    3bf0:	07700b13          	li	s6,119
    3bf4:	b9498993          	addi	s3,s3,-1132 # 20005b94 <Center_line>
    3bf8:	0bc00b93          	li	s7,188
    3bfc:	314a0a13          	addi	s4,s4,788 # 20000314 <Pixel>
    3c00:	008b5d63          	bge	s6,s0,3c1a <Repair_Line+0x5e>
    3c04:	50b2                	lw	ra,44(sp)
    3c06:	5422                	lw	s0,40(sp)
    3c08:	5492                	lw	s1,36(sp)
    3c0a:	5902                	lw	s2,32(sp)
    3c0c:	49f2                	lw	s3,28(sp)
    3c0e:	4a62                	lw	s4,24(sp)
    3c10:	4ad2                	lw	s5,20(sp)
    3c12:	4b42                	lw	s6,16(sp)
    3c14:	4bb2                	lw	s7,12(sp)
    3c16:	6145                	addi	sp,sp,48
    3c18:	8082                	ret
    3c1a:	b404c583          	lbu	a1,-1216(s1)
    3c1e:	4605                	li	a2,1
    3c20:	8522                	mv	a0,s0
    3c22:	15f9                	addi	a1,a1,-2
    3c24:	cb1ff0ef          	jal	ra,38d4 <link_Line>
    3c28:	d7094583          	lbu	a1,-656(s2)
    3c2c:	8aaa                	mv	s5,a0
    3c2e:	4609                	li	a2,2
    3c30:	8522                	mv	a0,s0
    3c32:	15f9                	addi	a1,a1,-2
    3c34:	ca1ff0ef          	jal	ra,38d4 <link_Line>
    3c38:	9556                	add	a0,a0,s5
    3c3a:	4709                	li	a4,2
    3c3c:	02e54533          	div	a0,a0,a4
    3c40:	013407b3          	add	a5,s0,s3
    3c44:	00a78023          	sb	a0,0(a5)
    3c48:	03740533          	mul	a0,s0,s7
    3c4c:	0405                	addi	s0,s0,1
    3c4e:	9552                	add	a0,a0,s4
    3c50:	9556                	add	a0,a0,s5
    3c52:	00050023          	sb	zero,0(a0)
    3c56:	b76d                	j	3c00 <Repair_Line+0x44>

00003c58 <Cross_Round_control>:
    3c58:	1101                	addi	sp,sp,-32
    3c5a:	cc22                	sw	s0,24(sp)
    3c5c:	8811c783          	lbu	a5,-1919(gp) # 20000209 <Cross_status>
    3c60:	ce06                	sw	ra,28(sp)
    3c62:	ca26                	sw	s1,20(sp)
    3c64:	c84a                	sw	s2,16(sp)
    3c66:	c64e                	sw	s3,12(sp)
    3c68:	c7e1                	beqz	a5,3d30 <Cross_Round_control+0xd8>
    3c6a:	80c1a703          	lw	a4,-2036(gp) # 20000194 <repair_status.6396>
    3c6e:	4785                	li	a5,1
    3c70:	80c18493          	addi	s1,gp,-2036 # 20000194 <repair_status.6396>
    3c74:	02f71a63          	bne	a4,a5,3ca8 <Cross_Round_control+0x50>
    3c78:	8881a783          	lw	a5,-1912(gp) # 20000210 <num_white>
    3c7c:	20006737          	lui	a4,0x20006
    3c80:	b5470713          	addi	a4,a4,-1196 # 20005b54 <white_line>
    3c84:	97ba                	add	a5,a5,a4
    3c86:	fff7c503          	lbu	a0,-1(a5)
    3c8a:	a19ff0ef          	jal	ra,36a2 <seek_vary_pot>
    3c8e:	8d91c703          	lbu	a4,-1831(gp) # 20000261 <Right_line+0x49>
    3c92:	0b300793          	li	a5,179
    3c96:	00e7e763          	bltu	a5,a4,3ca4 <Cross_Round_control+0x4c>
    3c9a:	9511c703          	lbu	a4,-1711(gp) # 200002d9 <Left_line+0x49>
    3c9e:	47a9                	li	a5,10
    3ca0:	00e7e463          	bltu	a5,a4,3ca8 <Cross_Round_control+0x50>
    3ca4:	f19ff0ef          	jal	ra,3bbc <Repair_Line>
    3ca8:	8811c783          	lbu	a5,-1919(gp) # 20000209 <Cross_status>
    3cac:	4705                	li	a4,1
    3cae:	06e79963          	bne	a5,a4,3d20 <Cross_Round_control+0xc8>
    3cb2:	4098                	lw	a4,0(s1)
    3cb4:	06f71e63          	bne	a4,a5,3d30 <Cross_Round_control+0xd8>
    3cb8:	8881a783          	lw	a5,-1912(gp) # 20000210 <num_white>
    3cbc:	06f74a63          	blt	a4,a5,3d30 <Cross_Round_control+0xd8>
    3cc0:	4789                	li	a5,2
    3cc2:	0004a023          	sw	zero,0(s1)
    3cc6:	88f180a3          	sb	a5,-1919(gp) # 20000209 <Cross_status>
    3cca:	99cff0ef          	jal	ra,2e66 <check_bend>
    3cce:	00a03533          	snez	a0,a0
    3cd2:	8811c783          	lbu	a5,-1919(gp) # 20000209 <Cross_status>
    3cd6:	0509                	addi	a0,a0,2
    3cd8:	86a1a223          	sw	a0,-1948(gp) # 200001ec <flag>
    3cdc:	498d                	li	s3,3
    3cde:	03378563          	beq	a5,s3,3d08 <Cross_Round_control+0xb0>
    3ce2:	8881a503          	lw	a0,-1912(gp) # 20000210 <num_white>
    3ce6:	200067b7          	lui	a5,0x20006
    3cea:	b5478793          	addi	a5,a5,-1196 # 20005b54 <white_line>
    3cee:	97aa                	add	a5,a5,a0
    3cf0:	fff7c583          	lbu	a1,-1(a5)
    3cf4:	b1fff0ef          	jal	ra,3812 <check_cross_road_out>
    3cf8:	c51d                	beqz	a0,3d26 <Cross_Round_control+0xce>
    3cfa:	4785                	li	a5,1
    3cfc:	c09c                	sw	a5,0(s1)
    3cfe:	4789                	li	a5,2
    3d00:	893180a3          	sb	s3,-1919(gp) # 20000209 <Cross_status>
    3d04:	86f1a223          	sw	a5,-1948(gp) # 200001ec <flag>
    3d08:	8881a703          	lw	a4,-1912(gp) # 20000210 <num_white>
    3d0c:	4785                	li	a5,1
    3d0e:	02e7c163          	blt	a5,a4,3d30 <Cross_Round_control+0xd8>
    3d12:	20006737          	lui	a4,0x20006
    3d16:	b4f70323          	sb	a5,-1210(a4) # 20005b46 <entered_Cross>
    3d1a:	880180a3          	sb	zero,-1919(gp) # 20000209 <Cross_status>
    3d1e:	a809                	j	3d30 <Cross_Round_control+0xd8>
    3d20:	4709                	li	a4,2
    3d22:	fae784e3          	beq	a5,a4,3cca <Cross_Round_control+0x72>
    3d26:	8811c703          	lbu	a4,-1919(gp) # 20000209 <Cross_status>
    3d2a:	478d                	li	a5,3
    3d2c:	fcf70ee3          	beq	a4,a5,3d08 <Cross_Round_control+0xb0>
    3d30:	40f2                	lw	ra,28(sp)
    3d32:	4462                	lw	s0,24(sp)
    3d34:	44d2                	lw	s1,20(sp)
    3d36:	4942                	lw	s2,16(sp)
    3d38:	49b2                	lw	s3,12(sp)
    3d3a:	6105                	addi	sp,sp,32
    3d3c:	8082                	ret

00003d3e <GetHistGram>:
    3d3e:	200066b7          	lui	a3,0x20006
    3d42:	4781                	li	a5,0
    3d44:	c7068693          	addi	a3,a3,-912 # 20005c70 <HistGram>
    3d48:	10000713          	li	a4,256
    3d4c:	00d78633          	add	a2,a5,a3
    3d50:	00060023          	sb	zero,0(a2)
    3d54:	0785                	addi	a5,a5,1
    3d56:	fee79be3          	bne	a5,a4,3d4c <GetHistGram+0xe>
    3d5a:	6799                	lui	a5,0x6
    3d5c:	82078793          	addi	a5,a5,-2016 # 5820 <OTG_FS_IRQHandler+0x1a>
    3d60:	97aa                	add	a5,a5,a0
    3d62:	0bc00813          	li	a6,188
    3d66:	4701                	li	a4,0
    3d68:	00e50633          	add	a2,a0,a4
    3d6c:	00064603          	lbu	a2,0(a2)
    3d70:	0705                	addi	a4,a4,1
    3d72:	9636                	add	a2,a2,a3
    3d74:	00064583          	lbu	a1,0(a2)
    3d78:	0585                	addi	a1,a1,1
    3d7a:	00b60023          	sb	a1,0(a2)
    3d7e:	ff0715e3          	bne	a4,a6,3d68 <GetHistGram+0x2a>
    3d82:	0bc50513          	addi	a0,a0,188
    3d86:	fea790e3          	bne	a5,a0,3d66 <GetHistGram+0x28>
    3d8a:	8082                	ret

00003d8c <OSTUThreshold>:
    3d8c:	711d                	addi	sp,sp,-96
    3d8e:	20006737          	lui	a4,0x20006
    3d92:	c2d6                	sw	s5,68(sp)
    3d94:	ce86                	sw	ra,92(sp)
    3d96:	cca2                	sw	s0,88(sp)
    3d98:	caa6                	sw	s1,84(sp)
    3d9a:	c8ca                	sw	s2,80(sp)
    3d9c:	c6ce                	sw	s3,76(sp)
    3d9e:	c4d2                	sw	s4,72(sp)
    3da0:	c0da                	sw	s6,64(sp)
    3da2:	de5e                	sw	s7,60(sp)
    3da4:	dc62                	sw	s8,56(sp)
    3da6:	da66                	sw	s9,52(sp)
    3da8:	d86a                	sw	s10,48(sp)
    3daa:	d66e                	sw	s11,44(sp)
    3dac:	4681                	li	a3,0
    3dae:	c7070a93          	addi	s5,a4,-912 # 20005c70 <HistGram>
    3db2:	10000593          	li	a1,256
    3db6:	01568633          	add	a2,a3,s5
    3dba:	00064603          	lbu	a2,0(a2)
    3dbe:	01069793          	slli	a5,a3,0x10
    3dc2:	87c1                	srai	a5,a5,0x10
    3dc4:	ce0d                	beqz	a2,3dfe <OSTUThreshold+0x72>
    3dc6:	0ff00693          	li	a3,255
    3dca:	0ff00813          	li	a6,255
    3dce:	00d78863          	beq	a5,a3,3dde <OSTUThreshold+0x52>
    3dd2:	0fe00693          	li	a3,254
    3dd6:	0fe00813          	li	a6,254
    3dda:	02d79763          	bne	a5,a3,3e08 <OSTUThreshold+0x7c>
    3dde:	40f6                	lw	ra,92(sp)
    3de0:	4466                	lw	s0,88(sp)
    3de2:	44d6                	lw	s1,84(sp)
    3de4:	4946                	lw	s2,80(sp)
    3de6:	49b6                	lw	s3,76(sp)
    3de8:	4a26                	lw	s4,72(sp)
    3dea:	4a96                	lw	s5,68(sp)
    3dec:	4b06                	lw	s6,64(sp)
    3dee:	5bf2                	lw	s7,60(sp)
    3df0:	5c62                	lw	s8,56(sp)
    3df2:	5cd2                	lw	s9,52(sp)
    3df4:	5d42                	lw	s10,48(sp)
    3df6:	5db2                	lw	s11,44(sp)
    3df8:	8542                	mv	a0,a6
    3dfa:	6125                	addi	sp,sp,96
    3dfc:	8082                	ret
    3dfe:	0685                	addi	a3,a3,1
    3e00:	fab69be3          	bne	a3,a1,3db6 <OSTUThreshold+0x2a>
    3e04:	10000793          	li	a5,256
    3e08:	893e                	mv	s2,a5
    3e0a:	86be                	mv	a3,a5
    3e0c:	4c01                	li	s8,0
    3e0e:	0ff00613          	li	a2,255
    3e12:	01069593          	slli	a1,a3,0x10
    3e16:	85c1                	srai	a1,a1,0x10
    3e18:	0eb65e63          	bge	a2,a1,3f14 <OSTUThreshold+0x188>
    3e1c:	86be                	mv	a3,a5
    3e1e:	4a01                	li	s4,0
    3e20:	0ff00593          	li	a1,255
    3e24:	01069613          	slli	a2,a3,0x10
    3e28:	8641                	srai	a2,a2,0x10
    3e2a:	0ec5dc63          	bge	a1,a2,3f22 <OSTUThreshold+0x196>
    3e2e:	0000a6b7          	lui	a3,0xa
    3e32:	4186ad83          	lw	s11,1048(a3) # a418 <UARTN+0x70>
    3e36:	41c6ad03          	lw	s10,1052(a3)
    3e3a:	4801                	li	a6,0
    3e3c:	4c81                	li	s9,0
    3e3e:	4981                	li	s3,0
    3e40:	0fe00e93          	li	t4,254
    3e44:	f8fecde3          	blt	t4,a5,3dde <OSTUThreshold+0x52>
    3e48:	012a86b3          	add	a3,s5,s2
    3e4c:	0006c403          	lbu	s0,0(a3)
    3e50:	ce42                	sw	a6,28(sp)
    3e52:	cc3e                	sw	a5,24(sp)
    3e54:	99a2                	add	s3,s3,s0
    3e56:	02890433          	mul	s0,s2,s0
    3e5a:	854e                	mv	a0,s3
    3e5c:	4ff030ef          	jal	ra,7b5a <__floatunsidf>
    3e60:	8b2a                	mv	s6,a0
    3e62:	8562                	mv	a0,s8
    3e64:	8bae                	mv	s7,a1
    3e66:	4f5030ef          	jal	ra,7b5a <__floatunsidf>
    3e6a:	c42a                	sw	a0,8(sp)
    3e6c:	413c0533          	sub	a0,s8,s3
    3e70:	c62e                	sw	a1,12(sp)
    3e72:	9ca2                	add	s9,s9,s0
    3e74:	475030ef          	jal	ra,7ae8 <__floatsidf>
    3e78:	c82a                	sw	a0,16(sp)
    3e7a:	8566                	mv	a0,s9
    3e7c:	ca2e                	sw	a1,20(sp)
    3e7e:	4dd030ef          	jal	ra,7b5a <__floatunsidf>
    3e82:	865a                	mv	a2,s6
    3e84:	86de                	mv	a3,s7
    3e86:	0ed020ef          	jal	ra,6772 <__divdf3>
    3e8a:	842a                	mv	s0,a0
    3e8c:	419a0533          	sub	a0,s4,s9
    3e90:	84ae                	mv	s1,a1
    3e92:	457030ef          	jal	ra,7ae8 <__floatsidf>
    3e96:	4642                	lw	a2,16(sp)
    3e98:	46d2                	lw	a3,20(sp)
    3e9a:	0d9020ef          	jal	ra,6772 <__divdf3>
    3e9e:	862a                	mv	a2,a0
    3ea0:	86ae                	mv	a3,a1
    3ea2:	8522                	mv	a0,s0
    3ea4:	85a6                	mv	a1,s1
    3ea6:	49c030ef          	jal	ra,7342 <__subdf3>
    3eaa:	4622                	lw	a2,8(sp)
    3eac:	46b2                	lw	a3,12(sp)
    3eae:	842a                	mv	s0,a0
    3eb0:	84ae                	mv	s1,a1
    3eb2:	855a                	mv	a0,s6
    3eb4:	85de                	mv	a1,s7
    3eb6:	0bd020ef          	jal	ra,6772 <__divdf3>
    3eba:	8b2a                	mv	s6,a0
    3ebc:	8bae                	mv	s7,a1
    3ebe:	4622                	lw	a2,8(sp)
    3ec0:	46b2                	lw	a3,12(sp)
    3ec2:	4542                	lw	a0,16(sp)
    3ec4:	45d2                	lw	a1,20(sp)
    3ec6:	0ad020ef          	jal	ra,6772 <__divdf3>
    3eca:	862a                	mv	a2,a0
    3ecc:	86ae                	mv	a3,a1
    3ece:	855a                	mv	a0,s6
    3ed0:	85de                	mv	a1,s7
    3ed2:	7b9020ef          	jal	ra,6e8a <__muldf3>
    3ed6:	8622                	mv	a2,s0
    3ed8:	86a6                	mv	a3,s1
    3eda:	7b1020ef          	jal	ra,6e8a <__muldf3>
    3ede:	8622                	mv	a2,s0
    3ee0:	86a6                	mv	a3,s1
    3ee2:	7a9020ef          	jal	ra,6e8a <__muldf3>
    3ee6:	862a                	mv	a2,a0
    3ee8:	86ae                	mv	a3,a1
    3eea:	84aa                	mv	s1,a0
    3eec:	842e                	mv	s0,a1
    3eee:	856e                	mv	a0,s11
    3ef0:	85ea                	mv	a1,s10
    3ef2:	6e3020ef          	jal	ra,6dd4 <__ledf2>
    3ef6:	47e2                	lw	a5,24(sp)
    3ef8:	4872                	lw	a6,28(sp)
    3efa:	0fe00e93          	li	t4,254
    3efe:	00055663          	bgez	a0,3f0a <OSTUThreshold+0x17e>
    3f02:	0ff7f813          	andi	a6,a5,255
    3f06:	8da6                	mv	s11,s1
    3f08:	8d22                	mv	s10,s0
    3f0a:	0785                	addi	a5,a5,1
    3f0c:	07c2                	slli	a5,a5,0x10
    3f0e:	87c1                	srai	a5,a5,0x10
    3f10:	0905                	addi	s2,s2,1
    3f12:	bf0d                	j	3e44 <OSTUThreshold+0xb8>
    3f14:	00da85b3          	add	a1,s5,a3
    3f18:	0005c583          	lbu	a1,0(a1)
    3f1c:	0685                	addi	a3,a3,1
    3f1e:	9c2e                	add	s8,s8,a1
    3f20:	bdcd                	j	3e12 <OSTUThreshold+0x86>
    3f22:	00da8633          	add	a2,s5,a3
    3f26:	00064603          	lbu	a2,0(a2)
    3f2a:	02d60633          	mul	a2,a2,a3
    3f2e:	0685                	addi	a3,a3,1
    3f30:	9a32                	add	s4,s4,a2
    3f32:	bdcd                	j	3e24 <OSTUThreshold+0x98>

00003f34 <BinaryImage>:
    3f34:	200067b7          	lui	a5,0x20006
    3f38:	b3c7c883          	lbu	a7,-1220(a5) # 20005b3c <Threshold>
    3f3c:	20000737          	lui	a4,0x20000
    3f40:	6599                	lui	a1,0x6
    3f42:	31470713          	addi	a4,a4,788 # 20000314 <Pixel>
    3f46:	4601                	li	a2,0
    3f48:	0bc00313          	li	t1,188
    3f4c:	82058593          	addi	a1,a1,-2016 # 5820 <OTG_FS_IRQHandler+0x1a>
    3f50:	00c50833          	add	a6,a0,a2
    3f54:	4781                	li	a5,0
    3f56:	00f806b3          	add	a3,a6,a5
    3f5a:	0006c683          	lbu	a3,0(a3)
    3f5e:	00f70e33          	add	t3,a4,a5
    3f62:	0785                	addi	a5,a5,1
    3f64:	0116b6b3          	sltu	a3,a3,a7
    3f68:	16fd                	addi	a3,a3,-1
    3f6a:	00de0023          	sb	a3,0(t3)
    3f6e:	fe6794e3          	bne	a5,t1,3f56 <BinaryImage+0x22>
    3f72:	0bc60613          	addi	a2,a2,188
    3f76:	0bc70713          	addi	a4,a4,188
    3f7a:	fcb61be3          	bne	a2,a1,3f50 <BinaryImage+0x1c>
    3f7e:	8082                	ret

00003f80 <Bin_Image_Filter>:
    3f80:	200005b7          	lui	a1,0x20000
    3f84:	4685                	li	a3,1
    3f86:	0bc00513          	li	a0,188
    3f8a:	31458593          	addi	a1,a1,788 # 20000314 <Pixel>
    3f8e:	0ff00313          	li	t1,255
    3f92:	1fd00e13          	li	t3,509
    3f96:	1fe00e93          	li	t4,510
    3f9a:	5f7d                	li	t5,-1
    3f9c:	0bb00813          	li	a6,187
    3fa0:	07700893          	li	a7,119
    3fa4:	02a687b3          	mul	a5,a3,a0
    3fa8:	4605                	li	a2,1
    3faa:	97ae                	add	a5,a5,a1
    3fac:	0017c703          	lbu	a4,1(a5)
    3fb0:	0605                	addi	a2,a2,1
    3fb2:	e71d                	bnez	a4,3fe0 <Bin_Image_Filter+0x60>
    3fb4:	0bd7cf83          	lbu	t6,189(a5)
    3fb8:	f457c703          	lbu	a4,-187(a5)
    3fbc:	977e                	add	a4,a4,t6
    3fbe:	0027cf83          	lbu	t6,2(a5)
    3fc2:	977e                	add	a4,a4,t6
    3fc4:	0007cf83          	lbu	t6,0(a5)
    3fc8:	977e                	add	a4,a4,t6
    3fca:	00eed463          	bge	t4,a4,3fd2 <Bin_Image_Filter+0x52>
    3fce:	01e780a3          	sb	t5,1(a5)
    3fd2:	0785                	addi	a5,a5,1
    3fd4:	fd061ce3          	bne	a2,a6,3fac <Bin_Image_Filter+0x2c>
    3fd8:	0685                	addi	a3,a3,1
    3fda:	fd1695e3          	bne	a3,a7,3fa4 <Bin_Image_Filter+0x24>
    3fde:	8082                	ret
    3fe0:	fe6719e3          	bne	a4,t1,3fd2 <Bin_Image_Filter+0x52>
    3fe4:	0bd7cf83          	lbu	t6,189(a5)
    3fe8:	f457c703          	lbu	a4,-187(a5)
    3fec:	977e                	add	a4,a4,t6
    3fee:	0027cf83          	lbu	t6,2(a5)
    3ff2:	977e                	add	a4,a4,t6
    3ff4:	0007cf83          	lbu	t6,0(a5)
    3ff8:	977e                	add	a4,a4,t6
    3ffa:	fcee4ce3          	blt	t3,a4,3fd2 <Bin_Image_Filter+0x52>
    3ffe:	000780a3          	sb	zero,1(a5)
    4002:	bfc1                	j	3fd2 <Bin_Image_Filter+0x52>

00004004 <ImageHandle>:
    4004:	1141                	addi	sp,sp,-16
    4006:	c606                	sw	ra,12(sp)
    4008:	c422                	sw	s0,8(sp)
    400a:	842a                	mv	s0,a0
    400c:	d33ff0ef          	jal	ra,3d3e <GetHistGram>
    4010:	d7dff0ef          	jal	ra,3d8c <OSTUThreshold>
    4014:	200067b7          	lui	a5,0x20006
    4018:	b2a78e23          	sb	a0,-1220(a5) # 20005b3c <Threshold>
    401c:	8522                	mv	a0,s0
    401e:	f17ff0ef          	jal	ra,3f34 <BinaryImage>
    4022:	4422                	lw	s0,8(sp)
    4024:	40b2                	lw	ra,12(sp)
    4026:	0141                	addi	sp,sp,16
    4028:	f59ff06f          	j	3f80 <Bin_Image_Filter>

0000402c <board_led_init>:
    402c:	4785                	li	a5,1
    402e:	00f51a63          	bne	a0,a5,4042 <board_led_init+0x16>
    4032:	31000693          	li	a3,784
    4036:	4605                	li	a2,1
    4038:	4585                	li	a1,1
    403a:	08200513          	li	a0,130
    403e:	dbbfd06f          	j	1df8 <gpio_init>
    4042:	4789                	li	a5,2
    4044:	00f51963          	bne	a0,a5,4056 <board_led_init+0x2a>
    4048:	31000693          	li	a3,784
    404c:	4605                	li	a2,1
    404e:	4585                	li	a1,1
    4050:	08300513          	li	a0,131
    4054:	b7ed                	j	403e <board_led_init+0x12>
    4056:	8082                	ret

00004058 <car_init>:
    4058:	1141                	addi	sp,sp,-16
    405a:	c606                	sw	ra,12(sp)
    405c:	f03fd0ef          	jal	ra,1f5e <interrupt_global_disable>
    4060:	941fd0ef          	jal	ra,19a0 <board_init>
    4064:	9c5fd0ef          	jal	ra,1a28 <Delay_Init>
    4068:	4501                	li	a0,0
    406a:	8f3fc0ef          	jal	ra,95c <motor_init>
    406e:	4505                	li	a0,1
    4070:	8edfc0ef          	jal	ra,95c <motor_init>
    4074:	4505                	li	a0,1
    4076:	2849                	jal	4108 <key_init>
    4078:	4509                	li	a0,2
    407a:	2079                	jal	4108 <key_init>
    407c:	450d                	li	a0,3
    407e:	2069                	jal	4108 <key_init>
    4080:	4511                	li	a0,4
    4082:	2059                	jal	4108 <key_init>
    4084:	4515                	li	a0,5
    4086:	2049                	jal	4108 <key_init>
    4088:	4519                	li	a0,6
    408a:	28bd                	jal	4108 <key_init>
    408c:	4509                	li	a0,2
    408e:	ad1fd0ef          	jal	ra,1b5e <adc_init>
    4092:	450d                	li	a0,3
    4094:	acbfd0ef          	jal	ra,1b5e <adc_init>
    4098:	4511                	li	a0,4
    409a:	ac5fd0ef          	jal	ra,1b5e <adc_init>
    409e:	4515                	li	a0,5
    40a0:	abffd0ef          	jal	ra,1b5e <adc_init>
    40a4:	4519                	li	a0,6
    40a6:	ab9fd0ef          	jal	ra,1b5e <adc_init>
    40aa:	4505                	li	a0,1
    40ac:	f81ff0ef          	jal	ra,402c <board_led_init>
    40b0:	4509                	li	a0,2
    40b2:	f7bff0ef          	jal	ra,402c <board_led_init>
    40b6:	ceafd0ef          	jal	ra,15a0 <ws2812b_init>
    40ba:	22e9                	jal	4284 <reed_init>
    40bc:	ea1fd0ef          	jal	ra,1f5c <interrupt_global_enable>
    40c0:	0bb00513          	li	a0,187
    40c4:	8601ae23          	sw	zero,-1924(gp) # 20000204 <flagLED>
    40c8:	780040ef          	jal	ra,8848 <malloc>
    40cc:	200067b7          	lui	a5,0x20006
    40d0:	b4a7a623          	sw	a0,-1204(a5) # 20005b4c <arrays>
    40d4:	0a850713          	addi	a4,a0,168
    40d8:	87aa                	mv	a5,a0
    40da:	0007a023          	sw	zero,0(a5)
    40de:	0791                	addi	a5,a5,4
    40e0:	fee79de3          	bne	a5,a4,40da <car_init+0x82>
    40e4:	4791                	li	a5,4
    40e6:	c11c                	sw	a5,0(a0)
    40e8:	40b2                	lw	ra,12(sp)
    40ea:	478d                	li	a5,3
    40ec:	4705                	li	a4,1
    40ee:	0af52423          	sw	a5,168(a0)
    40f2:	4789                	li	a5,2
    40f4:	c158                	sw	a4,4(a0)
    40f6:	d15c                	sw	a5,36(a0)
    40f8:	c178                	sw	a4,68(a0)
    40fa:	d17c                	sw	a5,100(a0)
    40fc:	08e52223          	sw	a4,132(a0)
    4100:	0af52223          	sw	a5,164(a0)
    4104:	0141                	addi	sp,sp,16
    4106:	8082                	ret

00004108 <key_init>:
    4108:	1141                	addi	sp,sp,-16
    410a:	c422                	sw	s0,8(sp)
    410c:	c606                	sw	ra,12(sp)
    410e:	4785                	li	a5,1
    4110:	842a                	mv	s0,a0
    4112:	02f51463          	bne	a0,a5,413a <key_init+0x32>
    4116:	34800693          	li	a3,840
    411a:	4605                	li	a2,1
    411c:	4581                	li	a1,0
    411e:	04000513          	li	a0,64
    4122:	cd7fd0ef          	jal	ra,1df8 <gpio_init>
    4126:	4799                	li	a5,6
    4128:	06f41563          	bne	s0,a5,4192 <key_init+0x8a>
    412c:	34800693          	li	a3,840
    4130:	4605                	li	a2,1
    4132:	4581                	li	a1,0
    4134:	04500513          	li	a0,69
    4138:	a025                	j	4160 <key_init+0x58>
    413a:	4789                	li	a5,2
    413c:	00f51963          	bne	a0,a5,414e <key_init+0x46>
    4140:	34800693          	li	a3,840
    4144:	4605                	li	a2,1
    4146:	4581                	li	a1,0
    4148:	04100513          	li	a0,65
    414c:	bfd9                	j	4122 <key_init+0x1a>
    414e:	478d                	li	a5,3
    4150:	00f51d63          	bne	a0,a5,416a <key_init+0x62>
    4154:	34800693          	li	a3,840
    4158:	4605                	li	a2,1
    415a:	4581                	li	a1,0
    415c:	04200513          	li	a0,66
    4160:	4422                	lw	s0,8(sp)
    4162:	40b2                	lw	ra,12(sp)
    4164:	0141                	addi	sp,sp,16
    4166:	c93fd06f          	j	1df8 <gpio_init>
    416a:	4791                	li	a5,4
    416c:	00f51963          	bne	a0,a5,417e <key_init+0x76>
    4170:	34800693          	li	a3,840
    4174:	4605                	li	a2,1
    4176:	4581                	li	a1,0
    4178:	04300513          	li	a0,67
    417c:	b7d5                	j	4160 <key_init+0x58>
    417e:	4795                	li	a5,5
    4180:	faf513e3          	bne	a0,a5,4126 <key_init+0x1e>
    4184:	34800693          	li	a3,840
    4188:	4605                	li	a2,1
    418a:	4581                	li	a1,0
    418c:	04400513          	li	a0,68
    4190:	bfc1                	j	4160 <key_init+0x58>
    4192:	40b2                	lw	ra,12(sp)
    4194:	4422                	lw	s0,8(sp)
    4196:	0141                	addi	sp,sp,16
    4198:	8082                	ret

0000419a <car_both_rgb_on>:
    419a:	1141                	addi	sp,sp,-16
    419c:	c606                	sw	ra,12(sp)
    419e:	c422                	sw	s0,8(sp)
    41a0:	ed01                	bnez	a0,41b8 <car_both_rgb_on+0x1e>
    41a2:	82018513          	addi	a0,gp,-2016 # 200001a8 <rgb_red>
    41a6:	b4afd0ef          	jal	ra,14f0 <ws2812b_write>
    41aa:	82018513          	addi	a0,gp,-2016 # 200001a8 <rgb_red>
    41ae:	4422                	lw	s0,8(sp)
    41b0:	40b2                	lw	ra,12(sp)
    41b2:	0141                	addi	sp,sp,16
    41b4:	b3cfd06f          	j	14f0 <ws2812b_write>
    41b8:	4785                	li	a5,1
    41ba:	00f51963          	bne	a0,a5,41cc <car_both_rgb_on+0x32>
    41be:	82818513          	addi	a0,gp,-2008 # 200001b0 <rgb_yellow>
    41c2:	b2efd0ef          	jal	ra,14f0 <ws2812b_write>
    41c6:	82818513          	addi	a0,gp,-2008 # 200001b0 <rgb_yellow>
    41ca:	b7d5                	j	41ae <car_both_rgb_on+0x14>
    41cc:	4789                	li	a5,2
    41ce:	00f51963          	bne	a0,a5,41e0 <car_both_rgb_on+0x46>
    41d2:	82418513          	addi	a0,gp,-2012 # 200001ac <rgb_white>
    41d6:	b1afd0ef          	jal	ra,14f0 <ws2812b_write>
    41da:	82418513          	addi	a0,gp,-2012 # 200001ac <rgb_white>
    41de:	bfc1                	j	41ae <car_both_rgb_on+0x14>
    41e0:	4791                	li	a5,4
    41e2:	00f51963          	bne	a0,a5,41f4 <car_both_rgb_on+0x5a>
    41e6:	81018513          	addi	a0,gp,-2032 # 20000198 <rgb_blue>
    41ea:	b06fd0ef          	jal	ra,14f0 <ws2812b_write>
    41ee:	81018513          	addi	a0,gp,-2032 # 20000198 <rgb_blue>
    41f2:	bf75                	j	41ae <car_both_rgb_on+0x14>
    41f4:	478d                	li	a5,3
    41f6:	00f51963          	bne	a0,a5,4208 <car_both_rgb_on+0x6e>
    41fa:	81818513          	addi	a0,gp,-2024 # 200001a0 <rgb_green>
    41fe:	af2fd0ef          	jal	ra,14f0 <ws2812b_write>
    4202:	81818513          	addi	a0,gp,-2024 # 200001a0 <rgb_green>
    4206:	b765                	j	41ae <car_both_rgb_on+0x14>
    4208:	4795                	li	a5,5
    420a:	00f51963          	bne	a0,a5,421c <car_both_rgb_on+0x82>
    420e:	81418513          	addi	a0,gp,-2028 # 2000019c <rgb_cyan>
    4212:	adefd0ef          	jal	ra,14f0 <ws2812b_write>
    4216:	81418513          	addi	a0,gp,-2028 # 2000019c <rgb_cyan>
    421a:	bf51                	j	41ae <car_both_rgb_on+0x14>
    421c:	4799                	li	a5,6
    421e:	00f51963          	bne	a0,a5,4230 <car_both_rgb_on+0x96>
    4222:	81c18513          	addi	a0,gp,-2020 # 200001a4 <rgb_purple>
    4226:	acafd0ef          	jal	ra,14f0 <ws2812b_write>
    422a:	81c18513          	addi	a0,gp,-2020 # 200001a4 <rgb_purple>
    422e:	b741                	j	41ae <car_both_rgb_on+0x14>
    4230:	40b2                	lw	ra,12(sp)
    4232:	4422                	lw	s0,8(sp)
    4234:	0141                	addi	sp,sp,16
    4236:	8082                	ret

00004238 <car_both_rgb_off>:
    4238:	1141                	addi	sp,sp,-16
    423a:	c422                	sw	s0,8(sp)
    423c:	86018513          	addi	a0,gp,-1952 # 200001e8 <rgb_off>
    4240:	c606                	sw	ra,12(sp)
    4242:	aaefd0ef          	jal	ra,14f0 <ws2812b_write>
    4246:	86018513          	addi	a0,gp,-1952 # 200001e8 <rgb_off>
    424a:	4422                	lw	s0,8(sp)
    424c:	40b2                	lw	ra,12(sp)
    424e:	0141                	addi	sp,sp,16
    4250:	aa0fd06f          	j	14f0 <ws2812b_write>

00004254 <car_yellow_left>:
    4254:	1141                	addi	sp,sp,-16
    4256:	86018513          	addi	a0,gp,-1952 # 200001e8 <rgb_off>
    425a:	c606                	sw	ra,12(sp)
    425c:	a94fd0ef          	jal	ra,14f0 <ws2812b_write>
    4260:	40b2                	lw	ra,12(sp)
    4262:	82818513          	addi	a0,gp,-2008 # 200001b0 <rgb_yellow>
    4266:	0141                	addi	sp,sp,16
    4268:	a88fd06f          	j	14f0 <ws2812b_write>

0000426c <car_yellow_right>:
    426c:	1141                	addi	sp,sp,-16
    426e:	82818513          	addi	a0,gp,-2008 # 200001b0 <rgb_yellow>
    4272:	c606                	sw	ra,12(sp)
    4274:	a7cfd0ef          	jal	ra,14f0 <ws2812b_write>
    4278:	40b2                	lw	ra,12(sp)
    427a:	86018513          	addi	a0,gp,-1952 # 200001e8 <rgb_off>
    427e:	0141                	addi	sp,sp,16
    4280:	a70fd06f          	j	14f0 <ws2812b_write>

00004284 <reed_init>:
    4284:	04800693          	li	a3,72
    4288:	4605                	li	a2,1
    428a:	4581                	li	a1,0
    428c:	06a00513          	li	a0,106
    4290:	b69fd06f          	j	1df8 <gpio_init>

00004294 <Abs>:
    4294:	1101                	addi	sp,sp,-32
    4296:	cc22                	sw	s0,24(sp)
    4298:	ca26                	sw	s1,20(sp)
    429a:	c84a                	sw	s2,16(sp)
    429c:	c64e                	sw	s3,12(sp)
    429e:	c452                	sw	s4,8(sp)
    42a0:	c256                	sw	s5,4(sp)
    42a2:	ce06                	sw	ra,28(sp)
    42a4:	8932                	mv	s2,a2
    42a6:	89b6                	mv	s3,a3
    42a8:	8a2a                	mv	s4,a0
    42aa:	8aae                	mv	s5,a1
    42ac:	096030ef          	jal	ra,7342 <__subdf3>
    42b0:	4601                	li	a2,0
    42b2:	4681                	li	a3,0
    42b4:	842a                	mv	s0,a0
    42b6:	84ae                	mv	s1,a1
    42b8:	31d020ef          	jal	ra,6dd4 <__ledf2>
    42bc:	00055a63          	bgez	a0,42d0 <Abs+0x3c>
    42c0:	8652                	mv	a2,s4
    42c2:	86d6                	mv	a3,s5
    42c4:	854a                	mv	a0,s2
    42c6:	85ce                	mv	a1,s3
    42c8:	07a030ef          	jal	ra,7342 <__subdf3>
    42cc:	842a                	mv	s0,a0
    42ce:	84ae                	mv	s1,a1
    42d0:	8522                	mv	a0,s0
    42d2:	40f2                	lw	ra,28(sp)
    42d4:	4462                	lw	s0,24(sp)
    42d6:	85a6                	mv	a1,s1
    42d8:	4942                	lw	s2,16(sp)
    42da:	44d2                	lw	s1,20(sp)
    42dc:	49b2                	lw	s3,12(sp)
    42de:	4a22                	lw	s4,8(sp)
    42e0:	4a92                	lw	s5,4(sp)
    42e2:	6105                	addi	sp,sp,32
    42e4:	8082                	ret

000042e6 <CenterLine>:
    42e6:	7175                	addi	sp,sp,-144
    42e8:	4785                	li	a5,1
    42ea:	ceee                	sw	s11,92(sp)
    42ec:	20006e37          	lui	t3,0x20006
    42f0:	8daa                	mv	s11,a0
    42f2:	20006537          	lui	a0,0x20006
    42f6:	88f18623          	sb	a5,-1908(gp) # 20000214 <first1>
    42fa:	b2fe0fa3          	sb	a5,-1217(t3) # 20005b3f <first2>
    42fe:	98f182a3          	sb	a5,-1659(gp) # 2000030d <first3>
    4302:	b9450793          	addi	a5,a0,-1132 # 20005b94 <Center_line>
    4306:	d63e                	sw	a5,44(sp)
    4308:	89018793          	addi	a5,gp,-1904 # 20000218 <Right_line>
    430c:	d8da                	sw	s6,112(sp)
    430e:	cc3e                	sw	a5,24(sp)
    4310:	90818b13          	addi	s6,gp,-1784 # 20000290 <Left_line>
    4314:	90818793          	addi	a5,gp,-1784 # 20000290 <Left_line>
    4318:	0000a637          	lui	a2,0xa
    431c:	ce3e                	sw	a5,28(sp)
    431e:	3d062783          	lw	a5,976(a2) # a3d0 <UARTN+0x28>
    4322:	c522                	sw	s0,136(sp)
    4324:	200066b7          	lui	a3,0x20006
    4328:	200062b7          	lui	t0,0x20006
    432c:	20006eb7          	lui	t4,0x20006
    4330:	07700713          	li	a4,119
    4334:	c326                	sw	s1,132(sp)
    4336:	c14a                	sw	s2,128(sp)
    4338:	dece                	sw	s3,124(sp)
    433a:	dcd2                	sw	s4,120(sp)
    433c:	dad6                	sw	s5,116(sp)
    433e:	d6de                	sw	s7,108(sp)
    4340:	d4e2                	sw	s8,104(sp)
    4342:	d2e6                	sw	s9,100(sp)
    4344:	d0ea                	sw	s10,96(sp)
    4346:	c706                	sw	ra,140(sp)
    4348:	b4068a23          	sb	zero,-1196(a3) # 20005b54 <white_line>
    434c:	8801a423          	sw	zero,-1912(gp) # 20000210 <num_white>
    4350:	d602aa23          	sw	zero,-652(t0) # 20005d74 <num_L>
    4354:	9801a023          	sw	zero,-1664(gp) # 20000308 <num_R>
    4358:	8801a223          	sw	zero,-1916(gp) # 2000020c <num_R_row>
    435c:	b20e8ea3          	sb	zero,-1219(t4) # 20005b3d <WtoB_R>
    4360:	98e18223          	sb	a4,-1660(gp) # 2000030c <WtoB_L>
    4364:	d07e                	sw	t6,32(sp)
    4366:	d276                	sw	t4,36(sp)
    4368:	c872                	sw	t3,16(sp)
    436a:	d41a                	sw	t1,40(sp)
    436c:	ca46                	sw	a7,20(sp)
    436e:	3d462803          	lw	a6,980(a2)
    4372:	6615                	lui	a2,0x5
    4374:	d83e                	sw	a5,48(sp)
    4376:	7c260793          	addi	a5,a2,1986 # 57c2 <DevEP1_OUT_Deal+0xc>
    437a:	dc3e                	sw	a5,56(sp)
    437c:	b5468793          	addi	a5,a3,-1196
    4380:	b9450493          	addi	s1,a0,-1132
    4384:	89018a93          	addi	s5,gp,-1904 # 20000218 <Right_line>
    4388:	07700a13          	li	s4,119
    438c:	8b9e                	mv	s7,t2
    438e:	8c16                	mv	s8,t0
    4390:	8cfa                	mv	s9,t5
    4392:	da42                	sw	a6,52(sp)
    4394:	0ff00913          	li	s2,255
    4398:	0bb00993          	li	s3,187
    439c:	4d05                	li	s10,1
    439e:	de3e                	sw	a5,60(sp)
    43a0:	07700793          	li	a5,119
    43a4:	18fa1b63          	bne	s4,a5,453a <CenterLine+0x254>
    43a8:	6795                	lui	a5,0x5
    43aa:	7c178793          	addi	a5,a5,1985 # 57c1 <DevEP1_OUT_Deal+0xb>
    43ae:	00fd8633          	add	a2,s11,a5
    43b2:	05e00693          	li	a3,94
    43b6:	00164503          	lbu	a0,1(a2)
    43ba:	fff68593          	addi	a1,a3,-1
    43be:	15251c63          	bne	a0,s2,4516 <CenterLine+0x230>
    43c2:	00064503          	lbu	a0,0(a2)
    43c6:	14051863          	bnez	a0,4516 <CenterLine+0x230>
    43ca:	47f2                	lw	a5,28(sp)
    43cc:	06d78ba3          	sb	a3,119(a5)
    43d0:	57e2                	lw	a5,56(sp)
    43d2:	05e00693          	li	a3,94
    43d6:	00fd8633          	add	a2,s11,a5
    43da:	00064503          	lbu	a0,0(a2)
    43de:	00168593          	addi	a1,a3,1
    43e2:	15251263          	bne	a0,s2,4526 <CenterLine+0x240>
    43e6:	00164503          	lbu	a0,1(a2)
    43ea:	12051e63          	bnez	a0,4526 <CenterLine+0x240>
    43ee:	47e2                	lw	a5,24(sp)
    43f0:	06d78ba3          	sb	a3,119(a5)
    43f4:	077ac683          	lbu	a3,119(s5)
    43f8:	05e00793          	li	a5,94
    43fc:	077b4583          	lbu	a1,119(s6)
    4400:	0af68063          	beq	a3,a5,44a0 <CenterLine+0x1ba>
    4404:	08f58e63          	beq	a1,a5,44a0 <CenterLine+0x1ba>
    4408:	4789                	li	a5,2
    440a:	02b7e663          	bltu	a5,a1,4436 <CenterLine+0x150>
    440e:	0b700793          	li	a5,183
    4412:	02d7f263          	bgeu	a5,a3,4436 <CenterLine+0x150>
    4416:	feca0613          	addi	a2,s4,-20
    441a:	05a00793          	li	a5,90
    441e:	00c7ec63          	bltu	a5,a2,4436 <CenterLine+0x150>
    4422:	8881a603          	lw	a2,-1912(gp) # 20000210 <num_white>
    4426:	57f2                	lw	a5,60(sp)
    4428:	00f60533          	add	a0,a2,a5
    442c:	0605                	addi	a2,a2,1
    442e:	01450023          	sb	s4,0(a0)
    4432:	88c1a423          	sw	a2,-1912(gp) # 20000210 <num_white>
    4436:	1c059e63          	bnez	a1,4612 <CenterLine+0x32c>
    443a:	01368763          	beq	a3,s3,4448 <CenterLine+0x162>
    443e:	d74c2603          	lw	a2,-652(s8)
    4442:	0605                	addi	a2,a2,1
    4444:	d6cc2a23          	sw	a2,-652(s8)
    4448:	07500793          	li	a5,117
    444c:	0547ca63          	blt	a5,s4,44a0 <CenterLine+0x1ba>
    4450:	078ac603          	lbu	a2,120(s5)
    4454:	57fd                	li	a5,-1
    4456:	40c68533          	sub	a0,a3,a2
    445a:	02f55163          	bge	a0,a5,447c <CenterLine+0x196>
    445e:	47c2                	lw	a5,16(sp)
    4460:	b3f7c503          	lbu	a0,-1217(a5)
    4464:	01a51c63          	bne	a0,s10,447c <CenterLine+0x196>
    4468:	01361a63          	bne	a2,s3,447c <CenterLine+0x196>
    446c:	5792                	lw	a5,36(sp)
    446e:	001a0613          	addi	a2,s4,1
    4472:	b2c78ea3          	sb	a2,-1219(a5)
    4476:	47c2                	lw	a5,16(sp)
    4478:	b2078fa3          	sb	zero,-1217(a5)
    447c:	078b4603          	lbu	a2,120(s6)
    4480:	40c58533          	sub	a0,a1,a2
    4484:	00ad5e63          	bge	s10,a0,44a0 <CenterLine+0x1ba>
    4488:	47d2                	lw	a5,20(sp)
    448a:	9851c503          	lbu	a0,-1659(gp) # 2000030d <first3>
    448e:	01a51963          	bne	a0,s10,44a0 <CenterLine+0x1ba>
    4492:	e619                	bnez	a2,44a0 <CenterLine+0x1ba>
    4494:	57a2                	lw	a5,40(sp)
    4496:	99418223          	sb	s4,-1660(gp) # 2000030c <WtoB_L>
    449a:	47d2                	lw	a5,20(sp)
    449c:	980182a3          	sb	zero,-1659(gp) # 2000030d <first3>
    44a0:	96ae                	add	a3,a3,a1
    44a2:	8685                	srai	a3,a3,0x1
    44a4:	06d48ba3          	sb	a3,119(s1)
    44a8:	1a7d                	addi	s4,s4,-1
    44aa:	14fd                	addi	s1,s1,-1
    44ac:	1afd                	addi	s5,s5,-1
    44ae:	1b7d                	addi	s6,s6,-1
    44b0:	ee0a18e3          	bnez	s4,43a0 <CenterLine+0xba>
    44b4:	92aff0ef          	jal	ra,35de <road_type>
    44b8:	fa0ff0ef          	jal	ra,3c58 <Cross_Round_control>
    44bc:	8641a703          	lw	a4,-1948(gp) # 200001ec <flag>
    44c0:	4685                	li	a3,1
    44c2:	9b75                	andi	a4,a4,-3
    44c4:	00d71463          	bne	a4,a3,44cc <CenterLine+0x1e6>
    44c8:	ca1fe0ef          	jal	ra,3168 <correct_bend_error>
    44cc:	200006b7          	lui	a3,0x20000
    44d0:	0bc00513          	li	a0,188
    44d4:	31468693          	addi	a3,a3,788 # 20000314 <Pixel>
    44d8:	07700613          	li	a2,119
    44dc:	57b2                	lw	a5,44(sp)
    44de:	01478733          	add	a4,a5,s4
    44e2:	00074583          	lbu	a1,0(a4)
    44e6:	02aa0733          	mul	a4,s4,a0
    44ea:	0a05                	addi	s4,s4,1
    44ec:	9736                	add	a4,a4,a3
    44ee:	972e                	add	a4,a4,a1
    44f0:	00070023          	sb	zero,0(a4)
    44f4:	feca14e3          	bne	s4,a2,44dc <CenterLine+0x1f6>
    44f8:	40ba                	lw	ra,140(sp)
    44fa:	442a                	lw	s0,136(sp)
    44fc:	449a                	lw	s1,132(sp)
    44fe:	490a                	lw	s2,128(sp)
    4500:	59f6                	lw	s3,124(sp)
    4502:	5a66                	lw	s4,120(sp)
    4504:	5ad6                	lw	s5,116(sp)
    4506:	5b46                	lw	s6,112(sp)
    4508:	5bb6                	lw	s7,108(sp)
    450a:	5c26                	lw	s8,104(sp)
    450c:	5c96                	lw	s9,100(sp)
    450e:	5d06                	lw	s10,96(sp)
    4510:	4df6                	lw	s11,92(sp)
    4512:	6149                	addi	sp,sp,144
    4514:	8082                	ret
    4516:	167d                	addi	a2,a2,-1
    4518:	86ae                	mv	a3,a1
    451a:	e8059ee3          	bnez	a1,43b6 <CenterLine+0xd0>
    451e:	47f2                	lw	a5,28(sp)
    4520:	06078ba3          	sb	zero,119(a5)
    4524:	b575                	j	43d0 <CenterLine+0xea>
    4526:	0605                	addi	a2,a2,1
    4528:	86ae                	mv	a3,a1
    452a:	eb3598e3          	bne	a1,s3,43da <CenterLine+0xf4>
    452e:	47e2                	lw	a5,24(sp)
    4530:	fbb00713          	li	a4,-69
    4534:	06e78ba3          	sb	a4,119(a5)
    4538:	bd75                	j	43f4 <CenterLine+0x10e>
    453a:	078ac503          	lbu	a0,120(s5)
    453e:	61c030ef          	jal	ra,7b5a <__floatunsidf>
    4542:	c42a                	sw	a0,8(sp)
    4544:	078b4503          	lbu	a0,120(s6)
    4548:	c62e                	sw	a1,12(sp)
    454a:	610030ef          	jal	ra,7b5a <__floatunsidf>
    454e:	862a                	mv	a2,a0
    4550:	86ae                	mv	a3,a1
    4552:	c4aa                	sw	a0,72(sp)
    4554:	c6ae                	sw	a1,76(sp)
    4556:	4522                	lw	a0,8(sp)
    4558:	45b2                	lw	a1,12(sp)
    455a:	5e9020ef          	jal	ra,7342 <__subdf3>
    455e:	4601                	li	a2,0
    4560:	4681                	li	a3,0
    4562:	c0aa                	sw	a0,64(sp)
    4564:	c2ae                	sw	a1,68(sp)
    4566:	06f020ef          	jal	ra,6dd4 <__ledf2>
    456a:	4706                	lw	a4,64(sp)
    456c:	4796                	lw	a5,68(sp)
    456e:	4826                	lw	a6,72(sp)
    4570:	48b6                	lw	a7,76(sp)
    4572:	00055a63          	bgez	a0,4586 <CenterLine+0x2a0>
    4576:	4622                	lw	a2,8(sp)
    4578:	46b2                	lw	a3,12(sp)
    457a:	8542                	mv	a0,a6
    457c:	85c6                	mv	a1,a7
    457e:	5c5020ef          	jal	ra,7342 <__subdf3>
    4582:	872a                	mv	a4,a0
    4584:	87ae                	mv	a5,a1
    4586:	5642                	lw	a2,48(sp)
    4588:	56d2                	lw	a3,52(sp)
    458a:	853a                	mv	a0,a4
    458c:	85be                	mv	a1,a5
    458e:	798020ef          	jal	ra,6d26 <__gedf2>
    4592:	06054963          	bltz	a0,4604 <CenterLine+0x31e>
    4596:	0bc00793          	li	a5,188
    459a:	02fa0633          	mul	a2,s4,a5
    459e:	0784c683          	lbu	a3,120(s1)
    45a2:	85b6                	mv	a1,a3
    45a4:	966e                	add	a2,a2,s11
    45a6:	c18d                	beqz	a1,45c8 <CenterLine+0x2e2>
    45a8:	00b608b3          	add	a7,a2,a1
    45ac:	0008c883          	lbu	a7,0(a7)
    45b0:	fff58513          	addi	a0,a1,-1
    45b4:	03289e63          	bne	a7,s2,45f0 <CenterLine+0x30a>
    45b8:	00a608b3          	add	a7,a2,a0
    45bc:	0008c883          	lbu	a7,0(a7)
    45c0:	02089863          	bnez	a7,45f0 <CenterLine+0x30a>
    45c4:	06bb0ba3          	sb	a1,119(s6)
    45c8:	0ba00793          	li	a5,186
    45cc:	e2d7c4e3          	blt	a5,a3,43f4 <CenterLine+0x10e>
    45d0:	00d60533          	add	a0,a2,a3
    45d4:	00054503          	lbu	a0,0(a0)
    45d8:	00168593          	addi	a1,a3,1
    45dc:	01251e63          	bne	a0,s2,45f8 <CenterLine+0x312>
    45e0:	00b60533          	add	a0,a2,a1
    45e4:	00054503          	lbu	a0,0(a0)
    45e8:	e901                	bnez	a0,45f8 <CenterLine+0x312>
    45ea:	06da8ba3          	sb	a3,119(s5)
    45ee:	b519                	j	43f4 <CenterLine+0x10e>
    45f0:	060b0ba3          	sb	zero,119(s6)
    45f4:	85aa                	mv	a1,a0
    45f6:	bf45                	j	45a6 <CenterLine+0x2c0>
    45f8:	fbb00793          	li	a5,-69
    45fc:	06fa8ba3          	sb	a5,119(s5)
    4600:	86ae                	mv	a3,a1
    4602:	b7d9                	j	45c8 <CenterLine+0x2e2>
    4604:	05e00793          	li	a5,94
    4608:	06fa8ba3          	sb	a5,119(s5)
    460c:	06fb0ba3          	sb	a5,119(s6)
    4610:	b3d5                	j	43f4 <CenterLine+0x10e>
    4612:	e3369be3          	bne	a3,s3,4448 <CenterLine+0x162>
    4616:	88c1c603          	lbu	a2,-1908(gp) # 20000214 <first1>
    461a:	01a61763          	bne	a2,s10,4628 <CenterLine+0x342>
    461e:	5782                	lw	a5,32(sp)
    4620:	88018623          	sb	zero,-1908(gp) # 20000214 <first1>
    4624:	8941a223          	sw	s4,-1916(gp) # 2000020c <num_R_row>
    4628:	9801a603          	lw	a2,-1664(gp) # 20000308 <num_R>
    462c:	0605                	addi	a2,a2,1
    462e:	98c1a023          	sw	a2,-1664(gp) # 20000308 <num_R>
    4632:	bd19                	j	4448 <CenterLine+0x162>

00004634 <init_PID>:
    4634:	03200693          	li	a3,50
    4638:	20006737          	lui	a4,0x20006
    463c:	c1070793          	addi	a5,a4,-1008 # 20005c10 <car_mode>
    4640:	c0d72823          	sw	a3,-1008(a4)
    4644:	6709                	lui	a4,0x2
    4646:	32870613          	addi	a2,a4,808 # 2328 <pwm_gpio_init+0x37a>
    464a:	c7d0                	sw	a2,12(a5)
    464c:	04600613          	li	a2,70
    4650:	cf90                	sw	a2,24(a5)
    4652:	07300613          	li	a2,115
    4656:	cb90                	sw	a2,16(a5)
    4658:	45f9                	li	a1,30
    465a:	13470613          	addi	a2,a4,308
    465e:	f4070713          	addi	a4,a4,-192
    4662:	c78c                	sw	a1,8(a5)
    4664:	cfd0                	sw	a2,28(a5)
    4666:	d38c                	sw	a1,32(a5)
    4668:	d7d0                	sw	a2,44(a5)
    466a:	df94                	sw	a3,56(a5)
    466c:	dfd0                	sw	a2,60(a5)
    466e:	c7b4                	sw	a3,72(a5)
    4670:	c7f8                	sw	a4,76(a5)
    4672:	cfb4                	sw	a3,88(a5)
    4674:	cff8                	sw	a4,92(a5)
    4676:	00000693          	li	a3,0
    467a:	2000b737          	lui	a4,0x2000b
    467e:	04b00613          	li	a2,75
    4682:	4551                	li	a0,20
    4684:	05000593          	li	a1,80
    4688:	0007a223          	sw	zero,4(a5)
    468c:	0007aa23          	sw	zero,20(a5)
    4690:	d788                	sw	a0,40(a5)
    4692:	0207a223          	sw	zero,36(a5)
    4696:	0207aa23          	sw	zero,52(a5)
    469a:	db8c                	sw	a1,48(a5)
    469c:	0407a223          	sw	zero,68(a5)
    46a0:	c3b0                	sw	a2,64(a5)
    46a2:	0407aa23          	sw	zero,84(a5)
    46a6:	cbb0                	sw	a2,80(a5)
    46a8:	58d72e23          	sw	a3,1436(a4) # 2000b59c <L_PID>
    46ac:	59c70793          	addi	a5,a4,1436
    46b0:	2000b737          	lui	a4,0x2000b
    46b4:	c3d4                	sw	a3,4(a5)
    46b6:	c794                	sw	a3,8(a5)
    46b8:	c7d4                	sw	a3,12(a5)
    46ba:	cb94                	sw	a3,16(a5)
    46bc:	5b070793          	addi	a5,a4,1456 # 2000b5b0 <R_PID>
    46c0:	c3d4                	sw	a3,4(a5)
    46c2:	c794                	sw	a3,8(a5)
    46c4:	c7d4                	sw	a3,12(a5)
    46c6:	cb94                	sw	a3,16(a5)
    46c8:	5ad72823          	sw	a3,1456(a4)
    46cc:	8082                	ret

000046ce <Car_PID_ERROR>:
    46ce:	7179                	addi	sp,sp,-48
    46d0:	d606                	sw	ra,44(sp)
    46d2:	d422                	sw	s0,40(sp)
    46d4:	d226                	sw	s1,36(sp)
    46d6:	d04a                	sw	s2,32(sp)
    46d8:	ce4e                	sw	s3,28(sp)
    46da:	cc52                	sw	s4,24(sp)
    46dc:	892e                	mv	s2,a1
    46de:	c14c                	sw	a1,4(a0)
    46e0:	454c                	lw	a1,12(a0)
    46e2:	842a                	mv	s0,a0
    46e4:	854a                	mv	a0,s2
    46e6:	84b2                	mv	s1,a2
    46e8:	4da030ef          	jal	ra,7bc2 <__addsf3>
    46ec:	200067b7          	lui	a5,0x20006
    46f0:	c1078793          	addi	a5,a5,-1008 # 20005c10 <car_mode>
    46f4:	0492                	slli	s1,s1,0x4
    46f6:	94be                	add	s1,s1,a5
    46f8:	89aa                	mv	s3,a0
    46fa:	c448                	sw	a0,12(s0)
    46fc:	4488                	lw	a0,8(s1)
    46fe:	7af030ef          	jal	ra,86ac <__floatsisf>
    4702:	440c                	lw	a1,8(s0)
    4704:	8a2a                	mv	s4,a0
    4706:	854a                	mv	a0,s2
    4708:	3c7030ef          	jal	ra,82ce <__subsf3>
    470c:	85aa                	mv	a1,a0
    470e:	8552                	mv	a0,s4
    4710:	12f030ef          	jal	ra,803e <__mulsf3>
    4714:	8a2a                	mv	s4,a0
    4716:	4088                	lw	a0,0(s1)
    4718:	795030ef          	jal	ra,86ac <__floatsisf>
    471c:	85ca                	mv	a1,s2
    471e:	121030ef          	jal	ra,803e <__mulsf3>
    4722:	85aa                	mv	a1,a0
    4724:	8552                	mv	a0,s4
    4726:	49c030ef          	jal	ra,7bc2 <__addsf3>
    472a:	8a2a                	mv	s4,a0
    472c:	40c8                	lw	a0,4(s1)
    472e:	77f030ef          	jal	ra,86ac <__floatsisf>
    4732:	85ce                	mv	a1,s3
    4734:	10b030ef          	jal	ra,803e <__mulsf3>
    4738:	85aa                	mv	a1,a0
    473a:	8552                	mv	a0,s4
    473c:	486030ef          	jal	ra,7bc2 <__addsf3>
    4740:	44c4                	lw	s1,12(s1)
    4742:	c808                	sw	a0,16(s0)
    4744:	c62a                	sw	a0,12(sp)
    4746:	8526                	mv	a0,s1
    4748:	765030ef          	jal	ra,86ac <__floatsisf>
    474c:	45b2                	lw	a1,12(sp)
    474e:	474030ef          	jal	ra,7bc2 <__addsf3>
    4752:	0000a7b7          	lui	a5,0xa
    4756:	4207a583          	lw	a1,1056(a5) # a420 <UARTN+0x78>
    475a:	7d2030ef          	jal	ra,7f2c <__gesf2>
    475e:	00054963          	bltz	a0,4770 <Car_PID_ERROR+0xa2>
    4762:	6509                	lui	a0,0x2
    4764:	71050513          	addi	a0,a0,1808 # 2710 <spi_gpio_init+0x12e>
    4768:	8d05                	sub	a0,a0,s1
    476a:	743030ef          	jal	ra,86ac <__floatsisf>
    476e:	c808                	sw	a0,16(s0)
    4770:	40900533          	neg	a0,s1
    4774:	739030ef          	jal	ra,86ac <__floatsisf>
    4778:	85aa                	mv	a1,a0
    477a:	4808                	lw	a0,16(s0)
    477c:	037030ef          	jal	ra,7fb2 <__lesf2>
    4780:	00a04563          	bgtz	a0,478a <Car_PID_ERROR+0xbc>
    4784:	00000793          	li	a5,0
    4788:	c81c                	sw	a5,16(s0)
    478a:	01242423          	sw	s2,8(s0)
    478e:	4808                	lw	a0,16(s0)
    4790:	50b2                	lw	ra,44(sp)
    4792:	5422                	lw	s0,40(sp)
    4794:	5492                	lw	s1,36(sp)
    4796:	5902                	lw	s2,32(sp)
    4798:	49f2                	lw	s3,28(sp)
    479a:	4a62                	lw	s4,24(sp)
    479c:	6145                	addi	sp,sp,48
    479e:	8082                	ret

000047a0 <error_average>:
    47a0:	1101                	addi	sp,sp,-32
    47a2:	cc22                	sw	s0,24(sp)
    47a4:	20006437          	lui	s0,0x20006
    47a8:	b9440413          	addi	s0,s0,-1132 # 20005b94 <Center_line>
    47ac:	05a44503          	lbu	a0,90(s0)
    47b0:	ca26                	sw	s1,20(sp)
    47b2:	05e00493          	li	s1,94
    47b6:	40a48533          	sub	a0,s1,a0
    47ba:	ce06                	sw	ra,28(sp)
    47bc:	c84a                	sw	s2,16(sp)
    47be:	c64e                	sw	s3,12(sp)
    47c0:	328030ef          	jal	ra,7ae8 <__floatsidf>
    47c4:	0000a7b7          	lui	a5,0xa
    47c8:	4287a603          	lw	a2,1064(a5) # a428 <UARTN+0x80>
    47cc:	42c7a683          	lw	a3,1068(a5)
    47d0:	6ba020ef          	jal	ra,6e8a <__muldf3>
    47d4:	892a                	mv	s2,a0
    47d6:	05044503          	lbu	a0,80(s0)
    47da:	89ae                	mv	s3,a1
    47dc:	40a48533          	sub	a0,s1,a0
    47e0:	308030ef          	jal	ra,7ae8 <__floatsidf>
    47e4:	0000a7b7          	lui	a5,0xa
    47e8:	4307a603          	lw	a2,1072(a5) # a430 <UARTN+0x88>
    47ec:	4347a683          	lw	a3,1076(a5)
    47f0:	69a020ef          	jal	ra,6e8a <__muldf3>
    47f4:	862a                	mv	a2,a0
    47f6:	86ae                	mv	a3,a1
    47f8:	854a                	mv	a0,s2
    47fa:	85ce                	mv	a1,s3
    47fc:	047010ef          	jal	ra,6042 <__adddf3>
    4800:	892a                	mv	s2,a0
    4802:	04b44503          	lbu	a0,75(s0)
    4806:	89ae                	mv	s3,a1
    4808:	40a48533          	sub	a0,s1,a0
    480c:	2dc030ef          	jal	ra,7ae8 <__floatsidf>
    4810:	0000a7b7          	lui	a5,0xa
    4814:	4387a603          	lw	a2,1080(a5) # a438 <UARTN+0x90>
    4818:	43c7a683          	lw	a3,1084(a5)
    481c:	66e020ef          	jal	ra,6e8a <__muldf3>
    4820:	862a                	mv	a2,a0
    4822:	86ae                	mv	a3,a1
    4824:	854a                	mv	a0,s2
    4826:	85ce                	mv	a1,s3
    4828:	01b010ef          	jal	ra,6042 <__adddf3>
    482c:	254030ef          	jal	ra,7a80 <__fixdfsi>
    4830:	40f2                	lw	ra,28(sp)
    4832:	4462                	lw	s0,24(sp)
    4834:	200067b7          	lui	a5,0x20006
    4838:	b8a7a823          	sw	a0,-1136(a5) # 20005b90 <error>
    483c:	44d2                	lw	s1,20(sp)
    483e:	4942                	lw	s2,16(sp)
    4840:	49b2                	lw	s3,12(sp)
    4842:	6105                	addi	sp,sp,32
    4844:	8082                	ret

00004846 <pid_forward_move>:
    4846:	1101                	addi	sp,sp,-32
    4848:	cc22                	sw	s0,24(sp)
    484a:	c05a                	sw	s6,0(sp)
    484c:	82b1cb03          	lbu	s6,-2005(gp) # 200001b3 <obstacle_flag>
    4850:	c84a                	sw	s2,16(sp)
    4852:	c64e                	sw	s3,12(sp)
    4854:	c452                	sw	s4,8(sp)
    4856:	c256                	sw	s5,4(sp)
    4858:	ce06                	sw	ra,28(sp)
    485a:	ca26                	sw	s1,20(sp)
    485c:	4785                	li	a5,1
    485e:	89aa                	mv	s3,a0
    4860:	8aae                	mv	s5,a1
    4862:	8a32                	mv	s4,a2
    4864:	8936                	mv	s2,a3
    4866:	16fb1563          	bne	s6,a5,49d0 <pid_forward_move+0x18a>
    486a:	8d2fd0ef          	jal	ra,193c <Get_Distance_TOF400C>
    486e:	2000b4b7          	lui	s1,0x2000b
    4872:	862a                	mv	a2,a0
    4874:	5ca4a223          	sw	a0,1476(s1) # 2000b5c4 <get_dis>
    4878:	4691                	li	a3,4
    487a:	03c00593          	li	a1,60
    487e:	0c800513          	li	a0,200
    4882:	82b18413          	addi	s0,gp,-2005 # 200001b3 <obstacle_flag>
    4886:	d6cfc0ef          	jal	ra,df2 <ips114_show_int>
    488a:	00044783          	lbu	a5,0(s0)
    488e:	15679163          	bne	a5,s6,49d0 <pid_forward_move+0x18a>
    4892:	5c44a703          	lw	a4,1476(s1)
    4896:	15e00793          	li	a5,350
    489a:	12e7eb63          	bltu	a5,a4,49d0 <pid_forward_move+0x18a>
    489e:	4581                	li	a1,0
    48a0:	20300513          	li	a0,515
    48a4:	edafd0ef          	jal	ra,1f7e <pwm_duty>
    48a8:	4581                	li	a1,0
    48aa:	10100513          	li	a0,257
    48ae:	ed0fd0ef          	jal	ra,1f7e <pwm_duty>
    48b2:	06400513          	li	a0,100
    48b6:	9acfd0ef          	jal	ra,1a62 <Delay_Ms>
    48ba:	4581                	li	a1,0
    48bc:	20300513          	li	a0,515
    48c0:	6489                	lui	s1,0x2
    48c2:	ebcfd0ef          	jal	ra,1f7e <pwm_duty>
    48c6:	64848593          	addi	a1,s1,1608 # 2648 <spi_gpio_init+0x66>
    48ca:	10100513          	li	a0,257
    48ce:	eb0fd0ef          	jal	ra,1f7e <pwm_duty>
    48d2:	09600513          	li	a0,150
    48d6:	98cfd0ef          	jal	ra,1a62 <Delay_Ms>
    48da:	b5848593          	addi	a1,s1,-1192
    48de:	20300513          	li	a0,515
    48e2:	e9cfd0ef          	jal	ra,1f7e <pwm_duty>
    48e6:	b5848593          	addi	a1,s1,-1192
    48ea:	10100513          	li	a0,257
    48ee:	e90fd0ef          	jal	ra,1f7e <pwm_duty>
    48f2:	3e800513          	li	a0,1000
    48f6:	96cfd0ef          	jal	ra,1a62 <Delay_Ms>
    48fa:	4581                	li	a1,0
    48fc:	20300513          	li	a0,515
    4900:	e7efd0ef          	jal	ra,1f7e <pwm_duty>
    4904:	4581                	li	a1,0
    4906:	10100513          	li	a0,257
    490a:	e74fd0ef          	jal	ra,1f7e <pwm_duty>
    490e:	06400513          	li	a0,100
    4912:	950fd0ef          	jal	ra,1a62 <Delay_Ms>
    4916:	64848593          	addi	a1,s1,1608
    491a:	20300513          	li	a0,515
    491e:	e60fd0ef          	jal	ra,1f7e <pwm_duty>
    4922:	4581                	li	a1,0
    4924:	10100513          	li	a0,257
    4928:	e56fd0ef          	jal	ra,1f7e <pwm_duty>
    492c:	15a00493          	li	s1,346
    4930:	4505                	li	a0,1
    4932:	14fd                	addi	s1,s1,-1
    4934:	92efd0ef          	jal	ra,1a62 <Delay_Ms>
    4938:	fce5                	bnez	s1,4930 <pid_forward_move+0xea>
    493a:	6489                	lui	s1,0x2
    493c:	b5848593          	addi	a1,s1,-1192 # 1b58 <adc_gpio_init+0xc0>
    4940:	20300513          	li	a0,515
    4944:	e3afd0ef          	jal	ra,1f7e <pwm_duty>
    4948:	b5848593          	addi	a1,s1,-1192
    494c:	10100513          	li	a0,257
    4950:	e2efd0ef          	jal	ra,1f7e <pwm_duty>
    4954:	59e00493          	li	s1,1438
    4958:	4505                	li	a0,1
    495a:	14fd                	addi	s1,s1,-1
    495c:	906fd0ef          	jal	ra,1a62 <Delay_Ms>
    4960:	fce5                	bnez	s1,4958 <pid_forward_move+0x112>
    4962:	4581                	li	a1,0
    4964:	20300513          	li	a0,515
    4968:	e16fd0ef          	jal	ra,1f7e <pwm_duty>
    496c:	4581                	li	a1,0
    496e:	10100513          	li	a0,257
    4972:	e0cfd0ef          	jal	ra,1f7e <pwm_duty>
    4976:	06400513          	li	a0,100
    497a:	8e8fd0ef          	jal	ra,1a62 <Delay_Ms>
    497e:	4581                	li	a1,0
    4980:	20300513          	li	a0,515
    4984:	dfafd0ef          	jal	ra,1f7e <pwm_duty>
    4988:	6589                	lui	a1,0x2
    498a:	64858593          	addi	a1,a1,1608 # 2648 <spi_gpio_init+0x66>
    498e:	10100513          	li	a0,257
    4992:	decfd0ef          	jal	ra,1f7e <pwm_duty>
    4996:	18200493          	li	s1,386
    499a:	4505                	li	a0,1
    499c:	14fd                	addi	s1,s1,-1
    499e:	8c4fd0ef          	jal	ra,1a62 <Delay_Ms>
    49a2:	fce5                	bnez	s1,499a <pid_forward_move+0x154>
    49a4:	6489                	lui	s1,0x2
    49a6:	b5848593          	addi	a1,s1,-1192 # 1b58 <adc_gpio_init+0xc0>
    49aa:	20300513          	li	a0,515
    49ae:	dd0fd0ef          	jal	ra,1f7e <pwm_duty>
    49b2:	b5848593          	addi	a1,s1,-1192
    49b6:	10100513          	li	a0,257
    49ba:	dc4fd0ef          	jal	ra,1f7e <pwm_duty>
    49be:	3b900493          	li	s1,953
    49c2:	4505                	li	a0,1
    49c4:	14fd                	addi	s1,s1,-1
    49c6:	89cfd0ef          	jal	ra,1a62 <Delay_Ms>
    49ca:	fce5                	bnez	s1,49c2 <pid_forward_move+0x17c>
    49cc:	00040023          	sb	zero,0(s0)
    49d0:	20006437          	lui	s0,0x20006
    49d4:	00491793          	slli	a5,s2,0x4
    49d8:	c1040413          	addi	s0,s0,-1008 # 20005c10 <car_mode>
    49dc:	943e                	add	s0,s0,a5
    49de:	4448                	lw	a0,12(s0)
    49e0:	4cd030ef          	jal	ra,86ac <__floatsisf>
    49e4:	800005b7          	lui	a1,0x80000
    49e8:	864a                	mv	a2,s2
    49ea:	84aa                	mv	s1,a0
    49ec:	0135c5b3          	xor	a1,a1,s3
    49f0:	8556                	mv	a0,s5
    49f2:	cddff0ef          	jal	ra,46ce <Car_PID_ERROR>
    49f6:	85aa                	mv	a1,a0
    49f8:	8526                	mv	a0,s1
    49fa:	1c8030ef          	jal	ra,7bc2 <__addsf3>
    49fe:	459030ef          	jal	ra,8656 <__fixunssfsi>
    4a02:	01051593          	slli	a1,a0,0x10
    4a06:	81c1                	srli	a1,a1,0x10
    4a08:	4501                	li	a0,0
    4a0a:	fb5fb0ef          	jal	ra,9be <motor_forward>
    4a0e:	4448                	lw	a0,12(s0)
    4a10:	49d030ef          	jal	ra,86ac <__floatsisf>
    4a14:	864a                	mv	a2,s2
    4a16:	842a                	mv	s0,a0
    4a18:	85ce                	mv	a1,s3
    4a1a:	8552                	mv	a0,s4
    4a1c:	cb3ff0ef          	jal	ra,46ce <Car_PID_ERROR>
    4a20:	85aa                	mv	a1,a0
    4a22:	8522                	mv	a0,s0
    4a24:	19e030ef          	jal	ra,7bc2 <__addsf3>
    4a28:	42f030ef          	jal	ra,8656 <__fixunssfsi>
    4a2c:	4462                	lw	s0,24(sp)
    4a2e:	40f2                	lw	ra,28(sp)
    4a30:	44d2                	lw	s1,20(sp)
    4a32:	4942                	lw	s2,16(sp)
    4a34:	49b2                	lw	s3,12(sp)
    4a36:	4a22                	lw	s4,8(sp)
    4a38:	4a92                	lw	s5,4(sp)
    4a3a:	4b02                	lw	s6,0(sp)
    4a3c:	01051593          	slli	a1,a0,0x10
    4a40:	81c1                	srli	a1,a1,0x10
    4a42:	4505                	li	a0,1
    4a44:	6105                	addi	sp,sp,32
    4a46:	f79fb06f          	j	9be <motor_forward>
    4a4a:	a001                	j	4a4a <pid_forward_move+0x204>
    4a4c:	a001                	j	4a4c <pid_forward_move+0x206>

00004a4e <Ecall_M_Mode_Handler>:
    4a4e:	a001                	j	4a4e <Ecall_M_Mode_Handler>

00004a50 <Ecall_U_Mode_Handler>:
    4a50:	a001                	j	4a50 <Ecall_U_Mode_Handler>

00004a52 <Break_Point_Handler>:
    4a52:	a001                	j	4a52 <Break_Point_Handler>

00004a54 <SysTick_Handler>:
    4a54:	a001                	j	4a54 <SysTick_Handler>

00004a56 <SW_handler>:
    4a56:	a001                	j	4a56 <SW_handler>

00004a58 <WWDG_IRQHandler>:
    4a58:	a001                	j	4a58 <WWDG_IRQHandler>

00004a5a <PVD_IRQHandler>:
    4a5a:	a001                	j	4a5a <PVD_IRQHandler>

00004a5c <TAMPER_IRQHandler>:
    4a5c:	a001                	j	4a5c <TAMPER_IRQHandler>

00004a5e <RTC_IRQHandler>:
    4a5e:	a001                	j	4a5e <RTC_IRQHandler>

00004a60 <FLASH_IRQHandler>:
    4a60:	a001                	j	4a60 <FLASH_IRQHandler>

00004a62 <RCC_IRQHandler>:
    4a62:	a001                	j	4a62 <RCC_IRQHandler>
    4a64:	a001                	j	4a64 <RCC_IRQHandler+0x2>
    4a66:	a001                	j	4a66 <RCC_IRQHandler+0x4>
    4a68:	a001                	j	4a68 <RCC_IRQHandler+0x6>
    4a6a:	a001                	j	4a6a <RCC_IRQHandler+0x8>
    4a6c:	a001                	j	4a6c <RCC_IRQHandler+0xa>

00004a6e <DMA1_Channel1_IRQHandler>:
    4a6e:	a001                	j	4a6e <DMA1_Channel1_IRQHandler>

00004a70 <DMA1_Channel2_IRQHandler>:
    4a70:	a001                	j	4a70 <DMA1_Channel2_IRQHandler>

00004a72 <DMA1_Channel3_IRQHandler>:
    4a72:	a001                	j	4a72 <DMA1_Channel3_IRQHandler>

00004a74 <DMA1_Channel4_IRQHandler>:
    4a74:	a001                	j	4a74 <DMA1_Channel4_IRQHandler>

00004a76 <DMA1_Channel5_IRQHandler>:
    4a76:	a001                	j	4a76 <DMA1_Channel5_IRQHandler>

00004a78 <DMA1_Channel6_IRQHandler>:
    4a78:	a001                	j	4a78 <DMA1_Channel6_IRQHandler>

00004a7a <DMA1_Channel7_IRQHandler>:
    4a7a:	a001                	j	4a7a <DMA1_Channel7_IRQHandler>

00004a7c <ADC1_2_IRQHandler>:
    4a7c:	a001                	j	4a7c <ADC1_2_IRQHandler>

00004a7e <USB_HP_CAN1_TX_IRQHandler>:
    4a7e:	a001                	j	4a7e <USB_HP_CAN1_TX_IRQHandler>

00004a80 <USB_LP_CAN1_RX0_IRQHandler>:
    4a80:	a001                	j	4a80 <USB_LP_CAN1_RX0_IRQHandler>

00004a82 <CAN1_RX1_IRQHandler>:
    4a82:	a001                	j	4a82 <CAN1_RX1_IRQHandler>

00004a84 <CAN1_SCE_IRQHandler>:
    4a84:	a001                	j	4a84 <CAN1_SCE_IRQHandler>
    4a86:	a001                	j	4a86 <CAN1_SCE_IRQHandler+0x2>

00004a88 <TIM1_BRK_IRQHandler>:
    4a88:	a001                	j	4a88 <TIM1_BRK_IRQHandler>
    4a8a:	a001                	j	4a8a <TIM1_BRK_IRQHandler+0x2>

00004a8c <TIM1_TRG_COM_IRQHandler>:
    4a8c:	a001                	j	4a8c <TIM1_TRG_COM_IRQHandler>

00004a8e <TIM1_CC_IRQHandler>:
    4a8e:	a001                	j	4a8e <TIM1_CC_IRQHandler>
    4a90:	a001                	j	4a90 <TIM1_CC_IRQHandler+0x2>
    4a92:	a001                	j	4a92 <TIM1_CC_IRQHandler+0x4>
    4a94:	a001                	j	4a94 <TIM1_CC_IRQHandler+0x6>

00004a96 <I2C1_EV_IRQHandler>:
    4a96:	a001                	j	4a96 <I2C1_EV_IRQHandler>

00004a98 <I2C1_ER_IRQHandler>:
    4a98:	a001                	j	4a98 <I2C1_ER_IRQHandler>

00004a9a <I2C2_EV_IRQHandler>:
    4a9a:	a001                	j	4a9a <I2C2_EV_IRQHandler>

00004a9c <I2C2_ER_IRQHandler>:
    4a9c:	a001                	j	4a9c <I2C2_ER_IRQHandler>

00004a9e <SPI1_IRQHandler>:
    4a9e:	a001                	j	4a9e <SPI1_IRQHandler>

00004aa0 <SPI2_IRQHandler>:
    4aa0:	a001                	j	4aa0 <SPI2_IRQHandler>
    4aa2:	a001                	j	4aa2 <SPI2_IRQHandler+0x2>
    4aa4:	a001                	j	4aa4 <SPI2_IRQHandler+0x4>
    4aa6:	a001                	j	4aa6 <SPI2_IRQHandler+0x6>
    4aa8:	a001                	j	4aa8 <SPI2_IRQHandler+0x8>

00004aaa <RTCAlarm_IRQHandler>:
    4aaa:	a001                	j	4aaa <RTCAlarm_IRQHandler>

00004aac <USBWakeUp_IRQHandler>:
    4aac:	a001                	j	4aac <USBWakeUp_IRQHandler>

00004aae <TIM8_BRK_IRQHandler>:
    4aae:	a001                	j	4aae <TIM8_BRK_IRQHandler>
    4ab0:	a001                	j	4ab0 <TIM8_BRK_IRQHandler+0x2>

00004ab2 <TIM8_TRG_COM_IRQHandler>:
    4ab2:	a001                	j	4ab2 <TIM8_TRG_COM_IRQHandler>

00004ab4 <TIM8_CC_IRQHandler>:
    4ab4:	a001                	j	4ab4 <TIM8_CC_IRQHandler>

00004ab6 <RNG_IRQHandler>:
    4ab6:	a001                	j	4ab6 <RNG_IRQHandler>

00004ab8 <FSMC_IRQHandler>:
    4ab8:	a001                	j	4ab8 <FSMC_IRQHandler>

00004aba <SDIO_IRQHandler>:
    4aba:	a001                	j	4aba <SDIO_IRQHandler>
    4abc:	a001                	j	4abc <SDIO_IRQHandler+0x2>

00004abe <SPI3_IRQHandler>:
    4abe:	a001                	j	4abe <SPI3_IRQHandler>
    4ac0:	a001                	j	4ac0 <SPI3_IRQHandler+0x2>
    4ac2:	a001                	j	4ac2 <SPI3_IRQHandler+0x4>
    4ac4:	a001                	j	4ac4 <SPI3_IRQHandler+0x6>
    4ac6:	a001                	j	4ac6 <SPI3_IRQHandler+0x8>

00004ac8 <DMA2_Channel1_IRQHandler>:
    4ac8:	a001                	j	4ac8 <DMA2_Channel1_IRQHandler>

00004aca <DMA2_Channel2_IRQHandler>:
    4aca:	a001                	j	4aca <DMA2_Channel2_IRQHandler>

00004acc <DMA2_Channel3_IRQHandler>:
    4acc:	a001                	j	4acc <DMA2_Channel3_IRQHandler>

00004ace <DMA2_Channel4_IRQHandler>:
    4ace:	a001                	j	4ace <DMA2_Channel4_IRQHandler>

00004ad0 <DMA2_Channel5_IRQHandler>:
    4ad0:	a001                	j	4ad0 <DMA2_Channel5_IRQHandler>

00004ad2 <ETH_IRQHandler>:
    4ad2:	a001                	j	4ad2 <ETH_IRQHandler>

00004ad4 <ETH_WKUP_IRQHandler>:
    4ad4:	a001                	j	4ad4 <ETH_WKUP_IRQHandler>

00004ad6 <CAN2_TX_IRQHandler>:
    4ad6:	a001                	j	4ad6 <CAN2_TX_IRQHandler>

00004ad8 <CAN2_RX0_IRQHandler>:
    4ad8:	a001                	j	4ad8 <CAN2_RX0_IRQHandler>

00004ada <CAN2_RX1_IRQHandler>:
    4ada:	a001                	j	4ada <CAN2_RX1_IRQHandler>

00004adc <CAN2_SCE_IRQHandler>:
    4adc:	a001                	j	4adc <CAN2_SCE_IRQHandler>
    4ade:	a001                	j	4ade <CAN2_SCE_IRQHandler+0x2>

00004ae0 <USBHSWakeup_IRQHandler>:
    4ae0:	a001                	j	4ae0 <USBHSWakeup_IRQHandler>

00004ae2 <USBHS_IRQHandler>:
    4ae2:	a001                	j	4ae2 <USBHS_IRQHandler>
    4ae4:	a001                	j	4ae4 <USBHS_IRQHandler+0x2>
    4ae6:	a001                	j	4ae6 <USBHS_IRQHandler+0x4>
    4ae8:	a001                	j	4ae8 <USBHS_IRQHandler+0x6>
    4aea:	a001                	j	4aea <USBHS_IRQHandler+0x8>

00004aec <TIM9_BRK_IRQHandler>:
    4aec:	a001                	j	4aec <TIM9_BRK_IRQHandler>
    4aee:	a001                	j	4aee <TIM9_BRK_IRQHandler+0x2>

00004af0 <TIM9_TRG_COM_IRQHandler>:
    4af0:	a001                	j	4af0 <TIM9_TRG_COM_IRQHandler>

00004af2 <TIM9_CC_IRQHandler>:
    4af2:	a001                	j	4af2 <TIM9_CC_IRQHandler>

00004af4 <TIM10_BRK_IRQHandler>:
    4af4:	a001                	j	4af4 <TIM10_BRK_IRQHandler>
    4af6:	a001                	j	4af6 <TIM10_BRK_IRQHandler+0x2>

00004af8 <TIM10_TRG_COM_IRQHandler>:
    4af8:	a001                	j	4af8 <TIM10_TRG_COM_IRQHandler>

00004afa <TIM10_CC_IRQHandler>:
    4afa:	a001                	j	4afa <TIM10_CC_IRQHandler>

00004afc <DMA2_Channel6_IRQHandler>:
    4afc:	a001                	j	4afc <DMA2_Channel6_IRQHandler>

00004afe <DMA2_Channel7_IRQHandler>:
    4afe:	a001                	j	4afe <DMA2_Channel7_IRQHandler>

00004b00 <DMA2_Channel8_IRQHandler>:
    4b00:	a001                	j	4b00 <DMA2_Channel8_IRQHandler>

00004b02 <DMA2_Channel9_IRQHandler>:
    4b02:	a001                	j	4b02 <DMA2_Channel9_IRQHandler>

00004b04 <DMA2_Channel10_IRQHandler>:
    4b04:	a001                	j	4b04 <DMA2_Channel10_IRQHandler>

00004b06 <DMA2_Channel11_IRQHandler>:
    4b06:	a001                	j	4b06 <DMA2_Channel11_IRQHandler>

00004b08 <handle_reset>:
    4b08:	34129073          	csrw	mepc,t0
    4b0c:	1fffc197          	auipc	gp,0x1fffc
    4b10:	e7c18193          	addi	gp,gp,-388 # 20000988 <__global_pointer$>
    4b14:	2000b117          	auipc	sp,0x2000b
    4b18:	4ec10113          	addi	sp,sp,1260 # 20010000 <_eusrstack>
    4b1c:	00006517          	auipc	a0,0x6
    4b20:	ce050513          	addi	a0,a0,-800 # a7fc <_data_lma>
    4b24:	1fffb597          	auipc	a1,0x1fffb
    4b28:	4dc58593          	addi	a1,a1,1244 # 20000000 <_data_vma>
    4b2c:	85018613          	addi	a2,gp,-1968 # 200001d8 <_edata>
    4b30:	00c5fa63          	bgeu	a1,a2,4b44 <handle_reset+0x3c>
    4b34:	00052283          	lw	t0,0(a0)
    4b38:	0055a023          	sw	t0,0(a1)
    4b3c:	0511                	addi	a0,a0,4
    4b3e:	0591                	addi	a1,a1,4
    4b40:	fec5eae3          	bltu	a1,a2,4b34 <handle_reset+0x2c>
    4b44:	85018513          	addi	a0,gp,-1968 # 200001d8 <_edata>
    4b48:	20007597          	auipc	a1,0x20007
    4b4c:	be858593          	addi	a1,a1,-1048 # 2000b730 <_ebss>
    4b50:	00b57763          	bgeu	a0,a1,4b5e <handle_reset+0x56>
    4b54:	00052023          	sw	zero,0(a0)
    4b58:	0511                	addi	a0,a0,4
    4b5a:	feb56de3          	bltu	a0,a1,4b54 <handle_reset+0x4c>
    4b5e:	42fd                	li	t0,31
    4b60:	bc029073          	csrw	0xbc0,t0
    4b64:	42fd                	li	t0,31
    4b66:	80429073          	csrw	0x804,t0
    4b6a:	000082b7          	lui	t0,0x8
    4b6e:	88828293          	addi	t0,t0,-1912 # 7888 <__subdf3+0x546>
    4b72:	3002a073          	csrs	mstatus,t0
    4b76:	ffffb297          	auipc	t0,0xffffb
    4b7a:	4c228293          	addi	t0,t0,1218 # 38 <_einit>
    4b7e:	0032e293          	ori	t0,t0,3
    4b82:	30529073          	csrw	mtvec,t0
    4b86:	39a010ef          	jal	ra,5f20 <SystemInit>
    4b8a:	ffffc297          	auipc	t0,0xffffc
    4b8e:	ba228293          	addi	t0,t0,-1118 # 72c <main>
    4b92:	34129073          	csrw	mepc,t0
    4b96:	30200073          	mret

00004b9a <ADC_DeInit>:
    4b9a:	1141                	addi	sp,sp,-16
    4b9c:	400127b7          	lui	a5,0x40012
    4ba0:	c606                	sw	ra,12(sp)
    4ba2:	40078793          	addi	a5,a5,1024 # 40012400 <_eusrstack+0x20002400>
    4ba6:	00f51c63          	bne	a0,a5,4bbe <ADC_DeInit+0x24>
    4baa:	4585                	li	a1,1
    4bac:	20000513          	li	a0,512
    4bb0:	29fd                	jal	50ae <RCC_APB2PeriphResetCmd>
    4bb2:	4581                	li	a1,0
    4bb4:	20000513          	li	a0,512
    4bb8:	40b2                	lw	ra,12(sp)
    4bba:	0141                	addi	sp,sp,16
    4bbc:	a9cd                	j	50ae <RCC_APB2PeriphResetCmd>
    4bbe:	400137b7          	lui	a5,0x40013
    4bc2:	80078793          	addi	a5,a5,-2048 # 40012800 <_eusrstack+0x20002800>
    4bc6:	00f51a63          	bne	a0,a5,4bda <ADC_DeInit+0x40>
    4bca:	4585                	li	a1,1
    4bcc:	40000513          	li	a0,1024
    4bd0:	29f9                	jal	50ae <RCC_APB2PeriphResetCmd>
    4bd2:	4581                	li	a1,0
    4bd4:	40000513          	li	a0,1024
    4bd8:	b7c5                	j	4bb8 <ADC_DeInit+0x1e>
    4bda:	40b2                	lw	ra,12(sp)
    4bdc:	0141                	addi	sp,sp,16
    4bde:	8082                	ret

00004be0 <ADC_Init>:
    4be0:	415c                	lw	a5,4(a0)
    4be2:	e0f10737          	lui	a4,0xe0f10
    4be6:	eff70713          	addi	a4,a4,-257 # e0f0feff <_eusrstack+0xc0effeff>
    4bea:	4d94                	lw	a3,24(a1)
    4bec:	8f7d                	and	a4,a4,a5
    4bee:	419c                	lw	a5,0(a1)
    4bf0:	8fd5                	or	a5,a5,a3
    4bf2:	4dd4                	lw	a3,28(a1)
    4bf4:	8fd5                	or	a5,a5,a3
    4bf6:	41d4                	lw	a3,4(a1)
    4bf8:	06a2                	slli	a3,a3,0x8
    4bfa:	8fd5                	or	a5,a5,a3
    4bfc:	8fd9                	or	a5,a5,a4
    4bfe:	c15c                	sw	a5,4(a0)
    4c00:	451c                	lw	a5,8(a0)
    4c02:	fff1f737          	lui	a4,0xfff1f
    4c06:	7fd70713          	addi	a4,a4,2045 # fff1f7fd <_eusrstack+0xdff0f7fd>
    4c0a:	45d4                	lw	a3,12(a1)
    4c0c:	8f7d                	and	a4,a4,a5
    4c0e:	499c                	lw	a5,16(a1)
    4c10:	8fd5                	or	a5,a5,a3
    4c12:	4594                	lw	a3,8(a1)
    4c14:	0686                	slli	a3,a3,0x1
    4c16:	8fd5                	or	a5,a5,a3
    4c18:	8fd9                	or	a5,a5,a4
    4c1a:	c51c                	sw	a5,8(a0)
    4c1c:	555c                	lw	a5,44(a0)
    4c1e:	ff100737          	lui	a4,0xff100
    4c22:	177d                	addi	a4,a4,-1
    4c24:	8f7d                	and	a4,a4,a5
    4c26:	0145c783          	lbu	a5,20(a1)
    4c2a:	17fd                	addi	a5,a5,-1
    4c2c:	0ff7f793          	andi	a5,a5,255
    4c30:	07d2                	slli	a5,a5,0x14
    4c32:	8fd9                	or	a5,a5,a4
    4c34:	d55c                	sw	a5,44(a0)
    4c36:	8082                	ret

00004c38 <ADC_Cmd>:
    4c38:	451c                	lw	a5,8(a0)
    4c3a:	c589                	beqz	a1,4c44 <ADC_Cmd+0xc>
    4c3c:	0017e793          	ori	a5,a5,1
    4c40:	c51c                	sw	a5,8(a0)
    4c42:	8082                	ret
    4c44:	9bf9                	andi	a5,a5,-2
    4c46:	bfed                	j	4c40 <ADC_Cmd+0x8>

00004c48 <ADC_ResetCalibration>:
    4c48:	451c                	lw	a5,8(a0)
    4c4a:	0087e793          	ori	a5,a5,8
    4c4e:	c51c                	sw	a5,8(a0)
    4c50:	8082                	ret

00004c52 <ADC_GetResetCalibrationStatus>:
    4c52:	4508                	lw	a0,8(a0)
    4c54:	810d                	srli	a0,a0,0x3
    4c56:	8905                	andi	a0,a0,1
    4c58:	8082                	ret

00004c5a <ADC_StartCalibration>:
    4c5a:	451c                	lw	a5,8(a0)
    4c5c:	0047e793          	ori	a5,a5,4
    4c60:	c51c                	sw	a5,8(a0)
    4c62:	8082                	ret

00004c64 <ADC_GetCalibrationStatus>:
    4c64:	4508                	lw	a0,8(a0)
    4c66:	8109                	srli	a0,a0,0x2
    4c68:	8905                	andi	a0,a0,1
    4c6a:	8082                	ret

00004c6c <EXTI_Init>:
    4c6c:	4158                	lw	a4,4(a0)
    4c6e:	00052803          	lw	a6,0(a0)
    4c72:	454c                	lw	a1,12(a0)
    4c74:	40010637          	lui	a2,0x40010
    4c78:	40060793          	addi	a5,a2,1024 # 40010400 <_eusrstack+0x20000400>
    4c7c:	973e                	add	a4,a4,a5
    4c7e:	fff84693          	not	a3,a6
    4c82:	c5b1                	beqz	a1,4cce <EXTI_Init+0x62>
    4c84:	40062583          	lw	a1,1024(a2)
    4c88:	8df5                	and	a1,a1,a3
    4c8a:	40b62023          	sw	a1,1024(a2)
    4c8e:	43d0                	lw	a2,4(a5)
    4c90:	8ef1                	and	a3,a3,a2
    4c92:	c3d4                	sw	a3,4(a5)
    4c94:	4314                	lw	a3,0(a4)
    4c96:	0106e6b3          	or	a3,a3,a6
    4c9a:	c314                	sw	a3,0(a4)
    4c9c:	4118                	lw	a4,0(a0)
    4c9e:	4790                	lw	a2,8(a5)
    4ca0:	fff74693          	not	a3,a4
    4ca4:	8e75                	and	a2,a2,a3
    4ca6:	c790                	sw	a2,8(a5)
    4ca8:	47d0                	lw	a2,12(a5)
    4caa:	8ef1                	and	a3,a3,a2
    4cac:	c7d4                	sw	a3,12(a5)
    4cae:	4514                	lw	a3,8(a0)
    4cb0:	4641                	li	a2,16
    4cb2:	00c69963          	bne	a3,a2,4cc4 <EXTI_Init+0x58>
    4cb6:	4794                	lw	a3,8(a5)
    4cb8:	8ed9                	or	a3,a3,a4
    4cba:	c794                	sw	a3,8(a5)
    4cbc:	47d4                	lw	a3,12(a5)
    4cbe:	8f55                	or	a4,a4,a3
    4cc0:	c7d8                	sw	a4,12(a5)
    4cc2:	8082                	ret
    4cc4:	97b6                	add	a5,a5,a3
    4cc6:	4394                	lw	a3,0(a5)
    4cc8:	8f55                	or	a4,a4,a3
    4cca:	c398                	sw	a4,0(a5)
    4ccc:	8082                	ret
    4cce:	431c                	lw	a5,0(a4)
    4cd0:	8ff5                	and	a5,a5,a3
    4cd2:	c31c                	sw	a5,0(a4)
    4cd4:	8082                	ret

00004cd6 <EXTI_GetITStatus>:
    4cd6:	400107b7          	lui	a5,0x40010
    4cda:	40078713          	addi	a4,a5,1024 # 40010400 <_eusrstack+0x20000400>
    4cde:	4007a783          	lw	a5,1024(a5)
    4ce2:	4b58                	lw	a4,20(a4)
    4ce4:	8f69                	and	a4,a4,a0
    4ce6:	c709                	beqz	a4,4cf0 <EXTI_GetITStatus+0x1a>
    4ce8:	8d7d                	and	a0,a0,a5
    4cea:	00a03533          	snez	a0,a0
    4cee:	8082                	ret
    4cf0:	4501                	li	a0,0
    4cf2:	8082                	ret

00004cf4 <EXTI_ClearITPendingBit>:
    4cf4:	400107b7          	lui	a5,0x40010
    4cf8:	40a7aa23          	sw	a0,1044(a5) # 40010414 <_eusrstack+0x20000414>
    4cfc:	8082                	ret

00004cfe <GPIO_Init>:
    4cfe:	459c                	lw	a5,8(a1)
    4d00:	0107f713          	andi	a4,a5,16
    4d04:	00f7f813          	andi	a6,a5,15
    4d08:	c701                	beqz	a4,4d10 <GPIO_Init+0x12>
    4d0a:	41d8                	lw	a4,4(a1)
    4d0c:	00e86833          	or	a6,a6,a4
    4d10:	0005d583          	lhu	a1,0(a1)
    4d14:	0ff5f713          	andi	a4,a1,255
    4d18:	c339                	beqz	a4,4d5e <GPIO_Init+0x60>
    4d1a:	4118                	lw	a4,0(a0)
    4d1c:	4681                	li	a3,0
    4d1e:	4e85                	li	t4,1
    4d20:	4f3d                	li	t5,15
    4d22:	02800f93          	li	t6,40
    4d26:	04800293          	li	t0,72
    4d2a:	4e21                	li	t3,8
    4d2c:	00de9633          	sll	a2,t4,a3
    4d30:	00c5f8b3          	and	a7,a1,a2
    4d34:	03161163          	bne	a2,a7,4d56 <GPIO_Init+0x58>
    4d38:	00269893          	slli	a7,a3,0x2
    4d3c:	011f1333          	sll	t1,t5,a7
    4d40:	fff34313          	not	t1,t1
    4d44:	00e37733          	and	a4,t1,a4
    4d48:	011818b3          	sll	a7,a6,a7
    4d4c:	00e8e733          	or	a4,a7,a4
    4d50:	05f79f63          	bne	a5,t6,4dae <GPIO_Init+0xb0>
    4d54:	c950                	sw	a2,20(a0)
    4d56:	0685                	addi	a3,a3,1
    4d58:	fdc69ae3          	bne	a3,t3,4d2c <GPIO_Init+0x2e>
    4d5c:	c118                	sw	a4,0(a0)
    4d5e:	0ff00713          	li	a4,255
    4d62:	04b77563          	bgeu	a4,a1,4dac <GPIO_Init+0xae>
    4d66:	4154                	lw	a3,4(a0)
    4d68:	4621                	li	a2,8
    4d6a:	4e85                	li	t4,1
    4d6c:	4f3d                	li	t5,15
    4d6e:	02800f93          	li	t6,40
    4d72:	04800293          	li	t0,72
    4d76:	4e41                	li	t3,16
    4d78:	00ce98b3          	sll	a7,t4,a2
    4d7c:	0115f733          	and	a4,a1,a7
    4d80:	02e89263          	bne	a7,a4,4da4 <GPIO_Init+0xa6>
    4d84:	00261713          	slli	a4,a2,0x2
    4d88:	1701                	addi	a4,a4,-32
    4d8a:	00ef1333          	sll	t1,t5,a4
    4d8e:	fff34313          	not	t1,t1
    4d92:	00d376b3          	and	a3,t1,a3
    4d96:	00e81733          	sll	a4,a6,a4
    4d9a:	8ed9                	or	a3,a3,a4
    4d9c:	01f79d63          	bne	a5,t6,4db6 <GPIO_Init+0xb8>
    4da0:	01152a23          	sw	a7,20(a0)
    4da4:	0605                	addi	a2,a2,1
    4da6:	fdc619e3          	bne	a2,t3,4d78 <GPIO_Init+0x7a>
    4daa:	c154                	sw	a3,4(a0)
    4dac:	8082                	ret
    4dae:	fa5794e3          	bne	a5,t0,4d56 <GPIO_Init+0x58>
    4db2:	c910                	sw	a2,16(a0)
    4db4:	b74d                	j	4d56 <GPIO_Init+0x58>
    4db6:	fe5797e3          	bne	a5,t0,4da4 <GPIO_Init+0xa6>
    4dba:	01152823          	sw	a7,16(a0)
    4dbe:	b7dd                	j	4da4 <GPIO_Init+0xa6>

00004dc0 <GPIO_WriteBit>:
    4dc0:	c219                	beqz	a2,4dc6 <GPIO_WriteBit+0x6>
    4dc2:	c90c                	sw	a1,16(a0)
    4dc4:	8082                	ret
    4dc6:	c94c                	sw	a1,20(a0)
    4dc8:	8082                	ret

00004dca <GPIO_PinRemapConfig>:
    4dca:	400107b7          	lui	a5,0x40010
    4dce:	04055563          	bgez	a0,4e18 <GPIO_PinRemapConfig+0x4e>
    4dd2:	4fd4                	lw	a3,28(a5)
    4dd4:	003007b7          	lui	a5,0x300
    4dd8:	01051713          	slli	a4,a0,0x10
    4ddc:	00f57633          	and	a2,a0,a5
    4de0:	8341                	srli	a4,a4,0x10
    4de2:	02f61d63          	bne	a2,a5,4e1c <GPIO_PinRemapConfig+0x52>
    4de6:	f1000637          	lui	a2,0xf1000
    4dea:	167d                	addi	a2,a2,-1
    4dec:	40010837          	lui	a6,0x40010
    4df0:	00c6f7b3          	and	a5,a3,a2
    4df4:	00482683          	lw	a3,4(a6) # 40010004 <_eusrstack+0x20000004>
    4df8:	8e75                	and	a2,a2,a3
    4dfa:	00c82223          	sw	a2,4(a6)
    4dfe:	c599                	beqz	a1,4e0c <GPIO_PinRemapConfig+0x42>
    4e00:	01555693          	srli	a3,a0,0x15
    4e04:	0692                	slli	a3,a3,0x4
    4e06:	00d71733          	sll	a4,a4,a3
    4e0a:	8fd9                	or	a5,a5,a4
    4e0c:	40010737          	lui	a4,0x40010
    4e10:	02055e63          	bgez	a0,4e4c <GPIO_PinRemapConfig+0x82>
    4e14:	cf5c                	sw	a5,28(a4)
    4e16:	8082                	ret
    4e18:	43d4                	lw	a3,4(a5)
    4e1a:	bf6d                	j	4dd4 <GPIO_PinRemapConfig+0xa>
    4e1c:	00b51793          	slli	a5,a0,0xb
    4e20:	0207d063          	bgez	a5,4e40 <GPIO_PinRemapConfig+0x76>
    4e24:	01055793          	srli	a5,a0,0x10
    4e28:	00f7f613          	andi	a2,a5,15
    4e2c:	478d                	li	a5,3
    4e2e:	00c797b3          	sll	a5,a5,a2
    4e32:	fff7c793          	not	a5,a5
    4e36:	8ff5                	and	a5,a5,a3
    4e38:	0f0006b7          	lui	a3,0xf000
    4e3c:	8fd5                	or	a5,a5,a3
    4e3e:	b7c1                	j	4dfe <GPIO_PinRemapConfig+0x34>
    4e40:	01555793          	srli	a5,a0,0x15
    4e44:	0792                	slli	a5,a5,0x4
    4e46:	00f717b3          	sll	a5,a4,a5
    4e4a:	b7e5                	j	4e32 <GPIO_PinRemapConfig+0x68>
    4e4c:	c35c                	sw	a5,4(a4)
    4e4e:	8082                	ret

00004e50 <GPIO_EXTILineConfig>:
    4e50:	0fc5f713          	andi	a4,a1,252
    4e54:	0035f793          	andi	a5,a1,3
    4e58:	400105b7          	lui	a1,0x40010
    4e5c:	95ba                	add	a1,a1,a4
    4e5e:	4594                	lw	a3,8(a1)
    4e60:	078a                	slli	a5,a5,0x2
    4e62:	473d                	li	a4,15
    4e64:	00f71733          	sll	a4,a4,a5
    4e68:	fff74713          	not	a4,a4
    4e6c:	8f75                	and	a4,a4,a3
    4e6e:	c598                	sw	a4,8(a1)
    4e70:	4598                	lw	a4,8(a1)
    4e72:	00f51533          	sll	a0,a0,a5
    4e76:	8d59                	or	a0,a0,a4
    4e78:	c588                	sw	a0,8(a1)
    4e7a:	8082                	ret

00004e7c <NVIC_Init>:
    4e7c:	86818793          	addi	a5,gp,-1944 # 200001f0 <NVIC_Priority_Group>
    4e80:	4394                	lw	a3,0(a5)
    4e82:	00054703          	lbu	a4,0(a0)
    4e86:	e689                	bnez	a3,4e90 <NVIC_Init+0x14>
    4e88:	00254783          	lbu	a5,2(a0)
    4e8c:	0792                	slli	a5,a5,0x4
    4e8e:	a831                	j	4eaa <NVIC_Init+0x2e>
    4e90:	4394                	lw	a3,0(a5)
    4e92:	4605                	li	a2,1
    4e94:	04c69163          	bne	a3,a2,4ed6 <NVIC_Init+0x5a>
    4e98:	00254783          	lbu	a5,2(a0)
    4e9c:	00154603          	lbu	a2,1(a0)
    4ea0:	0792                	slli	a5,a5,0x4
    4ea2:	00d61463          	bne	a2,a3,4eaa <NVIC_Init+0x2e>
    4ea6:	f807e793          	ori	a5,a5,-128
    4eaa:	e000e6b7          	lui	a3,0xe000e
    4eae:	0ff7f793          	andi	a5,a5,255
    4eb2:	96ba                	add	a3,a3,a4
    4eb4:	40f68023          	sb	a5,1024(a3) # e000e400 <_eusrstack+0xbfffe400>
    4eb8:	4685                	li	a3,1
    4eba:	00575793          	srli	a5,a4,0x5
    4ebe:	00e69733          	sll	a4,a3,a4
    4ec2:	4154                	lw	a3,4(a0)
    4ec4:	c6ad                	beqz	a3,4f2e <NVIC_Init+0xb2>
    4ec6:	04078793          	addi	a5,a5,64 # 300040 <_data_lma+0x2f5844>
    4eca:	078a                	slli	a5,a5,0x2
    4ecc:	e000e6b7          	lui	a3,0xe000e
    4ed0:	97b6                	add	a5,a5,a3
    4ed2:	c398                	sw	a4,0(a5)
    4ed4:	8082                	ret
    4ed6:	438c                	lw	a1,0(a5)
    4ed8:	4689                	li	a3,2
    4eda:	02d59363          	bne	a1,a3,4f00 <NVIC_Init+0x84>
    4ede:	00154683          	lbu	a3,1(a0)
    4ee2:	00254783          	lbu	a5,2(a0)
    4ee6:	00d66563          	bltu	a2,a3,4ef0 <NVIC_Init+0x74>
    4eea:	068a                	slli	a3,a3,0x2
    4eec:	97b6                	add	a5,a5,a3
    4eee:	bf79                	j	4e8c <NVIC_Init+0x10>
    4ef0:	03e68693          	addi	a3,a3,62 # e000e03e <_eusrstack+0xbfffe03e>
    4ef4:	068a                	slli	a3,a3,0x2
    4ef6:	97b6                	add	a5,a5,a3
    4ef8:	0ff7f793          	andi	a5,a5,255
    4efc:	0792                	slli	a5,a5,0x4
    4efe:	b765                	j	4ea6 <NVIC_Init+0x2a>
    4f00:	4390                	lw	a2,0(a5)
    4f02:	468d                	li	a3,3
    4f04:	00d61e63          	bne	a2,a3,4f20 <NVIC_Init+0xa4>
    4f08:	00154683          	lbu	a3,1(a0)
    4f0c:	00254783          	lbu	a5,2(a0)
    4f10:	00d66463          	bltu	a2,a3,4f18 <NVIC_Init+0x9c>
    4f14:	0686                	slli	a3,a3,0x1
    4f16:	bfd9                	j	4eec <NVIC_Init+0x70>
    4f18:	07c68693          	addi	a3,a3,124
    4f1c:	0686                	slli	a3,a3,0x1
    4f1e:	bfe1                	j	4ef6 <NVIC_Init+0x7a>
    4f20:	4394                	lw	a3,0(a5)
    4f22:	4791                	li	a5,4
    4f24:	f8f69ae3          	bne	a3,a5,4eb8 <NVIC_Init+0x3c>
    4f28:	00154783          	lbu	a5,1(a0)
    4f2c:	b785                	j	4e8c <NVIC_Init+0x10>
    4f2e:	06078793          	addi	a5,a5,96
    4f32:	bf61                	j	4eca <NVIC_Init+0x4e>

00004f34 <RCC_ADCCLKConfig>:
    4f34:	400216b7          	lui	a3,0x40021
    4f38:	42dc                	lw	a5,4(a3)
    4f3a:	7751                	lui	a4,0xffff4
    4f3c:	177d                	addi	a4,a4,-1
    4f3e:	8ff9                	and	a5,a5,a4
    4f40:	8d5d                	or	a0,a0,a5
    4f42:	c2c8                	sw	a0,4(a3)
    4f44:	8082                	ret

00004f46 <RCC_GetClocksFreq>:
    4f46:	40021737          	lui	a4,0x40021
    4f4a:	435c                	lw	a5,4(a4)
    4f4c:	4691                	li	a3,4
    4f4e:	8bb1                	andi	a5,a5,12
    4f50:	00d78563          	beq	a5,a3,4f5a <RCC_GetClocksFreq+0x14>
    4f54:	46a1                	li	a3,8
    4f56:	06d78663          	beq	a5,a3,4fc2 <RCC_GetClocksFreq+0x7c>
    4f5a:	007a17b7          	lui	a5,0x7a1
    4f5e:	20078793          	addi	a5,a5,512 # 7a1200 <_data_lma+0x796a04>
    4f62:	c11c                	sw	a5,0(a0)
    4f64:	40021637          	lui	a2,0x40021
    4f68:	425c                	lw	a5,4(a2)
    4f6a:	20000737          	lui	a4,0x20000
    4f6e:	0d470713          	addi	a4,a4,212 # 200000d4 <APBAHBPrescTable>
    4f72:	8391                	srli	a5,a5,0x4
    4f74:	8bbd                	andi	a5,a5,15
    4f76:	97ba                	add	a5,a5,a4
    4f78:	0007c683          	lbu	a3,0(a5)
    4f7c:	411c                	lw	a5,0(a0)
    4f7e:	00d7d7b3          	srl	a5,a5,a3
    4f82:	c15c                	sw	a5,4(a0)
    4f84:	4254                	lw	a3,4(a2)
    4f86:	82a1                	srli	a3,a3,0x8
    4f88:	8a9d                	andi	a3,a3,7
    4f8a:	96ba                	add	a3,a3,a4
    4f8c:	0006c683          	lbu	a3,0(a3) # 40021000 <_eusrstack+0x20011000>
    4f90:	00d7d6b3          	srl	a3,a5,a3
    4f94:	c514                	sw	a3,8(a0)
    4f96:	4254                	lw	a3,4(a2)
    4f98:	82ad                	srli	a3,a3,0xb
    4f9a:	8a9d                	andi	a3,a3,7
    4f9c:	9736                	add	a4,a4,a3
    4f9e:	00074703          	lbu	a4,0(a4)
    4fa2:	00e7d7b3          	srl	a5,a5,a4
    4fa6:	c55c                	sw	a5,12(a0)
    4fa8:	4258                	lw	a4,4(a2)
    4faa:	8339                	srli	a4,a4,0xe
    4fac:	00377693          	andi	a3,a4,3
    4fb0:	82c18713          	addi	a4,gp,-2004 # 200001b4 <ADCPrescTable>
    4fb4:	9736                	add	a4,a4,a3
    4fb6:	00074703          	lbu	a4,0(a4)
    4fba:	02e7d7b3          	divu	a5,a5,a4
    4fbe:	c91c                	sw	a5,16(a0)
    4fc0:	8082                	ret
    4fc2:	435c                	lw	a5,4(a4)
    4fc4:	4354                	lw	a3,4(a4)
    4fc6:	6741                	lui	a4,0x10
    4fc8:	83c9                	srli	a5,a5,0x12
    4fca:	8ef9                	and	a3,a3,a4
    4fcc:	1ffff737          	lui	a4,0x1ffff
    4fd0:	70c72703          	lw	a4,1804(a4) # 1ffff70c <_data_lma+0x1fff4f10>
    4fd4:	8bbd                	andi	a5,a5,15
    4fd6:	0789                	addi	a5,a5,2
    4fd8:	01171613          	slli	a2,a4,0x11
    4fdc:	00064863          	bltz	a2,4fec <RCC_GetClocksFreq+0xa6>
    4fe0:	4645                	li	a2,17
    4fe2:	4701                	li	a4,0
    4fe4:	02c79263          	bne	a5,a2,5008 <RCC_GetClocksFreq+0xc2>
    4fe8:	47c9                	li	a5,18
    4fea:	a839                	j	5008 <RCC_GetClocksFreq+0xc2>
    4fec:	4709                	li	a4,2
    4fee:	02e78963          	beq	a5,a4,5020 <RCC_GetClocksFreq+0xda>
    4ff2:	473d                	li	a4,15
    4ff4:	02e78863          	beq	a5,a4,5024 <RCC_GetClocksFreq+0xde>
    4ff8:	4741                	li	a4,16
    4ffa:	02e78863          	beq	a5,a4,502a <RCC_GetClocksFreq+0xe4>
    4ffe:	4645                	li	a2,17
    5000:	4701                	li	a4,0
    5002:	00c79363          	bne	a5,a2,5008 <RCC_GetClocksFreq+0xc2>
    5006:	47c1                	li	a5,16
    5008:	e685                	bnez	a3,5030 <RCC_GetClocksFreq+0xea>
    500a:	400246b7          	lui	a3,0x40024
    500e:	8006a683          	lw	a3,-2048(a3) # 40023800 <_eusrstack+0x20013800>
    5012:	8ac1                	andi	a3,a3,16
    5014:	c68d                	beqz	a3,503e <RCC_GetClocksFreq+0xf8>
    5016:	007a16b7          	lui	a3,0x7a1
    501a:	20068693          	addi	a3,a3,512 # 7a1200 <_data_lma+0x796a04>
    501e:	a025                	j	5046 <RCC_GetClocksFreq+0x100>
    5020:	4701                	li	a4,0
    5022:	b7d9                	j	4fe8 <RCC_GetClocksFreq+0xa2>
    5024:	4705                	li	a4,1
    5026:	47b5                	li	a5,13
    5028:	b7c5                	j	5008 <RCC_GetClocksFreq+0xc2>
    502a:	4701                	li	a4,0
    502c:	47bd                	li	a5,15
    502e:	bfe9                	j	5008 <RCC_GetClocksFreq+0xc2>
    5030:	400216b7          	lui	a3,0x40021
    5034:	42d4                	lw	a3,4(a3)
    5036:	00e69613          	slli	a2,a3,0xe
    503a:	fc065ee3          	bgez	a2,5016 <RCC_GetClocksFreq+0xd0>
    503e:	003d16b7          	lui	a3,0x3d1
    5042:	90068693          	addi	a3,a3,-1792 # 3d0900 <_data_lma+0x3c6104>
    5046:	02d787b3          	mul	a5,a5,a3
    504a:	c11c                	sw	a5,0(a0)
    504c:	df01                	beqz	a4,4f64 <RCC_GetClocksFreq+0x1e>
    504e:	411c                	lw	a5,0(a0)
    5050:	8385                	srli	a5,a5,0x1
    5052:	bf01                	j	4f62 <RCC_GetClocksFreq+0x1c>

00005054 <RCC_AHBPeriphClockCmd>:
    5054:	c599                	beqz	a1,5062 <RCC_AHBPeriphClockCmd+0xe>
    5056:	40021737          	lui	a4,0x40021
    505a:	4b5c                	lw	a5,20(a4)
    505c:	8d5d                	or	a0,a0,a5
    505e:	cb48                	sw	a0,20(a4)
    5060:	8082                	ret
    5062:	400217b7          	lui	a5,0x40021
    5066:	4bd8                	lw	a4,20(a5)
    5068:	fff54513          	not	a0,a0
    506c:	8d79                	and	a0,a0,a4
    506e:	cbc8                	sw	a0,20(a5)
    5070:	8082                	ret

00005072 <RCC_APB2PeriphClockCmd>:
    5072:	c599                	beqz	a1,5080 <RCC_APB2PeriphClockCmd+0xe>
    5074:	40021737          	lui	a4,0x40021
    5078:	4f1c                	lw	a5,24(a4)
    507a:	8d5d                	or	a0,a0,a5
    507c:	cf08                	sw	a0,24(a4)
    507e:	8082                	ret
    5080:	400217b7          	lui	a5,0x40021
    5084:	4f98                	lw	a4,24(a5)
    5086:	fff54513          	not	a0,a0
    508a:	8d79                	and	a0,a0,a4
    508c:	cf88                	sw	a0,24(a5)
    508e:	8082                	ret

00005090 <RCC_APB1PeriphClockCmd>:
    5090:	c599                	beqz	a1,509e <RCC_APB1PeriphClockCmd+0xe>
    5092:	40021737          	lui	a4,0x40021
    5096:	4f5c                	lw	a5,28(a4)
    5098:	8d5d                	or	a0,a0,a5
    509a:	cf48                	sw	a0,28(a4)
    509c:	8082                	ret
    509e:	400217b7          	lui	a5,0x40021
    50a2:	4fd8                	lw	a4,28(a5)
    50a4:	fff54513          	not	a0,a0
    50a8:	8d79                	and	a0,a0,a4
    50aa:	cfc8                	sw	a0,28(a5)
    50ac:	8082                	ret

000050ae <RCC_APB2PeriphResetCmd>:
    50ae:	c599                	beqz	a1,50bc <RCC_APB2PeriphResetCmd+0xe>
    50b0:	40021737          	lui	a4,0x40021
    50b4:	475c                	lw	a5,12(a4)
    50b6:	8d5d                	or	a0,a0,a5
    50b8:	c748                	sw	a0,12(a4)
    50ba:	8082                	ret
    50bc:	400217b7          	lui	a5,0x40021
    50c0:	47d8                	lw	a4,12(a5)
    50c2:	fff54513          	not	a0,a0
    50c6:	8d79                	and	a0,a0,a4
    50c8:	c7c8                	sw	a0,12(a5)
    50ca:	8082                	ret

000050cc <SPI_Init>:
    50cc:	00055703          	lhu	a4,0(a0)
    50d0:	678d                	lui	a5,0x3
    50d2:	04078793          	addi	a5,a5,64 # 3040 <check_rightangle_bend+0x76>
    50d6:	0025d683          	lhu	a3,2(a1) # 40010002 <_eusrstack+0x20000002>
    50da:	8f7d                	and	a4,a4,a5
    50dc:	0005d783          	lhu	a5,0(a1)
    50e0:	8fd5                	or	a5,a5,a3
    50e2:	0045d683          	lhu	a3,4(a1)
    50e6:	8fd5                	or	a5,a5,a3
    50e8:	0065d683          	lhu	a3,6(a1)
    50ec:	8fd5                	or	a5,a5,a3
    50ee:	0085d683          	lhu	a3,8(a1)
    50f2:	8fd5                	or	a5,a5,a3
    50f4:	00a5d683          	lhu	a3,10(a1)
    50f8:	8fd5                	or	a5,a5,a3
    50fa:	00c5d683          	lhu	a3,12(a1)
    50fe:	8fd5                	or	a5,a5,a3
    5100:	00e5d683          	lhu	a3,14(a1)
    5104:	8fd5                	or	a5,a5,a3
    5106:	8fd9                	or	a5,a5,a4
    5108:	00f51023          	sh	a5,0(a0)
    510c:	01c55703          	lhu	a4,28(a0)
    5110:	77fd                	lui	a5,0xfffff
    5112:	7ff78793          	addi	a5,a5,2047 # fffff7ff <_eusrstack+0xdffef7ff>
    5116:	8ff9                	and	a5,a5,a4
    5118:	00f51e23          	sh	a5,28(a0)
    511c:	0105d783          	lhu	a5,16(a1)
    5120:	00f51823          	sh	a5,16(a0)
    5124:	8082                	ret

00005126 <SPI_Cmd>:
    5126:	00055783          	lhu	a5,0(a0)
    512a:	c591                	beqz	a1,5136 <SPI_Cmd+0x10>
    512c:	0407e793          	ori	a5,a5,64
    5130:	00f51023          	sh	a5,0(a0)
    5134:	8082                	ret
    5136:	07c2                	slli	a5,a5,0x10
    5138:	83c1                	srli	a5,a5,0x10
    513a:	fbf7f793          	andi	a5,a5,-65
    513e:	07c2                	slli	a5,a5,0x10
    5140:	83c1                	srli	a5,a5,0x10
    5142:	b7fd                	j	5130 <SPI_Cmd+0xa>

00005144 <TIM_TimeBaseInit>:
    5144:	00055783          	lhu	a5,0(a0)
    5148:	40013737          	lui	a4,0x40013
    514c:	c0070693          	addi	a3,a4,-1024 # 40012c00 <_eusrstack+0x20002c00>
    5150:	07c2                	slli	a5,a5,0x10
    5152:	83c1                	srli	a5,a5,0x10
    5154:	04d50063          	beq	a0,a3,5194 <TIM_TimeBaseInit+0x50>
    5158:	400006b7          	lui	a3,0x40000
    515c:	02d50c63          	beq	a0,a3,5194 <TIM_TimeBaseInit+0x50>
    5160:	40068693          	addi	a3,a3,1024 # 40000400 <_eusrstack+0x1fff0400>
    5164:	02d50863          	beq	a0,a3,5194 <TIM_TimeBaseInit+0x50>
    5168:	400016b7          	lui	a3,0x40001
    516c:	80068613          	addi	a2,a3,-2048 # 40000800 <_eusrstack+0x1fff0800>
    5170:	02c50263          	beq	a0,a2,5194 <TIM_TimeBaseInit+0x50>
    5174:	c0068693          	addi	a3,a3,-1024
    5178:	00d50e63          	beq	a0,a3,5194 <TIM_TimeBaseInit+0x50>
    517c:	40070713          	addi	a4,a4,1024
    5180:	00e50a63          	beq	a0,a4,5194 <TIM_TimeBaseInit+0x50>
    5184:	40015737          	lui	a4,0x40015
    5188:	c0070693          	addi	a3,a4,-1024 # 40014c00 <_eusrstack+0x20004c00>
    518c:	00d50463          	beq	a0,a3,5194 <TIM_TimeBaseInit+0x50>
    5190:	00e51763          	bne	a0,a4,519e <TIM_TimeBaseInit+0x5a>
    5194:	0025d703          	lhu	a4,2(a1)
    5198:	f8f7f793          	andi	a5,a5,-113
    519c:	8fd9                	or	a5,a5,a4
    519e:	40001737          	lui	a4,0x40001
    51a2:	00e50d63          	beq	a0,a4,51bc <TIM_TimeBaseInit+0x78>
    51a6:	40070713          	addi	a4,a4,1024 # 40001400 <_eusrstack+0x1fff1400>
    51aa:	00e50963          	beq	a0,a4,51bc <TIM_TimeBaseInit+0x78>
    51ae:	cff7f793          	andi	a5,a5,-769
    51b2:	0065d703          	lhu	a4,6(a1)
    51b6:	07c2                	slli	a5,a5,0x10
    51b8:	83c1                	srli	a5,a5,0x10
    51ba:	8fd9                	or	a5,a5,a4
    51bc:	00f51023          	sh	a5,0(a0)
    51c0:	0045d783          	lhu	a5,4(a1)
    51c4:	02f51623          	sh	a5,44(a0)
    51c8:	0005d783          	lhu	a5,0(a1)
    51cc:	02f51423          	sh	a5,40(a0)
    51d0:	400137b7          	lui	a5,0x40013
    51d4:	c0078713          	addi	a4,a5,-1024 # 40012c00 <_eusrstack+0x20002c00>
    51d8:	00e50e63          	beq	a0,a4,51f4 <TIM_TimeBaseInit+0xb0>
    51dc:	40078793          	addi	a5,a5,1024
    51e0:	00f50a63          	beq	a0,a5,51f4 <TIM_TimeBaseInit+0xb0>
    51e4:	400157b7          	lui	a5,0x40015
    51e8:	c0078713          	addi	a4,a5,-1024 # 40014c00 <_eusrstack+0x20004c00>
    51ec:	00e50463          	beq	a0,a4,51f4 <TIM_TimeBaseInit+0xb0>
    51f0:	00f51663          	bne	a0,a5,51fc <TIM_TimeBaseInit+0xb8>
    51f4:	0085c783          	lbu	a5,8(a1)
    51f8:	02f51823          	sh	a5,48(a0)
    51fc:	4785                	li	a5,1
    51fe:	00f51a23          	sh	a5,20(a0)
    5202:	8082                	ret

00005204 <TIM_OC1Init>:
    5204:	02055783          	lhu	a5,32(a0)
    5208:	0005d603          	lhu	a2,0(a1)
    520c:	0025d803          	lhu	a6,2(a1)
    5210:	07c2                	slli	a5,a5,0x10
    5212:	83c1                	srli	a5,a5,0x10
    5214:	9bf9                	andi	a5,a5,-2
    5216:	07c2                	slli	a5,a5,0x10
    5218:	83c1                	srli	a5,a5,0x10
    521a:	02f51023          	sh	a5,32(a0)
    521e:	02055783          	lhu	a5,32(a0)
    5222:	00455683          	lhu	a3,4(a0)
    5226:	01855703          	lhu	a4,24(a0)
    522a:	07c2                	slli	a5,a5,0x10
    522c:	83c1                	srli	a5,a5,0x10
    522e:	0742                	slli	a4,a4,0x10
    5230:	8341                	srli	a4,a4,0x10
    5232:	f8c77713          	andi	a4,a4,-116
    5236:	8f51                	or	a4,a4,a2
    5238:	0085d603          	lhu	a2,8(a1)
    523c:	9bf5                	andi	a5,a5,-3
    523e:	06c2                	slli	a3,a3,0x10
    5240:	01066633          	or	a2,a2,a6
    5244:	8fd1                	or	a5,a5,a2
    5246:	40013637          	lui	a2,0x40013
    524a:	c0060813          	addi	a6,a2,-1024 # 40012c00 <_eusrstack+0x20002c00>
    524e:	82c1                	srli	a3,a3,0x10
    5250:	01050e63          	beq	a0,a6,526c <TIM_OC1Init+0x68>
    5254:	40060613          	addi	a2,a2,1024
    5258:	00c50a63          	beq	a0,a2,526c <TIM_OC1Init+0x68>
    525c:	40015637          	lui	a2,0x40015
    5260:	c0060813          	addi	a6,a2,-1024 # 40014c00 <_eusrstack+0x20004c00>
    5264:	01050463          	beq	a0,a6,526c <TIM_OC1Init+0x68>
    5268:	02c51363          	bne	a0,a2,528e <TIM_OC1Init+0x8a>
    526c:	00a5d603          	lhu	a2,10(a1)
    5270:	9bdd                	andi	a5,a5,-9
    5272:	00e5d803          	lhu	a6,14(a1)
    5276:	8fd1                	or	a5,a5,a2
    5278:	0045d603          	lhu	a2,4(a1)
    527c:	9bed                	andi	a5,a5,-5
    527e:	cff6f693          	andi	a3,a3,-769
    5282:	8fd1                	or	a5,a5,a2
    5284:	00c5d603          	lhu	a2,12(a1)
    5288:	01066633          	or	a2,a2,a6
    528c:	8ed1                	or	a3,a3,a2
    528e:	00d51223          	sh	a3,4(a0)
    5292:	00e51c23          	sh	a4,24(a0)
    5296:	0065d703          	lhu	a4,6(a1)
    529a:	02e51a23          	sh	a4,52(a0)
    529e:	02f51023          	sh	a5,32(a0)
    52a2:	8082                	ret

000052a4 <TIM_OC2Init>:
    52a4:	02055783          	lhu	a5,32(a0)
    52a8:	7765                	lui	a4,0xffff9
    52aa:	cff70713          	addi	a4,a4,-769 # ffff8cff <_eusrstack+0xdffe8cff>
    52ae:	07c2                	slli	a5,a5,0x10
    52b0:	83c1                	srli	a5,a5,0x10
    52b2:	9bbd                	andi	a5,a5,-17
    52b4:	07c2                	slli	a5,a5,0x10
    52b6:	83c1                	srli	a5,a5,0x10
    52b8:	02f51023          	sh	a5,32(a0)
    52bc:	02055783          	lhu	a5,32(a0)
    52c0:	00455683          	lhu	a3,4(a0)
    52c4:	0085d803          	lhu	a6,8(a1)
    52c8:	07c2                	slli	a5,a5,0x10
    52ca:	01069613          	slli	a2,a3,0x10
    52ce:	01855683          	lhu	a3,24(a0)
    52d2:	83c1                	srli	a5,a5,0x10
    52d4:	fdf7f793          	andi	a5,a5,-33
    52d8:	8f75                	and	a4,a4,a3
    52da:	0005d683          	lhu	a3,0(a1)
    52de:	8241                	srli	a2,a2,0x10
    52e0:	06a2                	slli	a3,a3,0x8
    52e2:	8f55                	or	a4,a4,a3
    52e4:	0025d683          	lhu	a3,2(a1)
    52e8:	0742                	slli	a4,a4,0x10
    52ea:	8341                	srli	a4,a4,0x10
    52ec:	0106e6b3          	or	a3,a3,a6
    52f0:	0692                	slli	a3,a3,0x4
    52f2:	8fd5                	or	a5,a5,a3
    52f4:	400136b7          	lui	a3,0x40013
    52f8:	07c2                	slli	a5,a5,0x10
    52fa:	c0068813          	addi	a6,a3,-1024 # 40012c00 <_eusrstack+0x20002c00>
    52fe:	83c1                	srli	a5,a5,0x10
    5300:	01050e63          	beq	a0,a6,531c <TIM_OC2Init+0x78>
    5304:	40068693          	addi	a3,a3,1024
    5308:	00d50a63          	beq	a0,a3,531c <TIM_OC2Init+0x78>
    530c:	400156b7          	lui	a3,0x40015
    5310:	c0068813          	addi	a6,a3,-1024 # 40014c00 <_eusrstack+0x20004c00>
    5314:	01050463          	beq	a0,a6,531c <TIM_OC2Init+0x78>
    5318:	04d51163          	bne	a0,a3,535a <TIM_OC2Init+0xb6>
    531c:	00a5d683          	lhu	a3,10(a1)
    5320:	f7f7f793          	andi	a5,a5,-129
    5324:	00c5d803          	lhu	a6,12(a1)
    5328:	0692                	slli	a3,a3,0x4
    532a:	8fd5                	or	a5,a5,a3
    532c:	0045d683          	lhu	a3,4(a1)
    5330:	07c2                	slli	a5,a5,0x10
    5332:	83c1                	srli	a5,a5,0x10
    5334:	0692                	slli	a3,a3,0x4
    5336:	fbf7f793          	andi	a5,a5,-65
    533a:	8fd5                	or	a5,a5,a3
    533c:	76fd                	lui	a3,0xfffff
    533e:	3ff68693          	addi	a3,a3,1023 # fffff3ff <_eusrstack+0xdffef3ff>
    5342:	8ef1                	and	a3,a3,a2
    5344:	00e5d603          	lhu	a2,14(a1)
    5348:	07c2                	slli	a5,a5,0x10
    534a:	83c1                	srli	a5,a5,0x10
    534c:	01066633          	or	a2,a2,a6
    5350:	060a                	slli	a2,a2,0x2
    5352:	8ed1                	or	a3,a3,a2
    5354:	01069613          	slli	a2,a3,0x10
    5358:	8241                	srli	a2,a2,0x10
    535a:	00c51223          	sh	a2,4(a0)
    535e:	00e51c23          	sh	a4,24(a0)
    5362:	0065d703          	lhu	a4,6(a1)
    5366:	02e51c23          	sh	a4,56(a0)
    536a:	02f51023          	sh	a5,32(a0)
    536e:	8082                	ret

00005370 <TIM_OC3Init>:
    5370:	02055783          	lhu	a5,32(a0)
    5374:	0085d803          	lhu	a6,8(a1)
    5378:	07c2                	slli	a5,a5,0x10
    537a:	83c1                	srli	a5,a5,0x10
    537c:	eff7f793          	andi	a5,a5,-257
    5380:	07c2                	slli	a5,a5,0x10
    5382:	83c1                	srli	a5,a5,0x10
    5384:	02f51023          	sh	a5,32(a0)
    5388:	02055783          	lhu	a5,32(a0)
    538c:	00455683          	lhu	a3,4(a0)
    5390:	01c55703          	lhu	a4,28(a0)
    5394:	07c2                	slli	a5,a5,0x10
    5396:	01069613          	slli	a2,a3,0x10
    539a:	0742                	slli	a4,a4,0x10
    539c:	0005d683          	lhu	a3,0(a1)
    53a0:	8341                	srli	a4,a4,0x10
    53a2:	f8c77713          	andi	a4,a4,-116
    53a6:	8f55                	or	a4,a4,a3
    53a8:	0025d683          	lhu	a3,2(a1)
    53ac:	83c1                	srli	a5,a5,0x10
    53ae:	dff7f793          	andi	a5,a5,-513
    53b2:	0106e6b3          	or	a3,a3,a6
    53b6:	06a2                	slli	a3,a3,0x8
    53b8:	8fd5                	or	a5,a5,a3
    53ba:	400136b7          	lui	a3,0x40013
    53be:	07c2                	slli	a5,a5,0x10
    53c0:	c0068813          	addi	a6,a3,-1024 # 40012c00 <_eusrstack+0x20002c00>
    53c4:	8241                	srli	a2,a2,0x10
    53c6:	83c1                	srli	a5,a5,0x10
    53c8:	01050e63          	beq	a0,a6,53e4 <TIM_OC3Init+0x74>
    53cc:	40068693          	addi	a3,a3,1024
    53d0:	00d50a63          	beq	a0,a3,53e4 <TIM_OC3Init+0x74>
    53d4:	400156b7          	lui	a3,0x40015
    53d8:	c0068813          	addi	a6,a3,-1024 # 40014c00 <_eusrstack+0x20004c00>
    53dc:	01050463          	beq	a0,a6,53e4 <TIM_OC3Init+0x74>
    53e0:	04d51263          	bne	a0,a3,5424 <TIM_OC3Init+0xb4>
    53e4:	76fd                	lui	a3,0xfffff
    53e6:	7ff68693          	addi	a3,a3,2047 # fffff7ff <_eusrstack+0xdffef7ff>
    53ea:	8ff5                	and	a5,a5,a3
    53ec:	00a5d683          	lhu	a3,10(a1)
    53f0:	00c5d803          	lhu	a6,12(a1)
    53f4:	06a2                	slli	a3,a3,0x8
    53f6:	8fd5                	or	a5,a5,a3
    53f8:	0045d683          	lhu	a3,4(a1)
    53fc:	07c2                	slli	a5,a5,0x10
    53fe:	83c1                	srli	a5,a5,0x10
    5400:	06a2                	slli	a3,a3,0x8
    5402:	bff7f793          	andi	a5,a5,-1025
    5406:	8fd5                	or	a5,a5,a3
    5408:	76f5                	lui	a3,0xffffd
    540a:	16fd                	addi	a3,a3,-1
    540c:	8ef1                	and	a3,a3,a2
    540e:	00e5d603          	lhu	a2,14(a1)
    5412:	07c2                	slli	a5,a5,0x10
    5414:	83c1                	srli	a5,a5,0x10
    5416:	01066633          	or	a2,a2,a6
    541a:	0612                	slli	a2,a2,0x4
    541c:	8ed1                	or	a3,a3,a2
    541e:	01069613          	slli	a2,a3,0x10
    5422:	8241                	srli	a2,a2,0x10
    5424:	00c51223          	sh	a2,4(a0)
    5428:	00e51e23          	sh	a4,28(a0)
    542c:	0065d703          	lhu	a4,6(a1)
    5430:	02e51e23          	sh	a4,60(a0)
    5434:	02f51023          	sh	a5,32(a0)
    5438:	8082                	ret

0000543a <TIM_OC4Init>:
    543a:	02055703          	lhu	a4,32(a0)
    543e:	77fd                	lui	a5,0xfffff
    5440:	17fd                	addi	a5,a5,-1
    5442:	8ff9                	and	a5,a5,a4
    5444:	02f51023          	sh	a5,32(a0)
    5448:	02055803          	lhu	a6,32(a0)
    544c:	00455683          	lhu	a3,4(a0)
    5450:	01c55783          	lhu	a5,28(a0)
    5454:	7765                	lui	a4,0xffff9
    5456:	01069613          	slli	a2,a3,0x10
    545a:	0005d683          	lhu	a3,0(a1)
    545e:	cff70713          	addi	a4,a4,-769 # ffff8cff <_eusrstack+0xdffe8cff>
    5462:	8f7d                	and	a4,a4,a5
    5464:	77f9                	lui	a5,0xffffe
    5466:	06a2                	slli	a3,a3,0x8
    5468:	17fd                	addi	a5,a5,-1
    546a:	8f55                	or	a4,a4,a3
    546c:	0107f7b3          	and	a5,a5,a6
    5470:	0025d683          	lhu	a3,2(a1)
    5474:	0085d803          	lhu	a6,8(a1)
    5478:	0742                	slli	a4,a4,0x10
    547a:	8241                	srli	a2,a2,0x10
    547c:	0106e6b3          	or	a3,a3,a6
    5480:	06b2                	slli	a3,a3,0xc
    5482:	8fd5                	or	a5,a5,a3
    5484:	400136b7          	lui	a3,0x40013
    5488:	07c2                	slli	a5,a5,0x10
    548a:	c0068813          	addi	a6,a3,-1024 # 40012c00 <_eusrstack+0x20002c00>
    548e:	8341                	srli	a4,a4,0x10
    5490:	83c1                	srli	a5,a5,0x10
    5492:	01050e63          	beq	a0,a6,54ae <TIM_OC4Init+0x74>
    5496:	40068693          	addi	a3,a3,1024
    549a:	00d50a63          	beq	a0,a3,54ae <TIM_OC4Init+0x74>
    549e:	400156b7          	lui	a3,0x40015
    54a2:	c0068813          	addi	a6,a3,-1024 # 40014c00 <_eusrstack+0x20004c00>
    54a6:	01050463          	beq	a0,a6,54ae <TIM_OC4Init+0x74>
    54aa:	00d51c63          	bne	a0,a3,54c2 <TIM_OC4Init+0x88>
    54ae:	76f1                	lui	a3,0xffffc
    54b0:	16fd                	addi	a3,a3,-1
    54b2:	8ef1                	and	a3,a3,a2
    54b4:	00c5d603          	lhu	a2,12(a1)
    54b8:	061a                	slli	a2,a2,0x6
    54ba:	8ed1                	or	a3,a3,a2
    54bc:	01069613          	slli	a2,a3,0x10
    54c0:	8241                	srli	a2,a2,0x10
    54c2:	00c51223          	sh	a2,4(a0)
    54c6:	00e51e23          	sh	a4,28(a0)
    54ca:	0065d703          	lhu	a4,6(a1)
    54ce:	04e51023          	sh	a4,64(a0)
    54d2:	02f51023          	sh	a5,32(a0)
    54d6:	8082                	ret

000054d8 <TIM_Cmd>:
    54d8:	00055783          	lhu	a5,0(a0)
    54dc:	c591                	beqz	a1,54e8 <TIM_Cmd+0x10>
    54de:	0017e793          	ori	a5,a5,1
    54e2:	00f51023          	sh	a5,0(a0)
    54e6:	8082                	ret
    54e8:	07c2                	slli	a5,a5,0x10
    54ea:	83c1                	srli	a5,a5,0x10
    54ec:	9bf9                	andi	a5,a5,-2
    54ee:	07c2                	slli	a5,a5,0x10
    54f0:	83c1                	srli	a5,a5,0x10
    54f2:	bfc5                	j	54e2 <TIM_Cmd+0xa>

000054f4 <TIM_CtrlPWMOutputs>:
    54f4:	04455783          	lhu	a5,68(a0)
    54f8:	c591                	beqz	a1,5504 <TIM_CtrlPWMOutputs+0x10>
    54fa:	6721                	lui	a4,0x8
    54fc:	8fd9                	or	a5,a5,a4
    54fe:	04f51223          	sh	a5,68(a0)
    5502:	8082                	ret
    5504:	07c6                	slli	a5,a5,0x11
    5506:	83c5                	srli	a5,a5,0x11
    5508:	bfdd                	j	54fe <TIM_CtrlPWMOutputs+0xa>

0000550a <TIM_OC1PreloadConfig>:
    550a:	01855783          	lhu	a5,24(a0)
    550e:	07c2                	slli	a5,a5,0x10
    5510:	83c1                	srli	a5,a5,0x10
    5512:	9bdd                	andi	a5,a5,-9
    5514:	8ddd                	or	a1,a1,a5
    5516:	00b51c23          	sh	a1,24(a0)
    551a:	8082                	ret

0000551c <TIM_OC2PreloadConfig>:
    551c:	01855703          	lhu	a4,24(a0)
    5520:	77fd                	lui	a5,0xfffff
    5522:	7ff78793          	addi	a5,a5,2047 # fffff7ff <_eusrstack+0xdffef7ff>
    5526:	8ff9                	and	a5,a5,a4
    5528:	05a2                	slli	a1,a1,0x8
    552a:	8fcd                	or	a5,a5,a1
    552c:	07c2                	slli	a5,a5,0x10
    552e:	83c1                	srli	a5,a5,0x10
    5530:	00f51c23          	sh	a5,24(a0)
    5534:	8082                	ret

00005536 <TIM_OC3PreloadConfig>:
    5536:	01c55783          	lhu	a5,28(a0)
    553a:	07c2                	slli	a5,a5,0x10
    553c:	83c1                	srli	a5,a5,0x10
    553e:	9bdd                	andi	a5,a5,-9
    5540:	8ddd                	or	a1,a1,a5
    5542:	00b51e23          	sh	a1,28(a0)
    5546:	8082                	ret

00005548 <TIM_OC4PreloadConfig>:
    5548:	01c55703          	lhu	a4,28(a0)
    554c:	77fd                	lui	a5,0xfffff
    554e:	7ff78793          	addi	a5,a5,2047 # fffff7ff <_eusrstack+0xdffef7ff>
    5552:	8ff9                	and	a5,a5,a4
    5554:	05a2                	slli	a1,a1,0x8
    5556:	8fcd                	or	a5,a5,a1
    5558:	07c2                	slli	a5,a5,0x10
    555a:	83c1                	srli	a5,a5,0x10
    555c:	00f51e23          	sh	a5,28(a0)
    5560:	8082                	ret

00005562 <TIM_OC2PolarityConfig>:
    5562:	02055783          	lhu	a5,32(a0)
    5566:	0592                	slli	a1,a1,0x4
    5568:	07c2                	slli	a5,a5,0x10
    556a:	83c1                	srli	a5,a5,0x10
    556c:	fdf7f793          	andi	a5,a5,-33
    5570:	8fcd                	or	a5,a5,a1
    5572:	07c2                	slli	a5,a5,0x10
    5574:	83c1                	srli	a5,a5,0x10
    5576:	02f51023          	sh	a5,32(a0)
    557a:	8082                	ret

0000557c <TIM_CCxCmd>:
    557c:	02055703          	lhu	a4,32(a0)
    5580:	4785                	li	a5,1
    5582:	00b797b3          	sll	a5,a5,a1
    5586:	fff7c793          	not	a5,a5
    558a:	8ff9                	and	a5,a5,a4
    558c:	02f51023          	sh	a5,32(a0)
    5590:	02055783          	lhu	a5,32(a0)
    5594:	00b615b3          	sll	a1,a2,a1
    5598:	8ddd                	or	a1,a1,a5
    559a:	05c2                	slli	a1,a1,0x10
    559c:	81c1                	srli	a1,a1,0x10
    559e:	02b51023          	sh	a1,32(a0)
    55a2:	8082                	ret

000055a4 <TIM_SetCounter>:
    55a4:	02b51223          	sh	a1,36(a0)
    55a8:	8082                	ret

000055aa <TIM_GetFlagStatus>:
    55aa:	01055503          	lhu	a0,16(a0)
    55ae:	8d6d                	and	a0,a0,a1
    55b0:	00a03533          	snez	a0,a0
    55b4:	8082                	ret

000055b6 <TIM_ClearFlag>:
    55b6:	fff5c593          	not	a1,a1
    55ba:	05c2                	slli	a1,a1,0x10
    55bc:	81c1                	srli	a1,a1,0x10
    55be:	00b51823          	sh	a1,16(a0)
    55c2:	8082                	ret

000055c4 <TIM_GetITStatus>:
    55c4:	01055783          	lhu	a5,16(a0)
    55c8:	00c55503          	lhu	a0,12(a0)
    55cc:	8fed                	and	a5,a5,a1
    55ce:	0542                	slli	a0,a0,0x10
    55d0:	8141                	srli	a0,a0,0x10
    55d2:	c789                	beqz	a5,55dc <TIM_GetITStatus+0x18>
    55d4:	8d6d                	and	a0,a0,a1
    55d6:	00a03533          	snez	a0,a0
    55da:	8082                	ret
    55dc:	4501                	li	a0,0
    55de:	8082                	ret

000055e0 <TIM_ClearITPendingBit>:
    55e0:	fff5c593          	not	a1,a1
    55e4:	05c2                	slli	a1,a1,0x10
    55e6:	81c1                	srli	a1,a1,0x10
    55e8:	00b51823          	sh	a1,16(a0)
    55ec:	8082                	ret

000055ee <USART_Init>:
    55ee:	01055683          	lhu	a3,16(a0)
    55f2:	77f5                	lui	a5,0xffffd
    55f4:	17fd                	addi	a5,a5,-1
    55f6:	8ff5                	and	a5,a5,a3
    55f8:	0065d683          	lhu	a3,6(a1)
    55fc:	7139                	addi	sp,sp,-64
    55fe:	dc22                	sw	s0,56(sp)
    5600:	de06                	sw	ra,60(sp)
    5602:	8fd5                	or	a5,a5,a3
    5604:	00c5d703          	lhu	a4,12(a1)
    5608:	00f51823          	sh	a5,16(a0)
    560c:	00c55683          	lhu	a3,12(a0)
    5610:	77fd                	lui	a5,0xfffff
    5612:	9f378793          	addi	a5,a5,-1549 # ffffe9f3 <_eusrstack+0xdffee9f3>
    5616:	8ff5                	and	a5,a5,a3
    5618:	0045d683          	lhu	a3,4(a1)
    561c:	842a                	mv	s0,a0
    561e:	c62e                	sw	a1,12(sp)
    5620:	8fd5                	or	a5,a5,a3
    5622:	0085d683          	lhu	a3,8(a1)
    5626:	8fd5                	or	a5,a5,a3
    5628:	00a5d683          	lhu	a3,10(a1)
    562c:	8fd5                	or	a5,a5,a3
    562e:	00f51623          	sh	a5,12(a0)
    5632:	01455783          	lhu	a5,20(a0)
    5636:	07c2                	slli	a5,a5,0x10
    5638:	83c1                	srli	a5,a5,0x10
    563a:	cff7f793          	andi	a5,a5,-769
    563e:	8fd9                	or	a5,a5,a4
    5640:	00f51a23          	sh	a5,20(a0)
    5644:	0868                	addi	a0,sp,28
    5646:	901ff0ef          	jal	ra,4f46 <RCC_GetClocksFreq>
    564a:	400147b7          	lui	a5,0x40014
    564e:	80078793          	addi	a5,a5,-2048 # 40013800 <_eusrstack+0x20003800>
    5652:	45b2                	lw	a1,12(sp)
    5654:	04f41e63          	bne	s0,a5,56b0 <USART_Init+0xc2>
    5658:	57a2                	lw	a5,40(sp)
    565a:	00c45683          	lhu	a3,12(s0)
    565e:	4765                	li	a4,25
    5660:	02e787b3          	mul	a5,a5,a4
    5664:	06c2                	slli	a3,a3,0x10
    5666:	86c1                	srai	a3,a3,0x10
    5668:	4198                	lw	a4,0(a1)
    566a:	0406d563          	bgez	a3,56b4 <USART_Init+0xc6>
    566e:	0706                	slli	a4,a4,0x1
    5670:	00c45603          	lhu	a2,12(s0)
    5674:	0642                	slli	a2,a2,0x10
    5676:	02e7d7b3          	divu	a5,a5,a4
    567a:	06400713          	li	a4,100
    567e:	8641                	srai	a2,a2,0x10
    5680:	02e7d6b3          	divu	a3,a5,a4
    5684:	02e7f7b3          	remu	a5,a5,a4
    5688:	0692                	slli	a3,a3,0x4
    568a:	02065763          	bgez	a2,56b8 <USART_Init+0xca>
    568e:	078e                	slli	a5,a5,0x3
    5690:	03278793          	addi	a5,a5,50
    5694:	02e7d7b3          	divu	a5,a5,a4
    5698:	0077f713          	andi	a4,a5,7
    569c:	00d767b3          	or	a5,a4,a3
    56a0:	07c2                	slli	a5,a5,0x10
    56a2:	83c1                	srli	a5,a5,0x10
    56a4:	00f41423          	sh	a5,8(s0)
    56a8:	50f2                	lw	ra,60(sp)
    56aa:	5462                	lw	s0,56(sp)
    56ac:	6121                	addi	sp,sp,64
    56ae:	8082                	ret
    56b0:	5792                	lw	a5,36(sp)
    56b2:	b765                	j	565a <USART_Init+0x6c>
    56b4:	070a                	slli	a4,a4,0x2
    56b6:	bf6d                	j	5670 <USART_Init+0x82>
    56b8:	0792                	slli	a5,a5,0x4
    56ba:	03278793          	addi	a5,a5,50
    56be:	02e7d7b3          	divu	a5,a5,a4
    56c2:	8bbd                	andi	a5,a5,15
    56c4:	8fd5                	or	a5,a5,a3
    56c6:	bfe9                	j	56a0 <USART_Init+0xb2>

000056c8 <USART_Cmd>:
    56c8:	c981                	beqz	a1,56d8 <USART_Cmd+0x10>
    56ca:	00c55783          	lhu	a5,12(a0)
    56ce:	6709                	lui	a4,0x2
    56d0:	8fd9                	or	a5,a5,a4
    56d2:	00f51623          	sh	a5,12(a0)
    56d6:	8082                	ret
    56d8:	00c55703          	lhu	a4,12(a0)
    56dc:	77f9                	lui	a5,0xffffe
    56de:	17fd                	addi	a5,a5,-1
    56e0:	8ff9                	and	a5,a5,a4
    56e2:	bfc5                	j	56d2 <USART_Cmd+0xa>

000056e4 <USART_ITConfig>:
    56e4:	0ff5f713          	andi	a4,a1,255
    56e8:	4785                	li	a5,1
    56ea:	8315                	srli	a4,a4,0x5
    56ec:	00b795b3          	sll	a1,a5,a1
    56f0:	00f71963          	bne	a4,a5,5702 <USART_ITConfig+0x1e>
    56f4:	00c50793          	addi	a5,a0,12
    56f8:	4398                	lw	a4,0(a5)
    56fa:	ce01                	beqz	a2,5712 <USART_ITConfig+0x2e>
    56fc:	8dd9                	or	a1,a1,a4
    56fe:	c38c                	sw	a1,0(a5)
    5700:	8082                	ret
    5702:	4689                	li	a3,2
    5704:	01450793          	addi	a5,a0,20
    5708:	fed718e3          	bne	a4,a3,56f8 <USART_ITConfig+0x14>
    570c:	01050793          	addi	a5,a0,16
    5710:	b7e5                	j	56f8 <USART_ITConfig+0x14>
    5712:	fff5c593          	not	a1,a1
    5716:	8df9                	and	a1,a1,a4
    5718:	b7dd                	j	56fe <USART_ITConfig+0x1a>

0000571a <USART_SendData>:
    571a:	1ff5f593          	andi	a1,a1,511
    571e:	00b51223          	sh	a1,4(a0)
    5722:	8082                	ret

00005724 <USART_GetFlagStatus>:
    5724:	00055503          	lhu	a0,0(a0)
    5728:	8d6d                	and	a0,a0,a1
    572a:	00a03533          	snez	a0,a0
    572e:	8082                	ret

00005730 <USART_GetITStatus>:
    5730:	0ff5f713          	andi	a4,a1,255
    5734:	4685                	li	a3,1
    5736:	8315                	srli	a4,a4,0x5
    5738:	00b697b3          	sll	a5,a3,a1
    573c:	02d71363          	bne	a4,a3,5762 <USART_GetITStatus+0x32>
    5740:	00c55703          	lhu	a4,12(a0)
    5744:	8ff9                	and	a5,a5,a4
    5746:	00055703          	lhu	a4,0(a0)
    574a:	4501                	li	a0,0
    574c:	0742                	slli	a4,a4,0x10
    574e:	8341                	srli	a4,a4,0x10
    5750:	cb81                	beqz	a5,5760 <USART_GetITStatus+0x30>
    5752:	4505                	li	a0,1
    5754:	81a1                	srli	a1,a1,0x8
    5756:	00b515b3          	sll	a1,a0,a1
    575a:	8f6d                	and	a4,a4,a1
    575c:	00e03533          	snez	a0,a4
    5760:	8082                	ret
    5762:	4689                	li	a3,2
    5764:	00d71563          	bne	a4,a3,576e <USART_GetITStatus+0x3e>
    5768:	01055703          	lhu	a4,16(a0)
    576c:	bfe1                	j	5744 <USART_GetITStatus+0x14>
    576e:	01455703          	lhu	a4,20(a0)
    5772:	bfc9                	j	5744 <USART_GetITStatus+0x14>

00005774 <USART_ClearITPendingBit>:
    5774:	81a1                	srli	a1,a1,0x8
    5776:	4785                	li	a5,1
    5778:	00b797b3          	sll	a5,a5,a1
    577c:	fff7c793          	not	a5,a5
    5780:	07c2                	slli	a5,a5,0x10
    5782:	83c1                	srli	a5,a5,0x10
    5784:	00f51023          	sh	a5,0(a0)
    5788:	8082                	ret

0000578a <DevEP1_IN_Deal>:
    578a:	500007b7          	lui	a5,0x50000
    578e:	02a79a23          	sh	a0,52(a5) # 50000034 <_eusrstack+0x2fff0034>
    5792:	0367c703          	lbu	a4,54(a5)
    5796:	0fc77713          	andi	a4,a4,252
    579a:	02e78b23          	sb	a4,54(a5)
    579e:	8082                	ret

000057a0 <DevEP2_IN_Deal>:
    57a0:	500007b7          	lui	a5,0x50000
    57a4:	02a79c23          	sh	a0,56(a5) # 50000038 <_eusrstack+0x2fff0038>
    57a8:	03a7c703          	lbu	a4,58(a5)
    57ac:	0fc77713          	andi	a4,a4,252
    57b0:	02e78d23          	sb	a4,58(a5)
    57b4:	8082                	ret

000057b6 <DevEP1_OUT_Deal>:
    57b6:	4781                	li	a5,0
    57b8:	2000b637          	lui	a2,0x2000b
    57bc:	0ff7f713          	andi	a4,a5,255
    57c0:	00a76463          	bltu	a4,a0,57c8 <DevEP1_OUT_Deal+0x12>
    57c4:	fc7ff06f          	j	578a <DevEP1_IN_Deal>
    57c8:	72862703          	lw	a4,1832(a2) # 2000b728 <pEP1_RAM_Addr>
    57cc:	973e                	add	a4,a4,a5
    57ce:	00074683          	lbu	a3,0(a4) # 2000 <pwm_gpio_init+0x52>
    57d2:	0785                	addi	a5,a5,1
    57d4:	fff6c693          	not	a3,a3
    57d8:	04d70023          	sb	a3,64(a4)
    57dc:	b7c5                	j	57bc <DevEP1_OUT_Deal+0x6>

000057de <DevEP2_OUT_Deal>:
    57de:	4781                	li	a5,0
    57e0:	2000b637          	lui	a2,0x2000b
    57e4:	0ff7f713          	andi	a4,a5,255
    57e8:	00a76463          	bltu	a4,a0,57f0 <DevEP2_OUT_Deal+0x12>
    57ec:	fb5ff06f          	j	57a0 <DevEP2_IN_Deal>
    57f0:	65462703          	lw	a4,1620(a2) # 2000b654 <pEP2_RAM_Addr>
    57f4:	973e                	add	a4,a4,a5
    57f6:	00074683          	lbu	a3,0(a4)
    57fa:	0785                	addi	a5,a5,1
    57fc:	fff6c693          	not	a3,a3
    5800:	04d70023          	sb	a3,64(a4)
    5804:	b7c5                	j	57e4 <DevEP2_OUT_Deal+0x6>

00005806 <OTG_FS_IRQHandler>:
    5806:	500007b7          	lui	a5,0x50000
    580a:	0067c703          	lbu	a4,6(a5) # 50000006 <_eusrstack+0x2fff0006>
    580e:	0ff77713          	andi	a4,a4,255
    5812:	00277693          	andi	a3,a4,2
    5816:	6c068463          	beqz	a3,5ede <OTG_FS_IRQHandler+0x6d8>
    581a:	1101                	addi	sp,sp,-32
    581c:	ce22                	sw	s0,28(sp)
    581e:	cc26                	sw	s1,24(sp)
    5820:	ca4a                	sw	s2,20(sp)
    5822:	c84e                	sw	s3,16(sp)
    5824:	c652                	sw	s4,12(sp)
    5826:	c456                	sw	s5,8(sp)
    5828:	0077c703          	lbu	a4,7(a5)
    582c:	02000693          	li	a3,32
    5830:	03077713          	andi	a4,a4,48
    5834:	4ed70e63          	beq	a4,a3,5d30 <OTG_FS_IRQHandler+0x52a>
    5838:	03000613          	li	a2,48
    583c:	04c70263          	beq	a4,a2,5880 <OTG_FS_IRQHandler+0x7a>
    5840:	24071663          	bnez	a4,5a8c <OTG_FS_IRQHandler+0x286>
    5844:	0077c703          	lbu	a4,7(a5)
    5848:	4605                	li	a2,1
    584a:	03f77713          	andi	a4,a4,63
    584e:	66c70663          	beq	a4,a2,5eba <OTG_FS_IRQHandler+0x6b4>
    5852:	5c070c63          	beqz	a4,5e2a <OTG_FS_IRQHandler+0x624>
    5856:	4689                	li	a3,2
    5858:	22d71a63          	bne	a4,a3,5a8c <OTG_FS_IRQHandler+0x286>
    585c:	0077c703          	lbu	a4,7(a5)
    5860:	04077713          	andi	a4,a4,64
    5864:	22070463          	beqz	a4,5a8c <OTG_FS_IRQHandler+0x286>
    5868:	03b7c703          	lbu	a4,59(a5)
    586c:	00474713          	xori	a4,a4,4
    5870:	02e78da3          	sb	a4,59(a5)
    5874:	4788                	lw	a0,8(a5)
    5876:	0ff57513          	andi	a0,a0,255
    587a:	f65ff0ef          	jal	ra,57de <DevEP2_OUT_Deal>
    587e:	a439                	j	5a8c <OTG_FS_IRQHandler+0x286>
    5880:	4719                	li	a4,6
    5882:	02e78923          	sb	a4,50(a5)
    5886:	4711                	li	a4,4
    5888:	02e789a3          	sb	a4,51(a5)
    588c:	2000b7b7          	lui	a5,0x2000b
    5890:	6587a483          	lw	s1,1624(a5) # 2000b658 <pEP0_RAM_Addr>
    5894:	2000b437          	lui	s0,0x2000b
    5898:	0074c783          	lbu	a5,7(s1)
    589c:	0064c703          	lbu	a4,6(s1)
    58a0:	07a2                	slli	a5,a5,0x8
    58a2:	8fd9                	or	a5,a5,a4
    58a4:	64f41623          	sh	a5,1612(s0) # 2000b64c <SetupReqLen>
    58a8:	0014c703          	lbu	a4,1(s1)
    58ac:	2000b7b7          	lui	a5,0x2000b
    58b0:	64e78723          	sb	a4,1614(a5) # 2000b64e <SetupReqCode>
    58b4:	0004ca03          	lbu	s4,0(s1)
    58b8:	060a7713          	andi	a4,s4,96
    58bc:	10070063          	beqz	a4,59bc <OTG_FS_IRQHandler+0x1b6>
    58c0:	64e7c703          	lbu	a4,1614(a5)
    58c4:	02077713          	andi	a4,a4,32
    58c8:	cf19                	beqz	a4,58e6 <OTG_FS_IRQHandler+0xe0>
    58ca:	64e7c783          	lbu	a5,1614(a5)
    58ce:	02100713          	li	a4,33
    58d2:	0ff7f793          	andi	a5,a5,255
    58d6:	00e78a63          	beq	a5,a4,58ea <OTG_FS_IRQHandler+0xe4>
    58da:	02200713          	li	a4,34
    58de:	00e78463          	beq	a5,a4,58e6 <OTG_FS_IRQHandler+0xe0>
    58e2:	18d79e63          	bne	a5,a3,5a7e <OTG_FS_IRQHandler+0x278>
    58e6:	4901                	li	s2,0
    58e8:	a0a1                	j	5930 <OTG_FS_IRQHandler+0x12a>
    58ea:	83018793          	addi	a5,gp,-2000 # 200001b8 <LineCoding>
    58ee:	2000b9b7          	lui	s3,0x2000b
    58f2:	64f9a823          	sw	a5,1616(s3) # 2000b650 <pDescr>
    58f6:	64c45783          	lhu	a5,1612(s0)
    58fa:	471d                	li	a4,7
    58fc:	4921                	li	s2,8
    58fe:	00f76663          	bltu	a4,a5,590a <OTG_FS_IRQHandler+0x104>
    5902:	64c45903          	lhu	s2,1612(s0)
    5906:	0ff97913          	andi	s2,s2,255
    590a:	864a                	mv	a2,s2
    590c:	83018593          	addi	a1,gp,-2000 # 200001b8 <LineCoding>
    5910:	8526                	mv	a0,s1
    5912:	741020ef          	jal	ra,8852 <memcpy>
    5916:	64c45783          	lhu	a5,1612(s0)
    591a:	412787b3          	sub	a5,a5,s2
    591e:	07c2                	slli	a5,a5,0x10
    5920:	83c1                	srli	a5,a5,0x10
    5922:	64f41623          	sh	a5,1612(s0)
    5926:	6509a783          	lw	a5,1616(s3)
    592a:	97ca                	add	a5,a5,s2
    592c:	64f9a823          	sw	a5,1616(s3)
    5930:	64c45783          	lhu	a5,1612(s0)
    5934:	0942                	slli	s2,s2,0x10
    5936:	01095913          	srli	s2,s2,0x10
    593a:	00f97463          	bgeu	s2,a5,5942 <OTG_FS_IRQHandler+0x13c>
    593e:	65241623          	sh	s2,1612(s0)
    5942:	86c18793          	addi	a5,gp,-1940 # 200001f4 <USBHD_Dev_SetupReqLen>
    5946:	0007d703          	lhu	a4,0(a5)
    594a:	469d                	li	a3,7
    594c:	44a1                	li	s1,8
    594e:	00e6e663          	bltu	a3,a4,595a <OTG_FS_IRQHandler+0x154>
    5952:	0007d483          	lhu	s1,0(a5)
    5956:	0ff4f493          	andi	s1,s1,255
    595a:	2000b9b7          	lui	s3,0x2000b
    595e:	6509a903          	lw	s2,1616(s3) # 2000b650 <pDescr>
    5962:	2000b537          	lui	a0,0x2000b
    5966:	8626                	mv	a2,s1
    5968:	85ca                	mv	a1,s2
    596a:	6dc50513          	addi	a0,a0,1756 # 2000b6dc <EP0_DatabufHD>
    596e:	94ca                	add	s1,s1,s2
    5970:	6e3020ef          	jal	ra,8852 <memcpy>
    5974:	6499a823          	sw	s1,1616(s3)
    5978:	0a62                	slli	s4,s4,0x18
    597a:	418a5a13          	srai	s4,s4,0x18
    597e:	4781                	li	a5,0
    5980:	020a5263          	bgez	s4,59a4 <OTG_FS_IRQHandler+0x19e>
    5984:	64c45703          	lhu	a4,1612(s0)
    5988:	47a1                	li	a5,8
    598a:	00e7e663          	bltu	a5,a4,5996 <OTG_FS_IRQHandler+0x190>
    598e:	64c45783          	lhu	a5,1612(s0)
    5992:	0ff7f793          	andi	a5,a5,255
    5996:	64c45703          	lhu	a4,1612(s0)
    599a:	8f1d                	sub	a4,a4,a5
    599c:	0742                	slli	a4,a4,0x10
    599e:	8341                	srli	a4,a4,0x10
    59a0:	64e41623          	sh	a4,1612(s0)
    59a4:	07c2                	slli	a5,a5,0x10
    59a6:	50000737          	lui	a4,0x50000
    59aa:	83c1                	srli	a5,a5,0x10
    59ac:	02f71823          	sh	a5,48(a4) # 50000030 <_eusrstack+0x2fff0030>
    59b0:	4791                	li	a5,4
    59b2:	02f70923          	sb	a5,50(a4)
    59b6:	02f709a3          	sb	a5,51(a4)
    59ba:	a8c9                	j	5a8c <OTG_FS_IRQHandler+0x286>
    59bc:	64e7c783          	lbu	a5,1614(a5)
    59c0:	472d                	li	a4,11
    59c2:	0ff7f793          	andi	a5,a5,255
    59c6:	0af76c63          	bltu	a4,a5,5a7e <OTG_FS_IRQHandler+0x278>
    59ca:	6729                	lui	a4,0xa
    59cc:	078a                	slli	a5,a5,0x2
    59ce:	44070713          	addi	a4,a4,1088 # a440 <UARTN+0x98>
    59d2:	97ba                	add	a5,a5,a4
    59d4:	439c                	lw	a5,0(a5)
    59d6:	8782                	jr	a5
    59d8:	0034c783          	lbu	a5,3(s1)
    59dc:	0024c703          	lbu	a4,2(s1)
    59e0:	468d                	li	a3,3
    59e2:	07a2                	slli	a5,a5,0x8
    59e4:	8fd9                	or	a5,a5,a4
    59e6:	0087d713          	srli	a4,a5,0x8
    59ea:	2000b9b7          	lui	s3,0x2000b
    59ee:	0cd70663          	beq	a4,a3,5aba <OTG_FS_IRQHandler+0x2b4>
    59f2:	00e6ec63          	bltu	a3,a4,5a0a <OTG_FS_IRQHandler+0x204>
    59f6:	4785                	li	a5,1
    59f8:	02f70b63          	beq	a4,a5,5a2e <OTG_FS_IRQHandler+0x228>
    59fc:	4789                	li	a5,2
    59fe:	0af70563          	beq	a4,a5,5aa8 <OTG_FS_IRQHandler+0x2a2>
    5a02:	0ff00913          	li	s2,255
    5a06:	4781                	li	a5,0
    5a08:	a815                	j	5a3c <OTG_FS_IRQHandler+0x236>
    5a0a:	479d                	li	a5,7
    5a0c:	10f70963          	beq	a4,a5,5b1e <OTG_FS_IRQHandler+0x318>
    5a10:	02200793          	li	a5,34
    5a14:	0ef70d63          	beq	a4,a5,5b0e <OTG_FS_IRQHandler+0x308>
    5a18:	4799                	li	a5,6
    5a1a:	fef714e3          	bne	a4,a5,5a02 <OTG_FS_IRQHandler+0x1fc>
    5a1e:	67a9                	lui	a5,0xa
    5a20:	51078793          	addi	a5,a5,1296 # a510 <MyUSBQUADescHD>
    5a24:	64f9a823          	sw	a5,1616(s3) # 2000b650 <pDescr>
    5a28:	4901                	li	s2,0
    5a2a:	47a9                	li	a5,10
    5a2c:	a801                	j	5a3c <OTG_FS_IRQHandler+0x236>
    5a2e:	67a9                	lui	a5,0xa
    5a30:	4b478793          	addi	a5,a5,1204 # a4b4 <MyDevDescrHD>
    5a34:	64f9a823          	sw	a5,1616(s3)
    5a38:	4901                	li	s2,0
    5a3a:	47c9                	li	a5,18
    5a3c:	64c45703          	lhu	a4,1612(s0)
    5a40:	07c2                	slli	a5,a5,0x10
    5a42:	83c1                	srli	a5,a5,0x10
    5a44:	00e7f463          	bgeu	a5,a4,5a4c <OTG_FS_IRQHandler+0x246>
    5a48:	64f41623          	sh	a5,1612(s0)
    5a4c:	64c45783          	lhu	a5,1612(s0)
    5a50:	471d                	li	a4,7
    5a52:	4aa1                	li	s5,8
    5a54:	00f76663          	bltu	a4,a5,5a60 <OTG_FS_IRQHandler+0x25a>
    5a58:	64c45a83          	lhu	s5,1612(s0)
    5a5c:	0ffafa93          	andi	s5,s5,255
    5a60:	6509a583          	lw	a1,1616(s3)
    5a64:	8656                	mv	a2,s5
    5a66:	8526                	mv	a0,s1
    5a68:	5eb020ef          	jal	ra,8852 <memcpy>
    5a6c:	6509a783          	lw	a5,1616(s3)
    5a70:	9abe                	add	s5,s5,a5
    5a72:	6559a823          	sw	s5,1616(s3)
    5a76:	0ff00793          	li	a5,255
    5a7a:	eef91fe3          	bne	s2,a5,5978 <OTG_FS_IRQHandler+0x172>
    5a7e:	500007b7          	lui	a5,0x50000
    5a82:	471d                	li	a4,7
    5a84:	02e78923          	sb	a4,50(a5) # 50000032 <_eusrstack+0x2fff0032>
    5a88:	02e789a3          	sb	a4,51(a5)
    5a8c:	500007b7          	lui	a5,0x50000
    5a90:	4709                	li	a4,2
    5a92:	00e78323          	sb	a4,6(a5) # 50000006 <_eusrstack+0x2fff0006>
    5a96:	4472                	lw	s0,28(sp)
    5a98:	44e2                	lw	s1,24(sp)
    5a9a:	4952                	lw	s2,20(sp)
    5a9c:	49c2                	lw	s3,16(sp)
    5a9e:	4a32                	lw	s4,12(sp)
    5aa0:	4aa2                	lw	s5,8(sp)
    5aa2:	6105                	addi	sp,sp,32
    5aa4:	30200073          	mret
    5aa8:	67a9                	lui	a5,0xa
    5aaa:	47078793          	addi	a5,a5,1136 # a470 <MyCfgDescrHD>
    5aae:	64f9a823          	sw	a5,1616(s3)
    5ab2:	4901                	li	s2,0
    5ab4:	04300793          	li	a5,67
    5ab8:	b751                	j	5a3c <OTG_FS_IRQHandler+0x236>
    5aba:	0ff7f793          	andi	a5,a5,255
    5abe:	4685                	li	a3,1
    5ac0:	02d78763          	beq	a5,a3,5aee <OTG_FS_IRQHandler+0x2e8>
    5ac4:	cf91                	beqz	a5,5ae0 <OTG_FS_IRQHandler+0x2da>
    5ac6:	4689                	li	a3,2
    5ac8:	02d78b63          	beq	a5,a3,5afe <OTG_FS_IRQHandler+0x2f8>
    5acc:	f2e79be3          	bne	a5,a4,5a02 <OTG_FS_IRQHandler+0x1fc>
    5ad0:	67a9                	lui	a5,0xa
    5ad2:	4f878793          	addi	a5,a5,1272 # a4f8 <MySerNumInfoHD>
    5ad6:	64f9a823          	sw	a5,1616(s3)
    5ada:	4901                	li	s2,0
    5adc:	47d9                	li	a5,22
    5ade:	bfb9                	j	5a3c <OTG_FS_IRQHandler+0x236>
    5ae0:	84818793          	addi	a5,gp,-1976 # 200001d0 <MyLangDescrHD>
    5ae4:	64f9a823          	sw	a5,1616(s3)
    5ae8:	4901                	li	s2,0
    5aea:	4791                	li	a5,4
    5aec:	bf81                	j	5a3c <OTG_FS_IRQHandler+0x236>
    5aee:	67a9                	lui	a5,0xa
    5af0:	4c878793          	addi	a5,a5,1224 # a4c8 <MyManuInfoHD>
    5af4:	64f9a823          	sw	a5,1616(s3)
    5af8:	4901                	li	s2,0
    5afa:	47b9                	li	a5,14
    5afc:	b781                	j	5a3c <OTG_FS_IRQHandler+0x236>
    5afe:	67a9                	lui	a5,0xa
    5b00:	4d878793          	addi	a5,a5,1240 # a4d8 <MyProdInfoHD>
    5b04:	64f9a823          	sw	a5,1616(s3)
    5b08:	4901                	li	s2,0
    5b0a:	47b1                	li	a5,12
    5b0c:	bf05                	j	5a3c <OTG_FS_IRQHandler+0x236>
    5b0e:	67a9                	lui	a5,0xa
    5b10:	4e478793          	addi	a5,a5,1252 # a4e4 <MyReportDescHD>
    5b14:	64f9a823          	sw	a5,1616(s3)
    5b18:	4901                	li	s2,0
    5b1a:	47d1                	li	a5,20
    5b1c:	b705                	j	5a3c <OTG_FS_IRQHandler+0x236>
    5b1e:	8371c783          	lbu	a5,-1993(gp) # 200001bf <USBHD_Dev_Speed>
    5b22:	0ff7f793          	andi	a5,a5,255
    5b26:	ec079ee3          	bnez	a5,5a02 <OTG_FS_IRQHandler+0x1fc>
    5b2a:	20000937          	lui	s2,0x20000
    5b2e:	0e490913          	addi	s2,s2,228 # 200000e4 <TAB_USB_FS_OSC_DESC>
    5b32:	65a9                	lui	a1,0xa
    5b34:	04100613          	li	a2,65
    5b38:	47258593          	addi	a1,a1,1138 # a472 <MyCfgDescrHD+0x2>
    5b3c:	00290513          	addi	a0,s2,2
    5b40:	513020ef          	jal	ra,8852 <memcpy>
    5b44:	6529a823          	sw	s2,1616(s3)
    5b48:	b7ad                	j	5ab2 <OTG_FS_IRQHandler+0x2ac>
    5b4a:	0024c783          	lbu	a5,2(s1)
    5b4e:	64f41623          	sh	a5,1612(s0)
    5b52:	b51d                	j	5978 <OTG_FS_IRQHandler+0x172>
    5b54:	2000b7b7          	lui	a5,0x2000b
    5b58:	5c87c783          	lbu	a5,1480(a5) # 2000b5c8 <DevConfig>
    5b5c:	00f48023          	sb	a5,0(s1)
    5b60:	64c45703          	lhu	a4,1612(s0)
    5b64:	4785                	li	a5,1
    5b66:	fee7e4e3          	bltu	a5,a4,5b4e <OTG_FS_IRQHandler+0x348>
    5b6a:	b539                	j	5978 <OTG_FS_IRQHandler+0x172>
    5b6c:	0024c703          	lbu	a4,2(s1)
    5b70:	2000b7b7          	lui	a5,0x2000b
    5b74:	5ce78423          	sb	a4,1480(a5) # 2000b5c8 <DevConfig>
    5b78:	b501                	j	5978 <OTG_FS_IRQHandler+0x172>
    5b7a:	01fa7713          	andi	a4,s4,31
    5b7e:	4789                	li	a5,2
    5b80:	eef71fe3          	bne	a4,a5,5a7e <OTG_FS_IRQHandler+0x278>
    5b84:	0044c783          	lbu	a5,4(s1)
    5b88:	04e78363          	beq	a5,a4,5bce <OTG_FS_IRQHandler+0x3c8>
    5b8c:	00f76e63          	bltu	a4,a5,5ba8 <OTG_FS_IRQHandler+0x3a2>
    5b90:	4705                	li	a4,1
    5b92:	eee796e3          	bne	a5,a4,5a7e <OTG_FS_IRQHandler+0x278>
    5b96:	50000737          	lui	a4,0x50000
    5b9a:	03774783          	lbu	a5,55(a4) # 50000037 <_eusrstack+0x2fff0037>
    5b9e:	0f87f793          	andi	a5,a5,248
    5ba2:	02f70ba3          	sb	a5,55(a4)
    5ba6:	bbc9                	j	5978 <OTG_FS_IRQHandler+0x172>
    5ba8:	08100713          	li	a4,129
    5bac:	02e78a63          	beq	a5,a4,5be0 <OTG_FS_IRQHandler+0x3da>
    5bb0:	08200713          	li	a4,130
    5bb4:	ece795e3          	bne	a5,a4,5a7e <OTG_FS_IRQHandler+0x278>
    5bb8:	50000737          	lui	a4,0x50000
    5bbc:	03a74783          	lbu	a5,58(a4) # 5000003a <_eusrstack+0x2fff003a>
    5bc0:	0f87f793          	andi	a5,a5,248
    5bc4:	0027e793          	ori	a5,a5,2
    5bc8:	02f70d23          	sb	a5,58(a4)
    5bcc:	b375                	j	5978 <OTG_FS_IRQHandler+0x172>
    5bce:	50000737          	lui	a4,0x50000
    5bd2:	03b74783          	lbu	a5,59(a4) # 5000003b <_eusrstack+0x2fff003b>
    5bd6:	0f87f793          	andi	a5,a5,248
    5bda:	02f70da3          	sb	a5,59(a4)
    5bde:	bb69                	j	5978 <OTG_FS_IRQHandler+0x172>
    5be0:	50000737          	lui	a4,0x50000
    5be4:	03674783          	lbu	a5,54(a4) # 50000036 <_eusrstack+0x2fff0036>
    5be8:	0f87f793          	andi	a5,a5,248
    5bec:	0027e793          	ori	a5,a5,2
    5bf0:	02f70b23          	sb	a5,54(a4)
    5bf4:	b351                	j	5978 <OTG_FS_IRQHandler+0x172>
    5bf6:	2000b7b7          	lui	a5,0x2000b
    5bfa:	6dc7c703          	lbu	a4,1756(a5) # 2000b6dc <EP0_DatabufHD>
    5bfe:	8b7d                	andi	a4,a4,31
    5c00:	eb19                	bnez	a4,5c16 <OTG_FS_IRQHandler+0x410>
    5c02:	6dc78793          	addi	a5,a5,1756
    5c06:	0027d783          	lhu	a5,2(a5)
    5c0a:	4705                	li	a4,1
    5c0c:	e6e799e3          	bne	a5,a4,5a7e <OTG_FS_IRQHandler+0x278>
    5c10:	86f18723          	sb	a5,-1938(gp) # 200001f6 <USBHD_Dev_SleepStatus>
    5c14:	b395                	j	5978 <OTG_FS_IRQHandler+0x172>
    5c16:	4689                	li	a3,2
    5c18:	e6d713e3          	bne	a4,a3,5a7e <OTG_FS_IRQHandler+0x278>
    5c1c:	6dc78793          	addi	a5,a5,1756
    5c20:	0027d683          	lhu	a3,2(a5)
    5c24:	e4069de3          	bnez	a3,5a7e <OTG_FS_IRQHandler+0x278>
    5c28:	0047c783          	lbu	a5,4(a5)
    5c2c:	04e78563          	beq	a5,a4,5c76 <OTG_FS_IRQHandler+0x470>
    5c30:	02f76063          	bltu	a4,a5,5c50 <OTG_FS_IRQHandler+0x44a>
    5c34:	4705                	li	a4,1
    5c36:	e4e794e3          	bne	a5,a4,5a7e <OTG_FS_IRQHandler+0x278>
    5c3a:	50000737          	lui	a4,0x50000
    5c3e:	03774783          	lbu	a5,55(a4) # 50000037 <_eusrstack+0x2fff0037>
    5c42:	0fc7f793          	andi	a5,a5,252
    5c46:	02f70ba3          	sb	a5,55(a4)
    5c4a:	0037e793          	ori	a5,a5,3
    5c4e:	bf91                	j	5ba2 <OTG_FS_IRQHandler+0x39c>
    5c50:	08100713          	li	a4,129
    5c54:	02e78c63          	beq	a5,a4,5c8c <OTG_FS_IRQHandler+0x486>
    5c58:	08200713          	li	a4,130
    5c5c:	e2e791e3          	bne	a5,a4,5a7e <OTG_FS_IRQHandler+0x278>
    5c60:	50000737          	lui	a4,0x50000
    5c64:	03a74783          	lbu	a5,58(a4) # 5000003a <_eusrstack+0x2fff003a>
    5c68:	0fc7f793          	andi	a5,a5,252
    5c6c:	02f70d23          	sb	a5,58(a4)
    5c70:	0037e793          	ori	a5,a5,3
    5c74:	bf91                	j	5bc8 <OTG_FS_IRQHandler+0x3c2>
    5c76:	50000737          	lui	a4,0x50000
    5c7a:	03b74783          	lbu	a5,59(a4) # 5000003b <_eusrstack+0x2fff003b>
    5c7e:	0fc7f793          	andi	a5,a5,252
    5c82:	02f70da3          	sb	a5,59(a4)
    5c86:	0037e793          	ori	a5,a5,3
    5c8a:	bf81                	j	5bda <OTG_FS_IRQHandler+0x3d4>
    5c8c:	50000737          	lui	a4,0x50000
    5c90:	03674783          	lbu	a5,54(a4) # 50000036 <_eusrstack+0x2fff0036>
    5c94:	0fc7f793          	andi	a5,a5,252
    5c98:	02f70b23          	sb	a5,54(a4)
    5c9c:	0037e793          	ori	a5,a5,3
    5ca0:	bf81                	j	5bf0 <OTG_FS_IRQHandler+0x3ea>
    5ca2:	00048023          	sb	zero,0(s1)
    5ca6:	bd6d                	j	5b60 <OTG_FS_IRQHandler+0x35a>
    5ca8:	2000b7b7          	lui	a5,0x2000b
    5cac:	6c078e23          	sb	zero,1756(a5) # 2000b6dc <EP0_DatabufHD>
    5cb0:	86c18793          	addi	a5,gp,-1940 # 200001f4 <USBHD_Dev_SetupReqLen>
    5cb4:	0007d683          	lhu	a3,0(a5)
    5cb8:	4705                	li	a4,1
    5cba:	cad77fe3          	bgeu	a4,a3,5978 <OTG_FS_IRQHandler+0x172>
    5cbe:	00e79023          	sh	a4,0(a5)
    5cc2:	b95d                	j	5978 <OTG_FS_IRQHandler+0x172>
    5cc4:	2000b7b7          	lui	a5,0x2000b
    5cc8:	6dc78713          	addi	a4,a5,1756 # 2000b6dc <EP0_DatabufHD>
    5ccc:	00475703          	lhu	a4,4(a4)
    5cd0:	6c079e23          	sh	zero,1756(a5)
    5cd4:	08100693          	li	a3,129
    5cd8:	02d71363          	bne	a4,a3,5cfe <OTG_FS_IRQHandler+0x4f8>
    5cdc:	50000737          	lui	a4,0x50000
    5ce0:	03674703          	lbu	a4,54(a4) # 50000036 <_eusrstack+0x2fff0036>
    5ce4:	8b0d                	andi	a4,a4,3
    5ce6:	468d                	li	a3,3
    5ce8:	00d71563          	bne	a4,a3,5cf2 <OTG_FS_IRQHandler+0x4ec>
    5cec:	4705                	li	a4,1
    5cee:	6ce78e23          	sb	a4,1756(a5)
    5cf2:	86c18793          	addi	a5,gp,-1940 # 200001f4 <USBHD_Dev_SetupReqLen>
    5cf6:	0007d683          	lhu	a3,0(a5)
    5cfa:	4709                	li	a4,2
    5cfc:	bf7d                	j	5cba <OTG_FS_IRQHandler+0x4b4>
    5cfe:	4685                	li	a3,1
    5d00:	00d71763          	bne	a4,a3,5d0e <OTG_FS_IRQHandler+0x508>
    5d04:	50000737          	lui	a4,0x50000
    5d08:	03774703          	lbu	a4,55(a4) # 50000037 <_eusrstack+0x2fff0037>
    5d0c:	bfe1                	j	5ce4 <OTG_FS_IRQHandler+0x4de>
    5d0e:	08200693          	li	a3,130
    5d12:	00d71763          	bne	a4,a3,5d20 <OTG_FS_IRQHandler+0x51a>
    5d16:	50000737          	lui	a4,0x50000
    5d1a:	03a74703          	lbu	a4,58(a4) # 5000003a <_eusrstack+0x2fff003a>
    5d1e:	b7d9                	j	5ce4 <OTG_FS_IRQHandler+0x4de>
    5d20:	4689                	li	a3,2
    5d22:	fcd718e3          	bne	a4,a3,5cf2 <OTG_FS_IRQHandler+0x4ec>
    5d26:	50000737          	lui	a4,0x50000
    5d2a:	03b74703          	lbu	a4,59(a4) # 5000003b <_eusrstack+0x2fff003b>
    5d2e:	bf5d                	j	5ce4 <OTG_FS_IRQHandler+0x4de>
    5d30:	0077c683          	lbu	a3,7(a5)
    5d34:	02100613          	li	a2,33
    5d38:	03f6f693          	andi	a3,a3,63
    5d3c:	0ac68b63          	beq	a3,a2,5df2 <OTG_FS_IRQHandler+0x5ec>
    5d40:	02200613          	li	a2,34
    5d44:	0cc68463          	beq	a3,a2,5e0c <OTG_FS_IRQHandler+0x606>
    5d48:	d4e692e3          	bne	a3,a4,5a8c <OTG_FS_IRQHandler+0x286>
    5d4c:	2000b737          	lui	a4,0x2000b
    5d50:	64e74703          	lbu	a4,1614(a4) # 2000b64e <SetupReqCode>
    5d54:	4695                	li	a3,5
    5d56:	0ff77713          	andi	a4,a4,255
    5d5a:	06d70663          	beq	a4,a3,5dc6 <OTG_FS_IRQHandler+0x5c0>
    5d5e:	4699                	li	a3,6
    5d60:	08d71663          	bne	a4,a3,5dec <OTG_FS_IRQHandler+0x5e6>
    5d64:	2000b4b7          	lui	s1,0x2000b
    5d68:	64c4d783          	lhu	a5,1612(s1) # 2000b64c <SetupReqLen>
    5d6c:	471d                	li	a4,7
    5d6e:	4421                	li	s0,8
    5d70:	00f76663          	bltu	a4,a5,5d7c <OTG_FS_IRQHandler+0x576>
    5d74:	64c4d403          	lhu	s0,1612(s1)
    5d78:	0ff47413          	andi	s0,s0,255
    5d7c:	2000b937          	lui	s2,0x2000b
    5d80:	2000b7b7          	lui	a5,0x2000b
    5d84:	6587a503          	lw	a0,1624(a5) # 2000b658 <pEP0_RAM_Addr>
    5d88:	65092583          	lw	a1,1616(s2) # 2000b650 <pDescr>
    5d8c:	8622                	mv	a2,s0
    5d8e:	2c5020ef          	jal	ra,8852 <memcpy>
    5d92:	64c4d783          	lhu	a5,1612(s1)
    5d96:	01041713          	slli	a4,s0,0x10
    5d9a:	8341                	srli	a4,a4,0x10
    5d9c:	8f99                	sub	a5,a5,a4
    5d9e:	07c2                	slli	a5,a5,0x10
    5da0:	83c1                	srli	a5,a5,0x10
    5da2:	64f49623          	sh	a5,1612(s1)
    5da6:	65092783          	lw	a5,1616(s2)
    5daa:	943e                	add	s0,s0,a5
    5dac:	64892823          	sw	s0,1616(s2)
    5db0:	500007b7          	lui	a5,0x50000
    5db4:	02e79823          	sh	a4,48(a5) # 50000030 <_eusrstack+0x2fff0030>
    5db8:	0327c703          	lbu	a4,50(a5)
    5dbc:	00474713          	xori	a4,a4,4
    5dc0:	02e78923          	sb	a4,50(a5)
    5dc4:	b1e1                	j	5a8c <OTG_FS_IRQHandler+0x286>
    5dc6:	0037c703          	lbu	a4,3(a5)
    5dca:	2000b6b7          	lui	a3,0x2000b
    5dce:	64c6d683          	lhu	a3,1612(a3) # 2000b64c <SetupReqLen>
    5dd2:	08077713          	andi	a4,a4,128
    5dd6:	8f55                	or	a4,a4,a3
    5dd8:	0ff77713          	andi	a4,a4,255
    5ddc:	00e781a3          	sb	a4,3(a5)
    5de0:	4709                	li	a4,2
    5de2:	02e78923          	sb	a4,50(a5)
    5de6:	020789a3          	sb	zero,51(a5)
    5dea:	b14d                	j	5a8c <OTG_FS_IRQHandler+0x286>
    5dec:	02079823          	sh	zero,48(a5)
    5df0:	bfc5                	j	5de0 <OTG_FS_IRQHandler+0x5da>
    5df2:	0367c703          	lbu	a4,54(a5)
    5df6:	0fc77713          	andi	a4,a4,252
    5dfa:	02e78b23          	sb	a4,54(a5)
    5dfe:	0367c703          	lbu	a4,54(a5)
    5e02:	00474713          	xori	a4,a4,4
    5e06:	02e78b23          	sb	a4,54(a5)
    5e0a:	b149                	j	5a8c <OTG_FS_IRQHandler+0x286>
    5e0c:	03a7c703          	lbu	a4,58(a5)
    5e10:	00474713          	xori	a4,a4,4
    5e14:	02e78d23          	sb	a4,58(a5)
    5e18:	03a7c703          	lbu	a4,58(a5)
    5e1c:	0fc77713          	andi	a4,a4,252
    5e20:	00276713          	ori	a4,a4,2
    5e24:	02e78d23          	sb	a4,58(a5)
    5e28:	b195                	j	5a8c <OTG_FS_IRQHandler+0x286>
    5e2a:	2000b7b7          	lui	a5,0x2000b
    5e2e:	64e7c783          	lbu	a5,1614(a5) # 2000b64e <SetupReqCode>
    5e32:	04f69563          	bne	a3,a5,5e7c <OTG_FS_IRQHandler+0x676>
    5e36:	2000b437          	lui	s0,0x2000b
    5e3a:	65842783          	lw	a5,1624(s0) # 2000b658 <pEP0_RAM_Addr>
    5e3e:	0017c683          	lbu	a3,1(a5)
    5e42:	0007c703          	lbu	a4,0(a5)
    5e46:	8f55                	or	a4,a4,a3
    5e48:	0027c683          	lbu	a3,2(a5)
    5e4c:	8f55                	or	a4,a4,a3
    5e4e:	0037c683          	lbu	a3,3(a5)
    5e52:	8f55                	or	a4,a4,a3
    5e54:	cb05                	beqz	a4,5e84 <OTG_FS_IRQHandler+0x67e>
    5e56:	0017c583          	lbu	a1,1(a5)
    5e5a:	0007c703          	lbu	a4,0(a5)
    5e5e:	0000a537          	lui	a0,0xa
    5e62:	05a2                	slli	a1,a1,0x8
    5e64:	8dd9                	or	a1,a1,a4
    5e66:	0027c703          	lbu	a4,2(a5)
    5e6a:	51c50513          	addi	a0,a0,1308 # a51c <MyUSBQUADescHD+0xc>
    5e6e:	0742                	slli	a4,a4,0x10
    5e70:	8f4d                	or	a4,a4,a1
    5e72:	01869593          	slli	a1,a3,0x18
    5e76:	8dd9                	or	a1,a1,a4
    5e78:	2d8030ef          	jal	ra,9150 <iprintf>
    5e7c:	500007b7          	lui	a5,0x50000
    5e80:	479c                	lw	a5,8(a5)
    5e82:	b129                	j	5a8c <OTG_FS_IRQHandler+0x286>
    5e84:	0067c583          	lbu	a1,6(a5) # 50000006 <_eusrstack+0x2fff0006>
    5e88:	0000a537          	lui	a0,0xa
    5e8c:	52c50513          	addi	a0,a0,1324 # a52c <MyUSBQUADescHD+0x1c>
    5e90:	2c0030ef          	jal	ra,9150 <iprintf>
    5e94:	65842783          	lw	a5,1624(s0)
    5e98:	0000a537          	lui	a0,0xa
    5e9c:	53c50513          	addi	a0,a0,1340 # a53c <MyUSBQUADescHD+0x2c>
    5ea0:	0047c583          	lbu	a1,4(a5)
    5ea4:	2ac030ef          	jal	ra,9150 <iprintf>
    5ea8:	65842783          	lw	a5,1624(s0)
    5eac:	0000a537          	lui	a0,0xa
    5eb0:	54c50513          	addi	a0,a0,1356 # a54c <MyUSBQUADescHD+0x3c>
    5eb4:	0057c583          	lbu	a1,5(a5)
    5eb8:	b7c1                	j	5e78 <OTG_FS_IRQHandler+0x672>
    5eba:	0077c703          	lbu	a4,7(a5)
    5ebe:	04077713          	andi	a4,a4,64
    5ec2:	bc0705e3          	beqz	a4,5a8c <OTG_FS_IRQHandler+0x286>
    5ec6:	0377c703          	lbu	a4,55(a5)
    5eca:	00474713          	xori	a4,a4,4
    5ece:	02e78ba3          	sb	a4,55(a5)
    5ed2:	4788                	lw	a0,8(a5)
    5ed4:	0ff57513          	andi	a0,a0,255
    5ed8:	8dfff0ef          	jal	ra,57b6 <DevEP1_OUT_Deal>
    5edc:	be45                	j	5a8c <OTG_FS_IRQHandler+0x286>
    5ede:	00177693          	andi	a3,a4,1
    5ee2:	ca85                	beqz	a3,5f12 <OTG_FS_IRQHandler+0x70c>
    5ee4:	000781a3          	sb	zero,3(a5)
    5ee8:	020789a3          	sb	zero,51(a5)
    5eec:	02078ba3          	sb	zero,55(a5)
    5ef0:	02078da3          	sb	zero,59(a5)
    5ef4:	4709                	li	a4,2
    5ef6:	02e78923          	sb	a4,50(a5)
    5efa:	02e78b23          	sb	a4,54(a5)
    5efe:	02e78d23          	sb	a4,58(a5)
    5f02:	0067c703          	lbu	a4,6(a5)
    5f06:	00176713          	ori	a4,a4,1
    5f0a:	00e78323          	sb	a4,6(a5)
    5f0e:	30200073          	mret
    5f12:	00477693          	andi	a3,a4,4
    5f16:	daf5                	beqz	a3,5f0a <OTG_FS_IRQHandler+0x704>
    5f18:	0057c703          	lbu	a4,5(a5)
    5f1c:	4711                	li	a4,4
    5f1e:	b7f5                	j	5f0a <OTG_FS_IRQHandler+0x704>

00005f20 <SystemInit>:
    5f20:	400217b7          	lui	a5,0x40021
    5f24:	4398                	lw	a4,0(a5)
    5f26:	f8ff06b7          	lui	a3,0xf8ff0
    5f2a:	1141                	addi	sp,sp,-16
    5f2c:	00176713          	ori	a4,a4,1
    5f30:	c398                	sw	a4,0(a5)
    5f32:	43d8                	lw	a4,4(a5)
    5f34:	00020637          	lui	a2,0x20
    5f38:	8f75                	and	a4,a4,a3
    5f3a:	c3d8                	sw	a4,4(a5)
    5f3c:	4398                	lw	a4,0(a5)
    5f3e:	fef706b7          	lui	a3,0xfef70
    5f42:	16fd                	addi	a3,a3,-1
    5f44:	8f75                	and	a4,a4,a3
    5f46:	c398                	sw	a4,0(a5)
    5f48:	4398                	lw	a4,0(a5)
    5f4a:	fffc06b7          	lui	a3,0xfffc0
    5f4e:	16fd                	addi	a3,a3,-1
    5f50:	8f75                	and	a4,a4,a3
    5f52:	c398                	sw	a4,0(a5)
    5f54:	43d8                	lw	a4,4(a5)
    5f56:	ff8106b7          	lui	a3,0xff810
    5f5a:	16fd                	addi	a3,a3,-1
    5f5c:	8f75                	and	a4,a4,a3
    5f5e:	c3d8                	sw	a4,4(a5)
    5f60:	009f0737          	lui	a4,0x9f0
    5f64:	c798                	sw	a4,8(a5)
    5f66:	c402                	sw	zero,8(sp)
    5f68:	c602                	sw	zero,12(sp)
    5f6a:	4398                	lw	a4,0(a5)
    5f6c:	66c1                	lui	a3,0x10
    5f6e:	8f55                	or	a4,a4,a3
    5f70:	c398                	sw	a4,0(a5)
    5f72:	400216b7          	lui	a3,0x40021
    5f76:	50000713          	li	a4,1280
    5f7a:	429c                	lw	a5,0(a3)
    5f7c:	8ff1                	and	a5,a5,a2
    5f7e:	c63e                	sw	a5,12(sp)
    5f80:	47a2                	lw	a5,8(sp)
    5f82:	0785                	addi	a5,a5,1
    5f84:	c43e                	sw	a5,8(sp)
    5f86:	47b2                	lw	a5,12(sp)
    5f88:	e781                	bnez	a5,5f90 <SystemInit+0x70>
    5f8a:	47a2                	lw	a5,8(sp)
    5f8c:	fee797e3          	bne	a5,a4,5f7a <SystemInit+0x5a>
    5f90:	400217b7          	lui	a5,0x40021
    5f94:	439c                	lw	a5,0(a5)
    5f96:	00e79713          	slli	a4,a5,0xe
    5f9a:	0a075063          	bgez	a4,603a <SystemInit+0x11a>
    5f9e:	4785                	li	a5,1
    5fa0:	c63e                	sw	a5,12(sp)
    5fa2:	4732                	lw	a4,12(sp)
    5fa4:	4785                	li	a5,1
    5fa6:	08f71863          	bne	a4,a5,6036 <SystemInit+0x116>
    5faa:	400227b7          	lui	a5,0x40022
    5fae:	4398                	lw	a4,0(a5)
    5fb0:	ffc106b7          	lui	a3,0xffc10
    5fb4:	16fd                	addi	a3,a3,-1
    5fb6:	01076713          	ori	a4,a4,16
    5fba:	c398                	sw	a4,0(a5)
    5fbc:	4398                	lw	a4,0(a5)
    5fbe:	9b71                	andi	a4,a4,-4
    5fc0:	c398                	sw	a4,0(a5)
    5fc2:	4398                	lw	a4,0(a5)
    5fc4:	00276713          	ori	a4,a4,2
    5fc8:	c398                	sw	a4,0(a5)
    5fca:	400217b7          	lui	a5,0x40021
    5fce:	43d8                	lw	a4,4(a5)
    5fd0:	c3d8                	sw	a4,4(a5)
    5fd2:	43d8                	lw	a4,4(a5)
    5fd4:	c3d8                	sw	a4,4(a5)
    5fd6:	43d8                	lw	a4,4(a5)
    5fd8:	40076713          	ori	a4,a4,1024
    5fdc:	c3d8                	sw	a4,4(a5)
    5fde:	43d8                	lw	a4,4(a5)
    5fe0:	8f75                	and	a4,a4,a3
    5fe2:	c3d8                	sw	a4,4(a5)
    5fe4:	1ffff737          	lui	a4,0x1ffff
    5fe8:	70c72703          	lw	a4,1804(a4) # 1ffff70c <_data_lma+0x1fff4f10>
    5fec:	01171693          	slli	a3,a4,0x11
    5ff0:	43d8                	lw	a4,4(a5)
    5ff2:	0406c663          	bltz	a3,603e <SystemInit+0x11e>
    5ff6:	003d06b7          	lui	a3,0x3d0
    5ffa:	8f55                	or	a4,a4,a3
    5ffc:	c3d8                	sw	a4,4(a5)
    5ffe:	40021737          	lui	a4,0x40021
    6002:	431c                	lw	a5,0(a4)
    6004:	010006b7          	lui	a3,0x1000
    6008:	8fd5                	or	a5,a5,a3
    600a:	c31c                	sw	a5,0(a4)
    600c:	400217b7          	lui	a5,0x40021
    6010:	4398                	lw	a4,0(a5)
    6012:	00671693          	slli	a3,a4,0x6
    6016:	fe06dde3          	bgez	a3,6010 <SystemInit+0xf0>
    601a:	43d8                	lw	a4,4(a5)
    601c:	400216b7          	lui	a3,0x40021
    6020:	9b71                	andi	a4,a4,-4
    6022:	c3d8                	sw	a4,4(a5)
    6024:	43d8                	lw	a4,4(a5)
    6026:	00276713          	ori	a4,a4,2
    602a:	c3d8                	sw	a4,4(a5)
    602c:	4721                	li	a4,8
    602e:	42dc                	lw	a5,4(a3)
    6030:	8bb1                	andi	a5,a5,12
    6032:	fee79ee3          	bne	a5,a4,602e <SystemInit+0x10e>
    6036:	0141                	addi	sp,sp,16
    6038:	8082                	ret
    603a:	c602                	sw	zero,12(sp)
    603c:	b79d                	j	5fa2 <SystemInit+0x82>
    603e:	66c1                	lui	a3,0x10
    6040:	bf6d                	j	5ffa <SystemInit+0xda>

00006042 <__adddf3>:
    6042:	00100837          	lui	a6,0x100
    6046:	1101                	addi	sp,sp,-32
    6048:	187d                	addi	a6,a6,-1
    604a:	00b87733          	and	a4,a6,a1
    604e:	ca26                	sw	s1,20(sp)
    6050:	00d87833          	and	a6,a6,a3
    6054:	0145d493          	srli	s1,a1,0x14
    6058:	0146d313          	srli	t1,a3,0x14
    605c:	00371e13          	slli	t3,a4,0x3
    6060:	c64e                	sw	s3,12(sp)
    6062:	01d55713          	srli	a4,a0,0x1d
    6066:	080e                	slli	a6,a6,0x3
    6068:	01d65793          	srli	a5,a2,0x1d
    606c:	7ff4f493          	andi	s1,s1,2047
    6070:	7ff37313          	andi	t1,t1,2047
    6074:	ce06                	sw	ra,28(sp)
    6076:	cc22                	sw	s0,24(sp)
    6078:	c84a                	sw	s2,16(sp)
    607a:	01f5d993          	srli	s3,a1,0x1f
    607e:	01f6de93          	srli	t4,a3,0x1f
    6082:	01c76733          	or	a4,a4,t3
    6086:	00351f13          	slli	t5,a0,0x3
    608a:	0107e833          	or	a6,a5,a6
    608e:	00361f93          	slli	t6,a2,0x3
    6092:	40648e33          	sub	t3,s1,t1
    6096:	19d98063          	beq	s3,t4,6216 <__adddf3+0x1d4>
    609a:	13c05663          	blez	t3,61c6 <__adddf3+0x184>
    609e:	1c030463          	beqz	t1,6266 <__adddf3+0x224>
    60a2:	008006b7          	lui	a3,0x800
    60a6:	7ff00793          	li	a5,2047
    60aa:	00d86833          	or	a6,a6,a3
    60ae:	36f48f63          	beq	s1,a5,642c <__adddf3+0x3ea>
    60b2:	03800793          	li	a5,56
    60b6:	35c7c063          	blt	a5,t3,63f6 <__adddf3+0x3b4>
    60ba:	47fd                	li	a5,31
    60bc:	47c7cd63          	blt	a5,t3,6536 <__adddf3+0x4f4>
    60c0:	02000513          	li	a0,32
    60c4:	41c50533          	sub	a0,a0,t3
    60c8:	01cfd7b3          	srl	a5,t6,t3
    60cc:	00a816b3          	sll	a3,a6,a0
    60d0:	00af9933          	sll	s2,t6,a0
    60d4:	8edd                	or	a3,a3,a5
    60d6:	01203933          	snez	s2,s2
    60da:	01c857b3          	srl	a5,a6,t3
    60de:	0126e933          	or	s2,a3,s2
    60e2:	8f1d                	sub	a4,a4,a5
    60e4:	412f0933          	sub	s2,t5,s2
    60e8:	012f37b3          	sltu	a5,t5,s2
    60ec:	40f70633          	sub	a2,a4,a5
    60f0:	00861793          	slli	a5,a2,0x8
    60f4:	2407d463          	bgez	a5,633c <__adddf3+0x2fa>
    60f8:	00800737          	lui	a4,0x800
    60fc:	177d                	addi	a4,a4,-1
    60fe:	00e67433          	and	s0,a2,a4
    6102:	2c040c63          	beqz	s0,63da <__adddf3+0x398>
    6106:	8522                	mv	a0,s0
    6108:	66a020ef          	jal	ra,8772 <__clzsi2>
    610c:	ff850713          	addi	a4,a0,-8
    6110:	02000793          	li	a5,32
    6114:	8f99                	sub	a5,a5,a4
    6116:	00f957b3          	srl	a5,s2,a5
    611a:	00e41633          	sll	a2,s0,a4
    611e:	8fd1                	or	a5,a5,a2
    6120:	00e91933          	sll	s2,s2,a4
    6124:	2a974163          	blt	a4,s1,63c6 <__adddf3+0x384>
    6128:	40970533          	sub	a0,a4,s1
    612c:	00150613          	addi	a2,a0,1
    6130:	477d                	li	a4,31
    6132:	38c74d63          	blt	a4,a2,64cc <__adddf3+0x48a>
    6136:	02000713          	li	a4,32
    613a:	8f11                	sub	a4,a4,a2
    613c:	00c956b3          	srl	a3,s2,a2
    6140:	00e91933          	sll	s2,s2,a4
    6144:	00e79733          	sll	a4,a5,a4
    6148:	8f55                	or	a4,a4,a3
    614a:	01203933          	snez	s2,s2
    614e:	01276933          	or	s2,a4,s2
    6152:	00c7d633          	srl	a2,a5,a2
    6156:	4481                	li	s1,0
    6158:	00797793          	andi	a5,s2,7
    615c:	cf81                	beqz	a5,6174 <__adddf3+0x132>
    615e:	00f97713          	andi	a4,s2,15
    6162:	4791                	li	a5,4
    6164:	00f70863          	beq	a4,a5,6174 <__adddf3+0x132>
    6168:	00490713          	addi	a4,s2,4
    616c:	01273933          	sltu	s2,a4,s2
    6170:	964a                	add	a2,a2,s2
    6172:	893a                	mv	s2,a4
    6174:	00861793          	slli	a5,a2,0x8
    6178:	1c07d663          	bgez	a5,6344 <__adddf3+0x302>
    617c:	00148513          	addi	a0,s1,1
    6180:	7ff00793          	li	a5,2047
    6184:	85ce                	mv	a1,s3
    6186:	20f50463          	beq	a0,a5,638e <__adddf3+0x34c>
    618a:	ff8007b7          	lui	a5,0xff800
    618e:	17fd                	addi	a5,a5,-1
    6190:	8ff1                	and	a5,a5,a2
    6192:	01d79893          	slli	a7,a5,0x1d
    6196:	00395913          	srli	s2,s2,0x3
    619a:	07a6                	slli	a5,a5,0x9
    619c:	0128e8b3          	or	a7,a7,s2
    61a0:	83b1                	srli	a5,a5,0xc
    61a2:	7ff57513          	andi	a0,a0,2047
    61a6:	00c79693          	slli	a3,a5,0xc
    61aa:	0552                	slli	a0,a0,0x14
    61ac:	40f2                	lw	ra,28(sp)
    61ae:	4462                	lw	s0,24(sp)
    61b0:	82b1                	srli	a3,a3,0xc
    61b2:	05fe                	slli	a1,a1,0x1f
    61b4:	8ec9                	or	a3,a3,a0
    61b6:	8ecd                	or	a3,a3,a1
    61b8:	44d2                	lw	s1,20(sp)
    61ba:	4942                	lw	s2,16(sp)
    61bc:	49b2                	lw	s3,12(sp)
    61be:	8546                	mv	a0,a7
    61c0:	85b6                	mv	a1,a3
    61c2:	6105                	addi	sp,sp,32
    61c4:	8082                	ret
    61c6:	0a0e1e63          	bnez	t3,6282 <__adddf3+0x240>
    61ca:	00148313          	addi	t1,s1,1
    61ce:	7fe37313          	andi	t1,t1,2046
    61d2:	22031763          	bnez	t1,6400 <__adddf3+0x3be>
    61d6:	01e767b3          	or	a5,a4,t5
    61da:	01f868b3          	or	a7,a6,t6
    61de:	1a049d63          	bnez	s1,6398 <__adddf3+0x356>
    61e2:	40078763          	beqz	a5,65f0 <__adddf3+0x5ae>
    61e6:	44088663          	beqz	a7,6632 <__adddf3+0x5f0>
    61ea:	41ff0933          	sub	s2,t5,t6
    61ee:	410707b3          	sub	a5,a4,a6
    61f2:	012f3633          	sltu	a2,t5,s2
    61f6:	40c78633          	sub	a2,a5,a2
    61fa:	00861793          	slli	a5,a2,0x8
    61fe:	4c07d663          	bgez	a5,66ca <__adddf3+0x688>
    6202:	41ef8933          	sub	s2,t6,t5
    6206:	40e807b3          	sub	a5,a6,a4
    620a:	012fb633          	sltu	a2,t6,s2
    620e:	40c78633          	sub	a2,a5,a2
    6212:	89f6                	mv	s3,t4
    6214:	b791                	j	6158 <__adddf3+0x116>
    6216:	0fc05063          	blez	t3,62f6 <__adddf3+0x2b4>
    621a:	0c030063          	beqz	t1,62da <__adddf3+0x298>
    621e:	008006b7          	lui	a3,0x800
    6222:	7ff00793          	li	a5,2047
    6226:	00d86833          	or	a6,a6,a3
    622a:	3af48a63          	beq	s1,a5,65de <__adddf3+0x59c>
    622e:	03800793          	li	a5,56
    6232:	13c7cb63          	blt	a5,t3,6368 <__adddf3+0x326>
    6236:	47fd                	li	a5,31
    6238:	35c7df63          	bge	a5,t3,6596 <__adddf3+0x554>
    623c:	fe0e0913          	addi	s2,t3,-32
    6240:	02000793          	li	a5,32
    6244:	012856b3          	srl	a3,a6,s2
    6248:	00fe0a63          	beq	t3,a5,625c <__adddf3+0x21a>
    624c:	04000913          	li	s2,64
    6250:	41c90933          	sub	s2,s2,t3
    6254:	01281933          	sll	s2,a6,s2
    6258:	012fefb3          	or	t6,t6,s2
    625c:	01f03933          	snez	s2,t6
    6260:	00d96933          	or	s2,s2,a3
    6264:	a231                	j	6370 <__adddf3+0x32e>
    6266:	01f867b3          	or	a5,a6,t6
    626a:	1c078a63          	beqz	a5,643e <__adddf3+0x3fc>
    626e:	fffe0793          	addi	a5,t3,-1
    6272:	38078c63          	beqz	a5,660a <__adddf3+0x5c8>
    6276:	7ff00693          	li	a3,2047
    627a:	1ade0963          	beq	t3,a3,642c <__adddf3+0x3ea>
    627e:	8e3e                	mv	t3,a5
    6280:	bd0d                	j	60b2 <__adddf3+0x70>
    6282:	409305b3          	sub	a1,t1,s1
    6286:	22049163          	bnez	s1,64a8 <__adddf3+0x466>
    628a:	01e767b3          	or	a5,a4,t5
    628e:	32078763          	beqz	a5,65bc <__adddf3+0x57a>
    6292:	fff58793          	addi	a5,a1,-1
    6296:	44078163          	beqz	a5,66d8 <__adddf3+0x696>
    629a:	7ff00693          	li	a3,2047
    629e:	20d58c63          	beq	a1,a3,64b6 <__adddf3+0x474>
    62a2:	85be                	mv	a1,a5
    62a4:	03800793          	li	a5,56
    62a8:	2ab7cc63          	blt	a5,a1,6560 <__adddf3+0x51e>
    62ac:	47fd                	li	a5,31
    62ae:	3cb7cf63          	blt	a5,a1,668c <__adddf3+0x64a>
    62b2:	02000793          	li	a5,32
    62b6:	8f8d                	sub	a5,a5,a1
    62b8:	00f71933          	sll	s2,a4,a5
    62bc:	00bf56b3          	srl	a3,t5,a1
    62c0:	00ff17b3          	sll	a5,t5,a5
    62c4:	00d96933          	or	s2,s2,a3
    62c8:	00f037b3          	snez	a5,a5
    62cc:	00b75733          	srl	a4,a4,a1
    62d0:	00f96933          	or	s2,s2,a5
    62d4:	40e80833          	sub	a6,a6,a4
    62d8:	ac41                	j	6568 <__adddf3+0x526>
    62da:	01f867b3          	or	a5,a6,t6
    62de:	34078063          	beqz	a5,661e <__adddf3+0x5dc>
    62e2:	fffe0793          	addi	a5,t3,-1
    62e6:	20078a63          	beqz	a5,64fa <__adddf3+0x4b8>
    62ea:	7ff00693          	li	a3,2047
    62ee:	2ede0863          	beq	t3,a3,65de <__adddf3+0x59c>
    62f2:	8e3e                	mv	t3,a5
    62f4:	bf2d                	j	622e <__adddf3+0x1ec>
    62f6:	140e1e63          	bnez	t3,6452 <__adddf3+0x410>
    62fa:	00148693          	addi	a3,s1,1
    62fe:	7fe6f793          	andi	a5,a3,2046
    6302:	34079163          	bnez	a5,6644 <__adddf3+0x602>
    6306:	01e767b3          	or	a5,a4,t5
    630a:	2c049563          	bnez	s1,65d4 <__adddf3+0x592>
    630e:	3e078063          	beqz	a5,66ee <__adddf3+0x6ac>
    6312:	01f867b3          	or	a5,a6,t6
    6316:	30078e63          	beqz	a5,6632 <__adddf3+0x5f0>
    631a:	01ff0933          	add	s2,t5,t6
    631e:	010707b3          	add	a5,a4,a6
    6322:	01e93f33          	sltu	t5,s2,t5
    6326:	01e78633          	add	a2,a5,t5
    632a:	00861793          	slli	a5,a2,0x8
    632e:	0007d763          	bgez	a5,633c <__adddf3+0x2fa>
    6332:	ff8007b7          	lui	a5,0xff800
    6336:	17fd                	addi	a5,a5,-1
    6338:	8e7d                	and	a2,a2,a5
    633a:	4485                	li	s1,1
    633c:	00797793          	andi	a5,s2,7
    6340:	e0079fe3          	bnez	a5,615e <__adddf3+0x11c>
    6344:	01d61793          	slli	a5,a2,0x1d
    6348:	00395893          	srli	a7,s2,0x3
    634c:	00f8e8b3          	or	a7,a7,a5
    6350:	00365793          	srli	a5,a2,0x3
    6354:	7ff00713          	li	a4,2047
    6358:	04e48d63          	beq	s1,a4,63b2 <__adddf3+0x370>
    635c:	07b2                	slli	a5,a5,0xc
    635e:	83b1                	srli	a5,a5,0xc
    6360:	7ff4f513          	andi	a0,s1,2047
    6364:	85ce                	mv	a1,s3
    6366:	b581                	j	61a6 <__adddf3+0x164>
    6368:	01f86933          	or	s2,a6,t6
    636c:	01203933          	snez	s2,s2
    6370:	997a                	add	s2,s2,t5
    6372:	01e937b3          	sltu	a5,s2,t5
    6376:	00e78633          	add	a2,a5,a4
    637a:	00861793          	slli	a5,a2,0x8
    637e:	fa07dfe3          	bgez	a5,633c <__adddf3+0x2fa>
    6382:	0485                	addi	s1,s1,1
    6384:	7ff00793          	li	a5,2047
    6388:	18f49663          	bne	s1,a5,6514 <__adddf3+0x4d2>
    638c:	85ce                	mv	a1,s3
    638e:	7ff00513          	li	a0,2047
    6392:	4781                	li	a5,0
    6394:	4881                	li	a7,0
    6396:	bd01                	j	61a6 <__adddf3+0x164>
    6398:	ebc1                	bnez	a5,6428 <__adddf3+0x3e6>
    639a:	3a088463          	beqz	a7,6742 <__adddf3+0x700>
    639e:	00361693          	slli	a3,a2,0x3
    63a2:	01d81793          	slli	a5,a6,0x1d
    63a6:	828d                	srli	a3,a3,0x3
    63a8:	00d7e8b3          	or	a7,a5,a3
    63ac:	89f6                	mv	s3,t4
    63ae:	00385793          	srli	a5,a6,0x3
    63b2:	00f8e7b3          	or	a5,a7,a5
    63b6:	dbf9                	beqz	a5,638c <__adddf3+0x34a>
    63b8:	4581                	li	a1,0
    63ba:	7ff00513          	li	a0,2047
    63be:	000807b7          	lui	a5,0x80
    63c2:	4881                	li	a7,0
    63c4:	b3cd                	j	61a6 <__adddf3+0x164>
    63c6:	ff800637          	lui	a2,0xff800
    63ca:	167d                	addi	a2,a2,-1
    63cc:	8e7d                	and	a2,a2,a5
    63ce:	00797793          	andi	a5,s2,7
    63d2:	8c99                	sub	s1,s1,a4
    63d4:	d80795e3          	bnez	a5,615e <__adddf3+0x11c>
    63d8:	b7b5                	j	6344 <__adddf3+0x302>
    63da:	854a                	mv	a0,s2
    63dc:	396020ef          	jal	ra,8772 <__clzsi2>
    63e0:	01850713          	addi	a4,a0,24
    63e4:	47fd                	li	a5,31
    63e6:	d2e7d5e3          	bge	a5,a4,6110 <__adddf3+0xce>
    63ea:	ff850613          	addi	a2,a0,-8
    63ee:	00c917b3          	sll	a5,s2,a2
    63f2:	4901                	li	s2,0
    63f4:	bb05                	j	6124 <__adddf3+0xe2>
    63f6:	01f86933          	or	s2,a6,t6
    63fa:	01203933          	snez	s2,s2
    63fe:	b1dd                	j	60e4 <__adddf3+0xa2>
    6400:	41ff0933          	sub	s2,t5,t6
    6404:	41070633          	sub	a2,a4,a6
    6408:	012f3433          	sltu	s0,t5,s2
    640c:	40860433          	sub	s0,a2,s0
    6410:	00841793          	slli	a5,s0,0x8
    6414:	2407cd63          	bltz	a5,666e <__adddf3+0x62c>
    6418:	008968b3          	or	a7,s2,s0
    641c:	ce0893e3          	bnez	a7,6102 <__adddf3+0xc0>
    6420:	4781                	li	a5,0
    6422:	4981                	li	s3,0
    6424:	4481                	li	s1,0
    6426:	bf1d                	j	635c <__adddf3+0x31a>
    6428:	f80898e3          	bnez	a7,63b8 <__adddf3+0x376>
    642c:	050e                	slli	a0,a0,0x3
    642e:	01d71793          	slli	a5,a4,0x1d
    6432:	810d                	srli	a0,a0,0x3
    6434:	00a7e8b3          	or	a7,a5,a0
    6438:	00375793          	srli	a5,a4,0x3
    643c:	bf9d                	j	63b2 <__adddf3+0x370>
    643e:	050e                	slli	a0,a0,0x3
    6440:	01d71793          	slli	a5,a4,0x1d
    6444:	810d                	srli	a0,a0,0x3
    6446:	00a7e8b3          	or	a7,a5,a0
    644a:	84f2                	mv	s1,t3
    644c:	00375793          	srli	a5,a4,0x3
    6450:	b711                	j	6354 <__adddf3+0x312>
    6452:	40930533          	sub	a0,t1,s1
    6456:	12048263          	beqz	s1,657a <__adddf3+0x538>
    645a:	008006b7          	lui	a3,0x800
    645e:	7ff00793          	li	a5,2047
    6462:	8f55                	or	a4,a4,a3
    6464:	2ef30d63          	beq	t1,a5,675e <__adddf3+0x71c>
    6468:	03800793          	li	a5,56
    646c:	20a7cb63          	blt	a5,a0,6682 <__adddf3+0x640>
    6470:	47fd                	li	a5,31
    6472:	2aa7c363          	blt	a5,a0,6718 <__adddf3+0x6d6>
    6476:	02000793          	li	a5,32
    647a:	8f89                	sub	a5,a5,a0
    647c:	00f71933          	sll	s2,a4,a5
    6480:	00af56b3          	srl	a3,t5,a0
    6484:	00ff17b3          	sll	a5,t5,a5
    6488:	00d96933          	or	s2,s2,a3
    648c:	00f037b3          	snez	a5,a5
    6490:	00a75733          	srl	a4,a4,a0
    6494:	00f96933          	or	s2,s2,a5
    6498:	983a                	add	a6,a6,a4
    649a:	997e                	add	s2,s2,t6
    649c:	01f937b3          	sltu	a5,s2,t6
    64a0:	01078633          	add	a2,a5,a6
    64a4:	849a                	mv	s1,t1
    64a6:	bdd1                	j	637a <__adddf3+0x338>
    64a8:	008006b7          	lui	a3,0x800
    64ac:	7ff00793          	li	a5,2047
    64b0:	8f55                	or	a4,a4,a3
    64b2:	def319e3          	bne	t1,a5,62a4 <__adddf3+0x262>
    64b6:	00361793          	slli	a5,a2,0x3
    64ba:	838d                	srli	a5,a5,0x3
    64bc:	01d81893          	slli	a7,a6,0x1d
    64c0:	0117e8b3          	or	a7,a5,a7
    64c4:	89f6                	mv	s3,t4
    64c6:	00385793          	srli	a5,a6,0x3
    64ca:	b5e5                	j	63b2 <__adddf3+0x370>
    64cc:	fe150713          	addi	a4,a0,-31
    64d0:	02000693          	li	a3,32
    64d4:	00e7d733          	srl	a4,a5,a4
    64d8:	00d60a63          	beq	a2,a3,64ec <__adddf3+0x4aa>
    64dc:	04000693          	li	a3,64
    64e0:	40c68633          	sub	a2,a3,a2
    64e4:	00c79633          	sll	a2,a5,a2
    64e8:	00c96933          	or	s2,s2,a2
    64ec:	01203933          	snez	s2,s2
    64f0:	00e96933          	or	s2,s2,a4
    64f4:	4601                	li	a2,0
    64f6:	4481                	li	s1,0
    64f8:	b591                	j	633c <__adddf3+0x2fa>
    64fa:	01ff0933          	add	s2,t5,t6
    64fe:	010707b3          	add	a5,a4,a6
    6502:	01e93633          	sltu	a2,s2,t5
    6506:	963e                	add	a2,a2,a5
    6508:	00861793          	slli	a5,a2,0x8
    650c:	4485                	li	s1,1
    650e:	e207d7e3          	bgez	a5,633c <__adddf3+0x2fa>
    6512:	4489                	li	s1,2
    6514:	ff8007b7          	lui	a5,0xff800
    6518:	17fd                	addi	a5,a5,-1
    651a:	8ff1                	and	a5,a5,a2
    651c:	00195713          	srli	a4,s2,0x1
    6520:	00197913          	andi	s2,s2,1
    6524:	01276933          	or	s2,a4,s2
    6528:	01f79893          	slli	a7,a5,0x1f
    652c:	0128e933          	or	s2,a7,s2
    6530:	0017d613          	srli	a2,a5,0x1
    6534:	b115                	j	6158 <__adddf3+0x116>
    6536:	fe0e0913          	addi	s2,t3,-32
    653a:	02000793          	li	a5,32
    653e:	012856b3          	srl	a3,a6,s2
    6542:	00fe0a63          	beq	t3,a5,6556 <__adddf3+0x514>
    6546:	04000913          	li	s2,64
    654a:	41c90933          	sub	s2,s2,t3
    654e:	01281933          	sll	s2,a6,s2
    6552:	012fefb3          	or	t6,t6,s2
    6556:	01f03933          	snez	s2,t6
    655a:	00d96933          	or	s2,s2,a3
    655e:	b659                	j	60e4 <__adddf3+0xa2>
    6560:	01e76933          	or	s2,a4,t5
    6564:	01203933          	snez	s2,s2
    6568:	412f8933          	sub	s2,t6,s2
    656c:	012fb7b3          	sltu	a5,t6,s2
    6570:	40f80633          	sub	a2,a6,a5
    6574:	849a                	mv	s1,t1
    6576:	89f6                	mv	s3,t4
    6578:	bea5                	j	60f0 <__adddf3+0xae>
    657a:	01e767b3          	or	a5,a4,t5
    657e:	18078263          	beqz	a5,6702 <__adddf3+0x6c0>
    6582:	fff50793          	addi	a5,a0,-1
    6586:	1c078463          	beqz	a5,674e <__adddf3+0x70c>
    658a:	7ff00693          	li	a3,2047
    658e:	12d50463          	beq	a0,a3,66b6 <__adddf3+0x674>
    6592:	853e                	mv	a0,a5
    6594:	bdd1                	j	6468 <__adddf3+0x426>
    6596:	02000793          	li	a5,32
    659a:	41c787b3          	sub	a5,a5,t3
    659e:	00f816b3          	sll	a3,a6,a5
    65a2:	00ff9933          	sll	s2,t6,a5
    65a6:	01cfd633          	srl	a2,t6,t3
    65aa:	8ed1                	or	a3,a3,a2
    65ac:	01203933          	snez	s2,s2
    65b0:	01c857b3          	srl	a5,a6,t3
    65b4:	0126e933          	or	s2,a3,s2
    65b8:	973e                	add	a4,a4,a5
    65ba:	bb5d                	j	6370 <__adddf3+0x32e>
    65bc:	00361793          	slli	a5,a2,0x3
    65c0:	838d                	srli	a5,a5,0x3
    65c2:	01d81893          	slli	a7,a6,0x1d
    65c6:	0117e8b3          	or	a7,a5,a7
    65ca:	84ae                	mv	s1,a1
    65cc:	00385793          	srli	a5,a6,0x3
    65d0:	89f6                	mv	s3,t4
    65d2:	b349                	j	6354 <__adddf3+0x312>
    65d4:	c3ed                	beqz	a5,66b6 <__adddf3+0x674>
    65d6:	01f86933          	or	s2,a6,t6
    65da:	dc091fe3          	bnez	s2,63b8 <__adddf3+0x376>
    65de:	050e                	slli	a0,a0,0x3
    65e0:	01d71793          	slli	a5,a4,0x1d
    65e4:	810d                	srli	a0,a0,0x3
    65e6:	00f568b3          	or	a7,a0,a5
    65ea:	00375793          	srli	a5,a4,0x3
    65ee:	b3d1                	j	63b2 <__adddf3+0x370>
    65f0:	0e088163          	beqz	a7,66d2 <__adddf3+0x690>
    65f4:	00361693          	slli	a3,a2,0x3
    65f8:	01d81793          	slli	a5,a6,0x1d
    65fc:	828d                	srli	a3,a3,0x3
    65fe:	00d7e8b3          	or	a7,a5,a3
    6602:	89f6                	mv	s3,t4
    6604:	00385793          	srli	a5,a6,0x3
    6608:	bb91                	j	635c <__adddf3+0x31a>
    660a:	41ff0933          	sub	s2,t5,t6
    660e:	410707b3          	sub	a5,a4,a6
    6612:	012f3f33          	sltu	t5,t5,s2
    6616:	41e78633          	sub	a2,a5,t5
    661a:	4485                	li	s1,1
    661c:	bcd1                	j	60f0 <__adddf3+0xae>
    661e:	050e                	slli	a0,a0,0x3
    6620:	01d71793          	slli	a5,a4,0x1d
    6624:	810d                	srli	a0,a0,0x3
    6626:	00f568b3          	or	a7,a0,a5
    662a:	84f2                	mv	s1,t3
    662c:	00375793          	srli	a5,a4,0x3
    6630:	b315                	j	6354 <__adddf3+0x312>
    6632:	050e                	slli	a0,a0,0x3
    6634:	01d71793          	slli	a5,a4,0x1d
    6638:	810d                	srli	a0,a0,0x3
    663a:	00a7e8b3          	or	a7,a5,a0
    663e:	00375793          	srli	a5,a4,0x3
    6642:	bb29                	j	635c <__adddf3+0x31a>
    6644:	7ff00793          	li	a5,2047
    6648:	d4f682e3          	beq	a3,a5,638c <__adddf3+0x34a>
    664c:	01ff0933          	add	s2,t5,t6
    6650:	01e93633          	sltu	a2,s2,t5
    6654:	010707b3          	add	a5,a4,a6
    6658:	97b2                	add	a5,a5,a2
    665a:	01f79893          	slli	a7,a5,0x1f
    665e:	00195913          	srli	s2,s2,0x1
    6662:	0128e933          	or	s2,a7,s2
    6666:	0017d613          	srli	a2,a5,0x1
    666a:	84b6                	mv	s1,a3
    666c:	b9c1                	j	633c <__adddf3+0x2fa>
    666e:	41ef8933          	sub	s2,t6,t5
    6672:	40e80733          	sub	a4,a6,a4
    6676:	012fb633          	sltu	a2,t6,s2
    667a:	40c70433          	sub	s0,a4,a2
    667e:	89f6                	mv	s3,t4
    6680:	b449                	j	6102 <__adddf3+0xc0>
    6682:	01e76933          	or	s2,a4,t5
    6686:	01203933          	snez	s2,s2
    668a:	bd01                	j	649a <__adddf3+0x458>
    668c:	fe058793          	addi	a5,a1,-32
    6690:	02000693          	li	a3,32
    6694:	00f757b3          	srl	a5,a4,a5
    6698:	00d58a63          	beq	a1,a3,66ac <__adddf3+0x66a>
    669c:	04000693          	li	a3,64
    66a0:	40b685b3          	sub	a1,a3,a1
    66a4:	00b71733          	sll	a4,a4,a1
    66a8:	00ef6f33          	or	t5,t5,a4
    66ac:	01e03933          	snez	s2,t5
    66b0:	00f96933          	or	s2,s2,a5
    66b4:	bd55                	j	6568 <__adddf3+0x526>
    66b6:	00361793          	slli	a5,a2,0x3
    66ba:	838d                	srli	a5,a5,0x3
    66bc:	01d81893          	slli	a7,a6,0x1d
    66c0:	0117e8b3          	or	a7,a5,a7
    66c4:	00385793          	srli	a5,a6,0x3
    66c8:	b1ed                	j	63b2 <__adddf3+0x370>
    66ca:	00c968b3          	or	a7,s2,a2
    66ce:	c60897e3          	bnez	a7,633c <__adddf3+0x2fa>
    66d2:	4781                	li	a5,0
    66d4:	4981                	li	s3,0
    66d6:	b159                	j	635c <__adddf3+0x31a>
    66d8:	41ef8933          	sub	s2,t6,t5
    66dc:	40e807b3          	sub	a5,a6,a4
    66e0:	012fb633          	sltu	a2,t6,s2
    66e4:	40c78633          	sub	a2,a5,a2
    66e8:	89f6                	mv	s3,t4
    66ea:	4485                	li	s1,1
    66ec:	b411                	j	60f0 <__adddf3+0xae>
    66ee:	00361693          	slli	a3,a2,0x3
    66f2:	01d81793          	slli	a5,a6,0x1d
    66f6:	828d                	srli	a3,a3,0x3
    66f8:	00d7e8b3          	or	a7,a5,a3
    66fc:	00385793          	srli	a5,a6,0x3
    6700:	b9b1                	j	635c <__adddf3+0x31a>
    6702:	00361693          	slli	a3,a2,0x3
    6706:	01d81793          	slli	a5,a6,0x1d
    670a:	828d                	srli	a3,a3,0x3
    670c:	00d7e8b3          	or	a7,a5,a3
    6710:	84aa                	mv	s1,a0
    6712:	00385793          	srli	a5,a6,0x3
    6716:	b93d                	j	6354 <__adddf3+0x312>
    6718:	fe050793          	addi	a5,a0,-32
    671c:	02000693          	li	a3,32
    6720:	00f757b3          	srl	a5,a4,a5
    6724:	00d50a63          	beq	a0,a3,6738 <__adddf3+0x6f6>
    6728:	04000693          	li	a3,64
    672c:	40a68533          	sub	a0,a3,a0
    6730:	00a71733          	sll	a4,a4,a0
    6734:	00ef6f33          	or	t5,t5,a4
    6738:	01e03933          	snez	s2,t5
    673c:	00f96933          	or	s2,s2,a5
    6740:	bba9                	j	649a <__adddf3+0x458>
    6742:	4581                	li	a1,0
    6744:	7ff00513          	li	a0,2047
    6748:	000807b7          	lui	a5,0x80
    674c:	bca9                	j	61a6 <__adddf3+0x164>
    674e:	01ff0933          	add	s2,t5,t6
    6752:	010707b3          	add	a5,a4,a6
    6756:	01f93633          	sltu	a2,s2,t6
    675a:	963e                	add	a2,a2,a5
    675c:	b375                	j	6508 <__adddf3+0x4c6>
    675e:	00361693          	slli	a3,a2,0x3
    6762:	01d81793          	slli	a5,a6,0x1d
    6766:	828d                	srli	a3,a3,0x3
    6768:	00d7e8b3          	or	a7,a5,a3
    676c:	00385793          	srli	a5,a6,0x3
    6770:	b189                	j	63b2 <__adddf3+0x370>

00006772 <__divdf3>:
    6772:	7139                	addi	sp,sp,-64
    6774:	0145d793          	srli	a5,a1,0x14
    6778:	dc22                	sw	s0,56(sp)
    677a:	d84a                	sw	s2,48(sp)
    677c:	d256                	sw	s5,36(sp)
    677e:	892a                	mv	s2,a0
    6780:	00c59413          	slli	s0,a1,0xc
    6784:	de06                	sw	ra,60(sp)
    6786:	da26                	sw	s1,52(sp)
    6788:	d64e                	sw	s3,44(sp)
    678a:	d452                	sw	s4,40(sp)
    678c:	d05a                	sw	s6,32(sp)
    678e:	ce5e                	sw	s7,28(sp)
    6790:	7ff7f513          	andi	a0,a5,2047
    6794:	8031                	srli	s0,s0,0xc
    6796:	01f5da93          	srli	s5,a1,0x1f
    679a:	10050b63          	beqz	a0,68b0 <__divdf3+0x13e>
    679e:	7ff00793          	li	a5,2047
    67a2:	14f50b63          	beq	a0,a5,68f8 <__divdf3+0x186>
    67a6:	01d95a13          	srli	s4,s2,0x1d
    67aa:	040e                	slli	s0,s0,0x3
    67ac:	008a6433          	or	s0,s4,s0
    67b0:	00800a37          	lui	s4,0x800
    67b4:	01446a33          	or	s4,s0,s4
    67b8:	00391b13          	slli	s6,s2,0x3
    67bc:	c0150493          	addi	s1,a0,-1023
    67c0:	4401                	li	s0,0
    67c2:	4b81                	li	s7,0
    67c4:	0146d813          	srli	a6,a3,0x14
    67c8:	00c69913          	slli	s2,a3,0xc
    67cc:	7ff87813          	andi	a6,a6,2047
    67d0:	88b2                	mv	a7,a2
    67d2:	00c95913          	srli	s2,s2,0xc
    67d6:	01f6d993          	srli	s3,a3,0x1f
    67da:	08080e63          	beqz	a6,6876 <__divdf3+0x104>
    67de:	7ff00793          	li	a5,2047
    67e2:	04f80063          	beq	a6,a5,6822 <__divdf3+0xb0>
    67e6:	01d65713          	srli	a4,a2,0x1d
    67ea:	090e                	slli	s2,s2,0x3
    67ec:	01276933          	or	s2,a4,s2
    67f0:	c0180813          	addi	a6,a6,-1023 # ffc01 <_data_lma+0xf5405>
    67f4:	008007b7          	lui	a5,0x800
    67f8:	00f96733          	or	a4,s2,a5
    67fc:	00361893          	slli	a7,a2,0x3
    6800:	410484b3          	sub	s1,s1,a6
    6804:	4581                	li	a1,0
    6806:	47bd                	li	a5,15
    6808:	013ac833          	xor	a6,s5,s3
    680c:	1a87e463          	bltu	a5,s0,69b4 <__divdf3+0x242>
    6810:	00004797          	auipc	a5,0x4
    6814:	d5078793          	addi	a5,a5,-688 # a560 <MyUSBQUADescHD+0x50>
    6818:	040a                	slli	s0,s0,0x2
    681a:	943e                	add	s0,s0,a5
    681c:	4010                	lw	a2,0(s0)
    681e:	963e                	add	a2,a2,a5
    6820:	8602                	jr	a2
    6822:	00c96733          	or	a4,s2,a2
    6826:	80148493          	addi	s1,s1,-2047
    682a:	10071263          	bnez	a4,692e <__divdf3+0x1bc>
    682e:	00246413          	ori	s0,s0,2
    6832:	4881                	li	a7,0
    6834:	4589                	li	a1,2
    6836:	bfc1                	j	6806 <__divdf3+0x94>
    6838:	7ff00613          	li	a2,2047
    683c:	4781                	li	a5,0
    683e:	4701                	li	a4,0
    6840:	07b2                	slli	a5,a5,0xc
    6842:	50f2                	lw	ra,60(sp)
    6844:	5462                	lw	s0,56(sp)
    6846:	0652                	slli	a2,a2,0x14
    6848:	83b1                	srli	a5,a5,0xc
    684a:	087e                	slli	a6,a6,0x1f
    684c:	8fd1                	or	a5,a5,a2
    684e:	0107e7b3          	or	a5,a5,a6
    6852:	54d2                	lw	s1,52(sp)
    6854:	5942                	lw	s2,48(sp)
    6856:	59b2                	lw	s3,44(sp)
    6858:	5a22                	lw	s4,40(sp)
    685a:	5a92                	lw	s5,36(sp)
    685c:	5b02                	lw	s6,32(sp)
    685e:	4bf2                	lw	s7,28(sp)
    6860:	853a                	mv	a0,a4
    6862:	85be                	mv	a1,a5
    6864:	6121                	addi	sp,sp,64
    6866:	8082                	ret
    6868:	4801                	li	a6,0
    686a:	7ff00613          	li	a2,2047
    686e:	000807b7          	lui	a5,0x80
    6872:	4701                	li	a4,0
    6874:	b7f1                	j	6840 <__divdf3+0xce>
    6876:	00c96733          	or	a4,s2,a2
    687a:	c74d                	beqz	a4,6924 <__divdf3+0x1b2>
    687c:	30090863          	beqz	s2,6b8c <__divdf3+0x41a>
    6880:	854a                	mv	a0,s2
    6882:	c432                	sw	a2,8(sp)
    6884:	6ef010ef          	jal	ra,8772 <__clzsi2>
    6888:	4622                	lw	a2,8(sp)
    688a:	ff550713          	addi	a4,a0,-11
    688e:	47f5                	li	a5,29
    6890:	ff850693          	addi	a3,a0,-8
    6894:	8f99                	sub	a5,a5,a4
    6896:	00d91933          	sll	s2,s2,a3
    689a:	00f657b3          	srl	a5,a2,a5
    689e:	0127e733          	or	a4,a5,s2
    68a2:	00d618b3          	sll	a7,a2,a3
    68a6:	9526                	add	a0,a0,s1
    68a8:	3f350493          	addi	s1,a0,1011
    68ac:	4581                	li	a1,0
    68ae:	bfa1                	j	6806 <__divdf3+0x94>
    68b0:	01246a33          	or	s4,s0,s2
    68b4:	060a0363          	beqz	s4,691a <__divdf3+0x1a8>
    68b8:	c636                	sw	a3,12(sp)
    68ba:	c432                	sw	a2,8(sp)
    68bc:	2a040663          	beqz	s0,6b68 <__divdf3+0x3f6>
    68c0:	8522                	mv	a0,s0
    68c2:	6b1010ef          	jal	ra,8772 <__clzsi2>
    68c6:	4622                	lw	a2,8(sp)
    68c8:	46b2                	lw	a3,12(sp)
    68ca:	84aa                	mv	s1,a0
    68cc:	ff550713          	addi	a4,a0,-11
    68d0:	4a75                	li	s4,29
    68d2:	ff848b13          	addi	s6,s1,-8
    68d6:	40ea0a33          	sub	s4,s4,a4
    68da:	01641433          	sll	s0,s0,s6
    68de:	01495a33          	srl	s4,s2,s4
    68e2:	008a6a33          	or	s4,s4,s0
    68e6:	01691b33          	sll	s6,s2,s6
    68ea:	c0d00513          	li	a0,-1011
    68ee:	409504b3          	sub	s1,a0,s1
    68f2:	4401                	li	s0,0
    68f4:	4b81                	li	s7,0
    68f6:	b5f9                	j	67c4 <__divdf3+0x52>
    68f8:	01246a33          	or	s4,s0,s2
    68fc:	000a1863          	bnez	s4,690c <__divdf3+0x19a>
    6900:	4421                	li	s0,8
    6902:	4b01                	li	s6,0
    6904:	7ff00493          	li	s1,2047
    6908:	4b89                	li	s7,2
    690a:	bd6d                	j	67c4 <__divdf3+0x52>
    690c:	8a22                	mv	s4,s0
    690e:	8b4a                	mv	s6,s2
    6910:	4431                	li	s0,12
    6912:	7ff00493          	li	s1,2047
    6916:	4b8d                	li	s7,3
    6918:	b575                	j	67c4 <__divdf3+0x52>
    691a:	4411                	li	s0,4
    691c:	4b01                	li	s6,0
    691e:	4481                	li	s1,0
    6920:	4b85                	li	s7,1
    6922:	b54d                	j	67c4 <__divdf3+0x52>
    6924:	00146413          	ori	s0,s0,1
    6928:	4881                	li	a7,0
    692a:	4585                	li	a1,1
    692c:	bde9                	j	6806 <__divdf3+0x94>
    692e:	00346413          	ori	s0,s0,3
    6932:	874a                	mv	a4,s2
    6934:	458d                	li	a1,3
    6936:	bdc1                	j	6806 <__divdf3+0x94>
    6938:	2e050a63          	beqz	a0,6c2c <__divdf3+0x4ba>
    693c:	4785                	li	a5,1
    693e:	8f89                	sub	a5,a5,a0
    6940:	03800693          	li	a3,56
    6944:	32f6dd63          	bge	a3,a5,6c7e <__divdf3+0x50c>
    6948:	4601                	li	a2,0
    694a:	4781                	li	a5,0
    694c:	4701                	li	a4,0
    694e:	bdcd                	j	6840 <__divdf3+0xce>
    6950:	86ce                	mv	a3,s3
    6952:	4789                	li	a5,2
    6954:	3af58d63          	beq	a1,a5,6d0e <__divdf3+0x59c>
    6958:	478d                	li	a5,3
    695a:	f0f587e3          	beq	a1,a5,6868 <__divdf3+0xf6>
    695e:	4785                	li	a5,1
    6960:	8836                	mv	a6,a3
    6962:	fef583e3          	beq	a1,a5,6948 <__divdf3+0x1d6>
    6966:	3ff48513          	addi	a0,s1,1023
    696a:	fca057e3          	blez	a0,6938 <__divdf3+0x1c6>
    696e:	0078f793          	andi	a5,a7,7
    6972:	28079663          	bnez	a5,6bfe <__divdf3+0x48c>
    6976:	0038d693          	srli	a3,a7,0x3
    697a:	00771793          	slli	a5,a4,0x7
    697e:	0007d863          	bgez	a5,698e <__divdf3+0x21c>
    6982:	ff0007b7          	lui	a5,0xff000
    6986:	17fd                	addi	a5,a5,-1
    6988:	8f7d                	and	a4,a4,a5
    698a:	40048513          	addi	a0,s1,1024
    698e:	7fe00793          	li	a5,2046
    6992:	eaa7c3e3          	blt	a5,a0,6838 <__divdf3+0xc6>
    6996:	01d71613          	slli	a2,a4,0x1d
    699a:	00971793          	slli	a5,a4,0x9
    699e:	83b1                	srli	a5,a5,0xc
    69a0:	00d66733          	or	a4,a2,a3
    69a4:	7ff57613          	andi	a2,a0,2047
    69a8:	bd61                	j	6840 <__divdf3+0xce>
    69aa:	86d6                	mv	a3,s5
    69ac:	8752                	mv	a4,s4
    69ae:	88da                	mv	a7,s6
    69b0:	85de                	mv	a1,s7
    69b2:	b745                	j	6952 <__divdf3+0x1e0>
    69b4:	23476163          	bltu	a4,s4,6bd6 <__divdf3+0x464>
    69b8:	20ea0d63          	beq	s4,a4,6bd2 <__divdf3+0x460>
    69bc:	86da                	mv	a3,s6
    69be:	14fd                	addi	s1,s1,-1
    69c0:	8452                	mv	s0,s4
    69c2:	4b01                	li	s6,0
    69c4:	00871793          	slli	a5,a4,0x8
    69c8:	0188d313          	srli	t1,a7,0x18
    69cc:	00f36333          	or	t1,t1,a5
    69d0:	01035e93          	srli	t4,t1,0x10
    69d4:	03d457b3          	divu	a5,s0,t4
    69d8:	01031f13          	slli	t5,t1,0x10
    69dc:	010f5f13          	srli	t5,t5,0x10
    69e0:	0106d593          	srli	a1,a3,0x10
    69e4:	00889e13          	slli	t3,a7,0x8
    69e8:	03d47433          	remu	s0,s0,t4
    69ec:	02ff0733          	mul	a4,t5,a5
    69f0:	0442                	slli	s0,s0,0x10
    69f2:	8dc1                	or	a1,a1,s0
    69f4:	00e5fb63          	bgeu	a1,a4,6a0a <__divdf3+0x298>
    69f8:	959a                	add	a1,a1,t1
    69fa:	fff78613          	addi	a2,a5,-1 # feffffff <_eusrstack+0xdefeffff>
    69fe:	2665ee63          	bltu	a1,t1,6c7a <__divdf3+0x508>
    6a02:	26e5fc63          	bgeu	a1,a4,6c7a <__divdf3+0x508>
    6a06:	17f9                	addi	a5,a5,-2
    6a08:	959a                	add	a1,a1,t1
    6a0a:	8d99                	sub	a1,a1,a4
    6a0c:	03d5d733          	divu	a4,a1,t4
    6a10:	06c2                	slli	a3,a3,0x10
    6a12:	82c1                	srli	a3,a3,0x10
    6a14:	03d5f5b3          	remu	a1,a1,t4
    6a18:	02ef0633          	mul	a2,t5,a4
    6a1c:	05c2                	slli	a1,a1,0x10
    6a1e:	8dd5                	or	a1,a1,a3
    6a20:	00c5fb63          	bgeu	a1,a2,6a36 <__divdf3+0x2c4>
    6a24:	959a                	add	a1,a1,t1
    6a26:	fff70693          	addi	a3,a4,-1 # 7fffff <_data_lma+0x7f5803>
    6a2a:	2465e663          	bltu	a1,t1,6c76 <__divdf3+0x504>
    6a2e:	24c5f463          	bgeu	a1,a2,6c76 <__divdf3+0x504>
    6a32:	1779                	addi	a4,a4,-2
    6a34:	959a                	add	a1,a1,t1
    6a36:	07c2                	slli	a5,a5,0x10
    6a38:	6441                	lui	s0,0x10
    6a3a:	8f5d                	or	a4,a4,a5
    6a3c:	fff40793          	addi	a5,s0,-1 # ffff <_data_lma+0x5803>
    6a40:	00f77533          	and	a0,a4,a5
    6a44:	01075893          	srli	a7,a4,0x10
    6a48:	010e5f93          	srli	t6,t3,0x10
    6a4c:	00fe77b3          	and	a5,t3,a5
    6a50:	02f502b3          	mul	t0,a0,a5
    6a54:	40c586b3          	sub	a3,a1,a2
    6a58:	02f883b3          	mul	t2,a7,a5
    6a5c:	0102d593          	srli	a1,t0,0x10
    6a60:	02af8633          	mul	a2,t6,a0
    6a64:	961e                	add	a2,a2,t2
    6a66:	962e                	add	a2,a2,a1
    6a68:	03f88533          	mul	a0,a7,t6
    6a6c:	00767363          	bgeu	a2,t2,6a72 <__divdf3+0x300>
    6a70:	9522                	add	a0,a0,s0
    6a72:	68c1                	lui	a7,0x10
    6a74:	18fd                	addi	a7,a7,-1
    6a76:	01065593          	srli	a1,a2,0x10
    6a7a:	01167633          	and	a2,a2,a7
    6a7e:	0642                	slli	a2,a2,0x10
    6a80:	0112f8b3          	and	a7,t0,a7
    6a84:	95aa                	add	a1,a1,a0
    6a86:	9646                	add	a2,a2,a7
    6a88:	12b6e663          	bltu	a3,a1,6bb4 <__divdf3+0x442>
    6a8c:	12b68263          	beq	a3,a1,6bb0 <__divdf3+0x43e>
    6a90:	40cb0633          	sub	a2,s6,a2
    6a94:	8e8d                	sub	a3,a3,a1
    6a96:	00cb3b33          	sltu	s6,s6,a2
    6a9a:	41668b33          	sub	s6,a3,s6
    6a9e:	3ff48513          	addi	a0,s1,1023
    6aa2:	17630c63          	beq	t1,s6,6c1a <__divdf3+0x4a8>
    6aa6:	03db58b3          	divu	a7,s6,t4
    6aaa:	01065593          	srli	a1,a2,0x10
    6aae:	03db7b33          	remu	s6,s6,t4
    6ab2:	031f06b3          	mul	a3,t5,a7
    6ab6:	0b42                	slli	s6,s6,0x10
    6ab8:	0165eb33          	or	s6,a1,s6
    6abc:	00db7b63          	bgeu	s6,a3,6ad2 <__divdf3+0x360>
    6ac0:	9b1a                	add	s6,s6,t1
    6ac2:	fff88593          	addi	a1,a7,-1 # ffff <_data_lma+0x5803>
    6ac6:	206b6d63          	bltu	s6,t1,6ce0 <__divdf3+0x56e>
    6aca:	20db7b63          	bgeu	s6,a3,6ce0 <__divdf3+0x56e>
    6ace:	18f9                	addi	a7,a7,-2
    6ad0:	9b1a                	add	s6,s6,t1
    6ad2:	40db0b33          	sub	s6,s6,a3
    6ad6:	03db56b3          	divu	a3,s6,t4
    6ada:	0642                	slli	a2,a2,0x10
    6adc:	8241                	srli	a2,a2,0x10
    6ade:	03db7b33          	remu	s6,s6,t4
    6ae2:	02df0f33          	mul	t5,t5,a3
    6ae6:	0b42                	slli	s6,s6,0x10
    6ae8:	01666633          	or	a2,a2,s6
    6aec:	01e67b63          	bgeu	a2,t5,6b02 <__divdf3+0x390>
    6af0:	961a                	add	a2,a2,t1
    6af2:	fff68593          	addi	a1,a3,-1 # 7fffff <_data_lma+0x7f5803>
    6af6:	1e666763          	bltu	a2,t1,6ce4 <__divdf3+0x572>
    6afa:	1fe67563          	bgeu	a2,t5,6ce4 <__divdf3+0x572>
    6afe:	16f9                	addi	a3,a3,-2
    6b00:	961a                	add	a2,a2,t1
    6b02:	08c2                	slli	a7,a7,0x10
    6b04:	00d8e8b3          	or	a7,a7,a3
    6b08:	01089593          	slli	a1,a7,0x10
    6b0c:	0108d293          	srli	t0,a7,0x10
    6b10:	81c1                	srli	a1,a1,0x10
    6b12:	02f58eb3          	mul	t4,a1,a5
    6b16:	41e60633          	sub	a2,a2,t5
    6b1a:	02bf85b3          	mul	a1,t6,a1
    6b1e:	010ed693          	srli	a3,t4,0x10
    6b22:	02f287b3          	mul	a5,t0,a5
    6b26:	95be                	add	a1,a1,a5
    6b28:	96ae                	add	a3,a3,a1
    6b2a:	025f8fb3          	mul	t6,t6,t0
    6b2e:	00f6f463          	bgeu	a3,a5,6b36 <__divdf3+0x3c4>
    6b32:	67c1                	lui	a5,0x10
    6b34:	9fbe                	add	t6,t6,a5
    6b36:	65c1                	lui	a1,0x10
    6b38:	15fd                	addi	a1,a1,-1
    6b3a:	0106d793          	srli	a5,a3,0x10
    6b3e:	8eed                	and	a3,a3,a1
    6b40:	06c2                	slli	a3,a3,0x10
    6b42:	00befeb3          	and	t4,t4,a1
    6b46:	9fbe                	add	t6,t6,a5
    6b48:	96f6                	add	a3,a3,t4
    6b4a:	09f67f63          	bgeu	a2,t6,6be8 <__divdf3+0x476>
    6b4e:	961a                	add	a2,a2,t1
    6b50:	fff88793          	addi	a5,a7,-1
    6b54:	1a666963          	bltu	a2,t1,6d06 <__divdf3+0x594>
    6b58:	19f66863          	bltu	a2,t6,6ce8 <__divdf3+0x576>
    6b5c:	1bf60f63          	beq	a2,t6,6d1a <__divdf3+0x5a8>
    6b60:	88be                	mv	a7,a5
    6b62:	0018e893          	ori	a7,a7,1
    6b66:	b511                	j	696a <__divdf3+0x1f8>
    6b68:	854a                	mv	a0,s2
    6b6a:	409010ef          	jal	ra,8772 <__clzsi2>
    6b6e:	01550713          	addi	a4,a0,21
    6b72:	45f1                	li	a1,28
    6b74:	02050493          	addi	s1,a0,32
    6b78:	4622                	lw	a2,8(sp)
    6b7a:	46b2                	lw	a3,12(sp)
    6b7c:	d4e5dae3          	bge	a1,a4,68d0 <__divdf3+0x15e>
    6b80:	ff850413          	addi	s0,a0,-8
    6b84:	00891a33          	sll	s4,s2,s0
    6b88:	4b01                	li	s6,0
    6b8a:	b385                	j	68ea <__divdf3+0x178>
    6b8c:	8532                	mv	a0,a2
    6b8e:	c432                	sw	a2,8(sp)
    6b90:	3e3010ef          	jal	ra,8772 <__clzsi2>
    6b94:	01550713          	addi	a4,a0,21
    6b98:	46f1                	li	a3,28
    6b9a:	87aa                	mv	a5,a0
    6b9c:	4622                	lw	a2,8(sp)
    6b9e:	02050513          	addi	a0,a0,32
    6ba2:	cee6d6e3          	bge	a3,a4,688e <__divdf3+0x11c>
    6ba6:	17e1                	addi	a5,a5,-8
    6ba8:	00f61733          	sll	a4,a2,a5
    6bac:	4881                	li	a7,0
    6bae:	b9e5                	j	68a6 <__divdf3+0x134>
    6bb0:	eecb70e3          	bgeu	s6,a2,6a90 <__divdf3+0x31e>
    6bb4:	9b72                	add	s6,s6,t3
    6bb6:	01cb3533          	sltu	a0,s6,t3
    6bba:	951a                	add	a0,a0,t1
    6bbc:	96aa                	add	a3,a3,a0
    6bbe:	fff70513          	addi	a0,a4,-1
    6bc2:	02d37863          	bgeu	t1,a3,6bf2 <__divdf3+0x480>
    6bc6:	10b6e663          	bltu	a3,a1,6cd2 <__divdf3+0x560>
    6bca:	10d58263          	beq	a1,a3,6cce <__divdf3+0x55c>
    6bce:	872a                	mv	a4,a0
    6bd0:	b5c1                	j	6a90 <__divdf3+0x31e>
    6bd2:	df1b65e3          	bltu	s6,a7,69bc <__divdf3+0x24a>
    6bd6:	001b5593          	srli	a1,s6,0x1
    6bda:	01fa1693          	slli	a3,s4,0x1f
    6bde:	001a5413          	srli	s0,s4,0x1
    6be2:	8ecd                	or	a3,a3,a1
    6be4:	0b7e                	slli	s6,s6,0x1f
    6be6:	bbf9                	j	69c4 <__divdf3+0x252>
    6be8:	f7f61de3          	bne	a2,t6,6b62 <__divdf3+0x3f0>
    6bec:	d6068fe3          	beqz	a3,696a <__divdf3+0x1f8>
    6bf0:	bfb9                	j	6b4e <__divdf3+0x3dc>
    6bf2:	fcd31ee3          	bne	t1,a3,6bce <__divdf3+0x45c>
    6bf6:	fdcb78e3          	bgeu	s6,t3,6bc6 <__divdf3+0x454>
    6bfa:	872a                	mv	a4,a0
    6bfc:	bd51                	j	6a90 <__divdf3+0x31e>
    6bfe:	00f8f793          	andi	a5,a7,15
    6c02:	4691                	li	a3,4
    6c04:	d6d789e3          	beq	a5,a3,6976 <__divdf3+0x204>
    6c08:	ffc8b793          	sltiu	a5,a7,-4
    6c0c:	00488693          	addi	a3,a7,4
    6c10:	0017c793          	xori	a5,a5,1
    6c14:	828d                	srli	a3,a3,0x3
    6c16:	973e                	add	a4,a4,a5
    6c18:	b38d                	j	697a <__divdf3+0x208>
    6c1a:	4681                	li	a3,0
    6c1c:	4785                	li	a5,1
    6c1e:	fea04ce3          	bgtz	a0,6c16 <__divdf3+0x4a4>
    6c22:	58fd                	li	a7,-1
    6c24:	d0051ce3          	bnez	a0,693c <__divdf3+0x1ca>
    6c28:	c0100493          	li	s1,-1023
    6c2c:	4785                	li	a5,1
    6c2e:	41e48513          	addi	a0,s1,1054
    6c32:	00a716b3          	sll	a3,a4,a0
    6c36:	00f8d633          	srl	a2,a7,a5
    6c3a:	00a89533          	sll	a0,a7,a0
    6c3e:	8ed1                	or	a3,a3,a2
    6c40:	00a03533          	snez	a0,a0
    6c44:	8ec9                	or	a3,a3,a0
    6c46:	0076f613          	andi	a2,a3,7
    6c4a:	00f75733          	srl	a4,a4,a5
    6c4e:	ce01                	beqz	a2,6c66 <__divdf3+0x4f4>
    6c50:	00f6f793          	andi	a5,a3,15
    6c54:	4611                	li	a2,4
    6c56:	00c78863          	beq	a5,a2,6c66 <__divdf3+0x4f4>
    6c5a:	00468793          	addi	a5,a3,4
    6c5e:	00d7b6b3          	sltu	a3,a5,a3
    6c62:	9736                	add	a4,a4,a3
    6c64:	86be                	mv	a3,a5
    6c66:	00871793          	slli	a5,a4,0x8
    6c6a:	0407d863          	bgez	a5,6cba <__divdf3+0x548>
    6c6e:	4605                	li	a2,1
    6c70:	4781                	li	a5,0
    6c72:	4701                	li	a4,0
    6c74:	b6f1                	j	6840 <__divdf3+0xce>
    6c76:	8736                	mv	a4,a3
    6c78:	bb7d                	j	6a36 <__divdf3+0x2c4>
    6c7a:	87b2                	mv	a5,a2
    6c7c:	b379                	j	6a0a <__divdf3+0x298>
    6c7e:	46fd                	li	a3,31
    6c80:	faf6d7e3          	bge	a3,a5,6c2e <__divdf3+0x4bc>
    6c84:	5605                	li	a2,-31
    6c86:	8e09                	sub	a2,a2,a0
    6c88:	02000693          	li	a3,32
    6c8c:	00c75633          	srl	a2,a4,a2
    6c90:	00d78863          	beq	a5,a3,6ca0 <__divdf3+0x52e>
    6c94:	43e48793          	addi	a5,s1,1086
    6c98:	00f717b3          	sll	a5,a4,a5
    6c9c:	00f8e8b3          	or	a7,a7,a5
    6ca0:	011036b3          	snez	a3,a7
    6ca4:	8ed1                	or	a3,a3,a2
    6ca6:	0076f613          	andi	a2,a3,7
    6caa:	4781                	li	a5,0
    6cac:	ce01                	beqz	a2,6cc4 <__divdf3+0x552>
    6cae:	00f6f793          	andi	a5,a3,15
    6cb2:	4611                	li	a2,4
    6cb4:	4701                	li	a4,0
    6cb6:	fac792e3          	bne	a5,a2,6c5a <__divdf3+0x4e8>
    6cba:	00971793          	slli	a5,a4,0x9
    6cbe:	01d71613          	slli	a2,a4,0x1d
    6cc2:	83b1                	srli	a5,a5,0xc
    6cc4:	0036d713          	srli	a4,a3,0x3
    6cc8:	8f51                	or	a4,a4,a2
    6cca:	4601                	li	a2,0
    6ccc:	be95                	j	6840 <__divdf3+0xce>
    6cce:	f0cb70e3          	bgeu	s6,a2,6bce <__divdf3+0x45c>
    6cd2:	9b72                	add	s6,s6,t3
    6cd4:	01cb3533          	sltu	a0,s6,t3
    6cd8:	951a                	add	a0,a0,t1
    6cda:	1779                	addi	a4,a4,-2
    6cdc:	96aa                	add	a3,a3,a0
    6cde:	bb4d                	j	6a90 <__divdf3+0x31e>
    6ce0:	88ae                	mv	a7,a1
    6ce2:	bbc5                	j	6ad2 <__divdf3+0x360>
    6ce4:	86ae                	mv	a3,a1
    6ce6:	bd31                	j	6b02 <__divdf3+0x390>
    6ce8:	001e1793          	slli	a5,t3,0x1
    6cec:	01c7be33          	sltu	t3,a5,t3
    6cf0:	9372                	add	t1,t1,t3
    6cf2:	961a                	add	a2,a2,t1
    6cf4:	18f9                	addi	a7,a7,-2
    6cf6:	8e3e                	mv	t3,a5
    6cf8:	e7f615e3          	bne	a2,t6,6b62 <__divdf3+0x3f0>
    6cfc:	c6de07e3          	beq	t3,a3,696a <__divdf3+0x1f8>
    6d00:	0018e893          	ori	a7,a7,1
    6d04:	b19d                	j	696a <__divdf3+0x1f8>
    6d06:	88be                	mv	a7,a5
    6d08:	fff60ae3          	beq	a2,t6,6cfc <__divdf3+0x58a>
    6d0c:	bd99                	j	6b62 <__divdf3+0x3f0>
    6d0e:	8836                	mv	a6,a3
    6d10:	7ff00613          	li	a2,2047
    6d14:	4781                	li	a5,0
    6d16:	4701                	li	a4,0
    6d18:	b625                	j	6840 <__divdf3+0xce>
    6d1a:	fcde67e3          	bltu	t3,a3,6ce8 <__divdf3+0x576>
    6d1e:	88be                	mv	a7,a5
    6d20:	fede10e3          	bne	t3,a3,6d00 <__divdf3+0x58e>
    6d24:	b199                	j	696a <__divdf3+0x1f8>

00006d26 <__gedf2>:
    6d26:	0145d713          	srli	a4,a1,0x14
    6d2a:	001007b7          	lui	a5,0x100
    6d2e:	17fd                	addi	a5,a5,-1
    6d30:	0146d813          	srli	a6,a3,0x14
    6d34:	7ff77713          	andi	a4,a4,2047
    6d38:	7ff00893          	li	a7,2047
    6d3c:	00b7f333          	and	t1,a5,a1
    6d40:	8e2a                	mv	t3,a0
    6d42:	8ff5                	and	a5,a5,a3
    6d44:	81fd                	srli	a1,a1,0x1f
    6d46:	8eb2                	mv	t4,a2
    6d48:	7ff87813          	andi	a6,a6,2047
    6d4c:	82fd                	srli	a3,a3,0x1f
    6d4e:	03170863          	beq	a4,a7,6d7e <__gedf2+0x58>
    6d52:	03180063          	beq	a6,a7,6d72 <__gedf2+0x4c>
    6d56:	eb0d                	bnez	a4,6d88 <__gedf2+0x62>
    6d58:	00a368b3          	or	a7,t1,a0
    6d5c:	00081463          	bnez	a6,6d64 <__gedf2+0x3e>
    6d60:	8e5d                	or	a2,a2,a5
    6d62:	ca29                	beqz	a2,6db4 <__gedf2+0x8e>
    6d64:	04088563          	beqz	a7,6dae <__gedf2+0x88>
    6d68:	02d58863          	beq	a1,a3,6d98 <__gedf2+0x72>
    6d6c:	4505                	li	a0,1
    6d6e:	ed95                	bnez	a1,6daa <__gedf2+0x84>
    6d70:	8082                	ret
    6d72:	00c7e8b3          	or	a7,a5,a2
    6d76:	fe0880e3          	beqz	a7,6d56 <__gedf2+0x30>
    6d7a:	5579                	li	a0,-2
    6d7c:	8082                	ret
    6d7e:	00a36533          	or	a0,t1,a0
    6d82:	fd65                	bnez	a0,6d7a <__gedf2+0x54>
    6d84:	02e80c63          	beq	a6,a4,6dbc <__gedf2+0x96>
    6d88:	00081463          	bnez	a6,6d90 <__gedf2+0x6a>
    6d8c:	8e5d                	or	a2,a2,a5
    6d8e:	de79                	beqz	a2,6d6c <__gedf2+0x46>
    6d90:	fcd59ee3          	bne	a1,a3,6d6c <__gedf2+0x46>
    6d94:	fce84ce3          	blt	a6,a4,6d6c <__gedf2+0x46>
    6d98:	01074863          	blt	a4,a6,6da8 <__gedf2+0x82>
    6d9c:	fc67e8e3          	bltu	a5,t1,6d6c <__gedf2+0x46>
    6da0:	02f30363          	beq	t1,a5,6dc6 <__gedf2+0xa0>
    6da4:	00f37f63          	bgeu	t1,a5,6dc2 <__gedf2+0x9c>
    6da8:	e581                	bnez	a1,6db0 <__gedf2+0x8a>
    6daa:	557d                	li	a0,-1
    6dac:	8082                	ret
    6dae:	def5                	beqz	a3,6daa <__gedf2+0x84>
    6db0:	4505                	li	a0,1
    6db2:	8082                	ret
    6db4:	4501                	li	a0,0
    6db6:	fa089be3          	bnez	a7,6d6c <__gedf2+0x46>
    6dba:	8082                	ret
    6dbc:	8e5d                	or	a2,a2,a5
    6dbe:	da69                	beqz	a2,6d90 <__gedf2+0x6a>
    6dc0:	bf6d                	j	6d7a <__gedf2+0x54>
    6dc2:	4501                	li	a0,0
    6dc4:	8082                	ret
    6dc6:	fbcee3e3          	bltu	t4,t3,6d6c <__gedf2+0x46>
    6dca:	4501                	li	a0,0
    6dcc:	fbde72e3          	bgeu	t3,t4,6d70 <__gedf2+0x4a>
    6dd0:	f1e5                	bnez	a1,6db0 <__gedf2+0x8a>
    6dd2:	bfe1                	j	6daa <__gedf2+0x84>

00006dd4 <__ledf2>:
    6dd4:	0145d713          	srli	a4,a1,0x14
    6dd8:	001007b7          	lui	a5,0x100
    6ddc:	17fd                	addi	a5,a5,-1
    6dde:	0146d813          	srli	a6,a3,0x14
    6de2:	7ff77713          	andi	a4,a4,2047
    6de6:	7ff00893          	li	a7,2047
    6dea:	00b7fe33          	and	t3,a5,a1
    6dee:	8eaa                	mv	t4,a0
    6df0:	8ff5                	and	a5,a5,a3
    6df2:	81fd                	srli	a1,a1,0x1f
    6df4:	8f32                	mv	t5,a2
    6df6:	7ff87813          	andi	a6,a6,2047
    6dfa:	82fd                	srli	a3,a3,0x1f
    6dfc:	03170e63          	beq	a4,a7,6e38 <__ledf2+0x64>
    6e00:	01180d63          	beq	a6,a7,6e1a <__ledf2+0x46>
    6e04:	e329                	bnez	a4,6e46 <__ledf2+0x72>
    6e06:	00ae68b3          	or	a7,t3,a0
    6e0a:	00081f63          	bnez	a6,6e28 <__ledf2+0x54>
    6e0e:	8e5d                	or	a2,a2,a5
    6e10:	ee01                	bnez	a2,6e28 <__ledf2+0x54>
    6e12:	4301                	li	t1,0
    6e14:	04088c63          	beqz	a7,6e6c <__ledf2+0x98>
    6e18:	a821                	j	6e30 <__ledf2+0x5c>
    6e1a:	00c7e8b3          	or	a7,a5,a2
    6e1e:	4309                	li	t1,2
    6e20:	04089663          	bnez	a7,6e6c <__ledf2+0x98>
    6e24:	d36d                	beqz	a4,6e06 <__ledf2+0x32>
    6e26:	a005                	j	6e46 <__ledf2+0x72>
    6e28:	04088463          	beqz	a7,6e70 <__ledf2+0x9c>
    6e2c:	02d58563          	beq	a1,a3,6e56 <__ledf2+0x82>
    6e30:	4305                	li	t1,1
    6e32:	cd8d                	beqz	a1,6e6c <__ledf2+0x98>
    6e34:	537d                	li	t1,-1
    6e36:	a81d                	j	6e6c <__ledf2+0x98>
    6e38:	00ae68b3          	or	a7,t3,a0
    6e3c:	4309                	li	t1,2
    6e3e:	02089763          	bnez	a7,6e6c <__ledf2+0x98>
    6e42:	02e80a63          	beq	a6,a4,6e76 <__ledf2+0xa2>
    6e46:	00081463          	bnez	a6,6e4e <__ledf2+0x7a>
    6e4a:	8e5d                	or	a2,a2,a5
    6e4c:	d275                	beqz	a2,6e30 <__ledf2+0x5c>
    6e4e:	fed591e3          	bne	a1,a3,6e30 <__ledf2+0x5c>
    6e52:	fce84fe3          	blt	a6,a4,6e30 <__ledf2+0x5c>
    6e56:	01074963          	blt	a4,a6,6e68 <__ledf2+0x94>
    6e5a:	fdc7ebe3          	bltu	a5,t3,6e30 <__ledf2+0x5c>
    6e5e:	00fe0f63          	beq	t3,a5,6e7c <__ledf2+0xa8>
    6e62:	4301                	li	t1,0
    6e64:	00fe7463          	bgeu	t3,a5,6e6c <__ledf2+0x98>
    6e68:	d5f1                	beqz	a1,6e34 <__ledf2+0x60>
    6e6a:	4305                	li	t1,1
    6e6c:	851a                	mv	a0,t1
    6e6e:	8082                	ret
    6e70:	feed                	bnez	a3,6e6a <__ledf2+0x96>
    6e72:	537d                	li	t1,-1
    6e74:	bfe5                	j	6e6c <__ledf2+0x98>
    6e76:	8e5d                	or	a2,a2,a5
    6e78:	da79                	beqz	a2,6e4e <__ledf2+0x7a>
    6e7a:	bfcd                	j	6e6c <__ledf2+0x98>
    6e7c:	fbdf6ae3          	bltu	t5,t4,6e30 <__ledf2+0x5c>
    6e80:	4301                	li	t1,0
    6e82:	ffeef5e3          	bgeu	t4,t5,6e6c <__ledf2+0x98>
    6e86:	f1f5                	bnez	a1,6e6a <__ledf2+0x96>
    6e88:	b775                	j	6e34 <__ledf2+0x60>

00006e8a <__muldf3>:
    6e8a:	7139                	addi	sp,sp,-64
    6e8c:	d84a                	sw	s2,48(sp)
    6e8e:	0145d913          	srli	s2,a1,0x14
    6e92:	d64e                	sw	s3,44(sp)
    6e94:	d452                	sw	s4,40(sp)
    6e96:	d256                	sw	s5,36(sp)
    6e98:	00c59993          	slli	s3,a1,0xc
    6e9c:	de06                	sw	ra,60(sp)
    6e9e:	dc22                	sw	s0,56(sp)
    6ea0:	da26                	sw	s1,52(sp)
    6ea2:	d05a                	sw	s6,32(sp)
    6ea4:	ce5e                	sw	s7,28(sp)
    6ea6:	7ff97913          	andi	s2,s2,2047
    6eaa:	8a2a                	mv	s4,a0
    6eac:	00c9d993          	srli	s3,s3,0xc
    6eb0:	01f5da93          	srli	s5,a1,0x1f
    6eb4:	0e090d63          	beqz	s2,6fae <__muldf3+0x124>
    6eb8:	7ff00793          	li	a5,2047
    6ebc:	18f90663          	beq	s2,a5,7048 <__muldf3+0x1be>
    6ec0:	01d55413          	srli	s0,a0,0x1d
    6ec4:	098e                	slli	s3,s3,0x3
    6ec6:	013469b3          	or	s3,s0,s3
    6eca:	00800437          	lui	s0,0x800
    6ece:	0089e433          	or	s0,s3,s0
    6ed2:	00351493          	slli	s1,a0,0x3
    6ed6:	c0190913          	addi	s2,s2,-1023
    6eda:	4981                	li	s3,0
    6edc:	4b81                	li	s7,0
    6ede:	0146d713          	srli	a4,a3,0x14
    6ee2:	00c69a13          	slli	s4,a3,0xc
    6ee6:	7ff77713          	andi	a4,a4,2047
    6eea:	85b2                	mv	a1,a2
    6eec:	00ca5a13          	srli	s4,s4,0xc
    6ef0:	01f6db13          	srli	s6,a3,0x1f
    6ef4:	10070b63          	beqz	a4,700a <__muldf3+0x180>
    6ef8:	7ff00793          	li	a5,2047
    6efc:	04f70363          	beq	a4,a5,6f42 <__muldf3+0xb8>
    6f00:	01d65793          	srli	a5,a2,0x1d
    6f04:	0a0e                	slli	s4,s4,0x3
    6f06:	0147ea33          	or	s4,a5,s4
    6f0a:	c0170713          	addi	a4,a4,-1023
    6f0e:	008007b7          	lui	a5,0x800
    6f12:	00fa67b3          	or	a5,s4,a5
    6f16:	00361593          	slli	a1,a2,0x3
    6f1a:	993a                	add	s2,s2,a4
    6f1c:	4881                	li	a7,0
    6f1e:	016ac733          	xor	a4,s5,s6
    6f22:	46bd                	li	a3,15
    6f24:	853a                	mv	a0,a4
    6f26:	00190813          	addi	a6,s2,1
    6f2a:	1736e863          	bltu	a3,s3,709a <__muldf3+0x210>
    6f2e:	00003617          	auipc	a2,0x3
    6f32:	67260613          	addi	a2,a2,1650 # a5a0 <MyUSBQUADescHD+0x90>
    6f36:	098a                	slli	s3,s3,0x2
    6f38:	99b2                	add	s3,s3,a2
    6f3a:	0009a683          	lw	a3,0(s3)
    6f3e:	96b2                	add	a3,a3,a2
    6f40:	8682                	jr	a3
    6f42:	00ca67b3          	or	a5,s4,a2
    6f46:	7ff90913          	addi	s2,s2,2047
    6f4a:	12079963          	bnez	a5,707c <__muldf3+0x1f2>
    6f4e:	0029e993          	ori	s3,s3,2
    6f52:	4581                	li	a1,0
    6f54:	4889                	li	a7,2
    6f56:	b7e1                	j	6f1e <__muldf3+0x94>
    6f58:	4701                	li	a4,0
    6f5a:	7ff00793          	li	a5,2047
    6f5e:	00080437          	lui	s0,0x80
    6f62:	4481                	li	s1,0
    6f64:	0432                	slli	s0,s0,0xc
    6f66:	07d2                	slli	a5,a5,0x14
    6f68:	8031                	srli	s0,s0,0xc
    6f6a:	077e                	slli	a4,a4,0x1f
    6f6c:	8c5d                	or	s0,s0,a5
    6f6e:	8c59                	or	s0,s0,a4
    6f70:	85a2                	mv	a1,s0
    6f72:	50f2                	lw	ra,60(sp)
    6f74:	5462                	lw	s0,56(sp)
    6f76:	8526                	mv	a0,s1
    6f78:	5942                	lw	s2,48(sp)
    6f7a:	54d2                	lw	s1,52(sp)
    6f7c:	59b2                	lw	s3,44(sp)
    6f7e:	5a22                	lw	s4,40(sp)
    6f80:	5a92                	lw	s5,36(sp)
    6f82:	5b02                	lw	s6,32(sp)
    6f84:	4bf2                	lw	s7,28(sp)
    6f86:	6121                	addi	sp,sp,64
    6f88:	8082                	ret
    6f8a:	855a                	mv	a0,s6
    6f8c:	843e                	mv	s0,a5
    6f8e:	84ae                	mv	s1,a1
    6f90:	8bc6                	mv	s7,a7
    6f92:	4789                	li	a5,2
    6f94:	0efb8d63          	beq	s7,a5,708e <__muldf3+0x204>
    6f98:	478d                	li	a5,3
    6f9a:	fafb8fe3          	beq	s7,a5,6f58 <__muldf3+0xce>
    6f9e:	4785                	li	a5,1
    6fa0:	872a                	mv	a4,a0
    6fa2:	38fb9e63          	bne	s7,a5,733e <__muldf3+0x4b4>
    6fa6:	4781                	li	a5,0
    6fa8:	4401                	li	s0,0
    6faa:	4481                	li	s1,0
    6fac:	bf65                	j	6f64 <__muldf3+0xda>
    6fae:	00a9e433          	or	s0,s3,a0
    6fb2:	c061                	beqz	s0,7072 <__muldf3+0x1e8>
    6fb4:	c636                	sw	a3,12(sp)
    6fb6:	c432                	sw	a2,8(sp)
    6fb8:	2a098c63          	beqz	s3,7270 <__muldf3+0x3e6>
    6fbc:	854e                	mv	a0,s3
    6fbe:	7b4010ef          	jal	ra,8772 <__clzsi2>
    6fc2:	4622                	lw	a2,8(sp)
    6fc4:	46b2                	lw	a3,12(sp)
    6fc6:	87aa                	mv	a5,a0
    6fc8:	ff550713          	addi	a4,a0,-11
    6fcc:	4475                	li	s0,29
    6fce:	ff878493          	addi	s1,a5,-8 # 7ffff8 <_data_lma+0x7f57fc>
    6fd2:	8c19                	sub	s0,s0,a4
    6fd4:	009999b3          	sll	s3,s3,s1
    6fd8:	008a5433          	srl	s0,s4,s0
    6fdc:	01346433          	or	s0,s0,s3
    6fe0:	009a14b3          	sll	s1,s4,s1
    6fe4:	0146d713          	srli	a4,a3,0x14
    6fe8:	c0d00913          	li	s2,-1011
    6fec:	00c69a13          	slli	s4,a3,0xc
    6ff0:	7ff77713          	andi	a4,a4,2047
    6ff4:	40f90933          	sub	s2,s2,a5
    6ff8:	4981                	li	s3,0
    6ffa:	4b81                	li	s7,0
    6ffc:	85b2                	mv	a1,a2
    6ffe:	00ca5a13          	srli	s4,s4,0xc
    7002:	01f6db13          	srli	s6,a3,0x1f
    7006:	ee0719e3          	bnez	a4,6ef8 <__muldf3+0x6e>
    700a:	00ca67b3          	or	a5,s4,a2
    700e:	c7b1                	beqz	a5,705a <__muldf3+0x1d0>
    7010:	220a0f63          	beqz	s4,724e <__muldf3+0x3c4>
    7014:	8552                	mv	a0,s4
    7016:	c432                	sw	a2,8(sp)
    7018:	75a010ef          	jal	ra,8772 <__clzsi2>
    701c:	4622                	lw	a2,8(sp)
    701e:	872a                	mv	a4,a0
    7020:	ff550693          	addi	a3,a0,-11
    7024:	47f5                	li	a5,29
    7026:	ff870593          	addi	a1,a4,-8
    702a:	8f95                	sub	a5,a5,a3
    702c:	00ba1a33          	sll	s4,s4,a1
    7030:	00f657b3          	srl	a5,a2,a5
    7034:	0147e7b3          	or	a5,a5,s4
    7038:	00b615b3          	sll	a1,a2,a1
    703c:	40e90933          	sub	s2,s2,a4
    7040:	c0d90913          	addi	s2,s2,-1011
    7044:	4881                	li	a7,0
    7046:	bde1                	j	6f1e <__muldf3+0x94>
    7048:	00a9e433          	or	s0,s3,a0
    704c:	ec01                	bnez	s0,7064 <__muldf3+0x1da>
    704e:	49a1                	li	s3,8
    7050:	4481                	li	s1,0
    7052:	7ff00913          	li	s2,2047
    7056:	4b89                	li	s7,2
    7058:	b559                	j	6ede <__muldf3+0x54>
    705a:	0019e993          	ori	s3,s3,1
    705e:	4581                	li	a1,0
    7060:	4885                	li	a7,1
    7062:	bd75                	j	6f1e <__muldf3+0x94>
    7064:	844e                	mv	s0,s3
    7066:	84aa                	mv	s1,a0
    7068:	49b1                	li	s3,12
    706a:	7ff00913          	li	s2,2047
    706e:	4b8d                	li	s7,3
    7070:	b5bd                	j	6ede <__muldf3+0x54>
    7072:	4991                	li	s3,4
    7074:	4481                	li	s1,0
    7076:	4901                	li	s2,0
    7078:	4b85                	li	s7,1
    707a:	b595                	j	6ede <__muldf3+0x54>
    707c:	0039e993          	ori	s3,s3,3
    7080:	87d2                	mv	a5,s4
    7082:	488d                	li	a7,3
    7084:	bd69                	j	6f1e <__muldf3+0x94>
    7086:	4789                	li	a5,2
    7088:	8556                	mv	a0,s5
    708a:	f0fb97e3          	bne	s7,a5,6f98 <__muldf3+0x10e>
    708e:	872a                	mv	a4,a0
    7090:	7ff00793          	li	a5,2047
    7094:	4401                	li	s0,0
    7096:	4481                	li	s1,0
    7098:	b5f1                	j	6f64 <__muldf3+0xda>
    709a:	6ec1                	lui	t4,0x10
    709c:	fffe8613          	addi	a2,t4,-1 # ffff <_data_lma+0x5803>
    70a0:	0104d693          	srli	a3,s1,0x10
    70a4:	0105de13          	srli	t3,a1,0x10
    70a8:	8cf1                	and	s1,s1,a2
    70aa:	8df1                	and	a1,a1,a2
    70ac:	02958633          	mul	a2,a1,s1
    70b0:	02b68333          	mul	t1,a3,a1
    70b4:	01065893          	srli	a7,a2,0x10
    70b8:	029e0533          	mul	a0,t3,s1
    70bc:	951a                	add	a0,a0,t1
    70be:	98aa                	add	a7,a7,a0
    70c0:	03c682b3          	mul	t0,a3,t3
    70c4:	0068f363          	bgeu	a7,t1,70ca <__muldf3+0x240>
    70c8:	92f6                	add	t0,t0,t4
    70ca:	6fc1                	lui	t6,0x10
    70cc:	ffff8313          	addi	t1,t6,-1 # ffff <_data_lma+0x5803>
    70d0:	0067f533          	and	a0,a5,t1
    70d4:	0107d393          	srli	t2,a5,0x10
    70d8:	0068f7b3          	and	a5,a7,t1
    70dc:	07c2                	slli	a5,a5,0x10
    70de:	00667333          	and	t1,a2,t1
    70e2:	933e                	add	t1,t1,a5
    70e4:	02950633          	mul	a2,a0,s1
    70e8:	0108d893          	srli	a7,a7,0x10
    70ec:	02a687b3          	mul	a5,a3,a0
    70f0:	01065f13          	srli	t5,a2,0x10
    70f4:	029384b3          	mul	s1,t2,s1
    70f8:	94be                	add	s1,s1,a5
    70fa:	94fa                	add	s1,s1,t5
    70fc:	02768eb3          	mul	t4,a3,t2
    7100:	00f4f363          	bgeu	s1,a5,7106 <__muldf3+0x27c>
    7104:	9efe                	add	t4,t4,t6
    7106:	6a41                	lui	s4,0x10
    7108:	fffa0793          	addi	a5,s4,-1 # ffff <_data_lma+0x5803>
    710c:	01045f93          	srli	t6,s0,0x10
    7110:	00f476b3          	and	a3,s0,a5
    7114:	00f4f9b3          	and	s3,s1,a5
    7118:	8e7d                	and	a2,a2,a5
    711a:	80c1                	srli	s1,s1,0x10
    711c:	02d58433          	mul	s0,a1,a3
    7120:	09c2                	slli	s3,s3,0x10
    7122:	01d48f33          	add	t5,s1,t4
    7126:	99b2                	add	s3,s3,a2
    7128:	98ce                	add	a7,a7,s3
    712a:	02de07b3          	mul	a5,t3,a3
    712e:	01045e93          	srli	t4,s0,0x10
    7132:	02bf85b3          	mul	a1,t6,a1
    7136:	97ae                	add	a5,a5,a1
    7138:	9ebe                	add	t4,t4,a5
    713a:	03fe0e33          	mul	t3,t3,t6
    713e:	00bef363          	bgeu	t4,a1,7144 <__muldf3+0x2ba>
    7142:	9e52                	add	t3,t3,s4
    7144:	67c1                	lui	a5,0x10
    7146:	fff78593          	addi	a1,a5,-1 # ffff <_data_lma+0x5803>
    714a:	00bef633          	and	a2,t4,a1
    714e:	8c6d                	and	s0,s0,a1
    7150:	0642                	slli	a2,a2,0x10
    7152:	9622                	add	a2,a2,s0
    7154:	010ede93          	srli	t4,t4,0x10
    7158:	02d505b3          	mul	a1,a0,a3
    715c:	9e76                	add	t3,t3,t4
    715e:	02af8533          	mul	a0,t6,a0
    7162:	0105d413          	srli	s0,a1,0x10
    7166:	02d386b3          	mul	a3,t2,a3
    716a:	96aa                	add	a3,a3,a0
    716c:	96a2                	add	a3,a3,s0
    716e:	03f38fb3          	mul	t6,t2,t6
    7172:	00a6f363          	bgeu	a3,a0,7178 <__muldf3+0x2ee>
    7176:	9fbe                	add	t6,t6,a5
    7178:	6541                	lui	a0,0x10
    717a:	157d                	addi	a0,a0,-1
    717c:	00a6f7b3          	and	a5,a3,a0
    7180:	07c2                	slli	a5,a5,0x10
    7182:	8d6d                	and	a0,a0,a1
    7184:	97aa                	add	a5,a5,a0
    7186:	005885b3          	add	a1,a7,t0
    718a:	0135b9b3          	sltu	s3,a1,s3
    718e:	97fa                	add	a5,a5,t5
    7190:	95b2                	add	a1,a1,a2
    7192:	01378433          	add	s0,a5,s3
    7196:	00c5b633          	sltu	a2,a1,a2
    719a:	01c40eb3          	add	t4,s0,t3
    719e:	00ce8533          	add	a0,t4,a2
    71a2:	01343433          	sltu	s0,s0,s3
    71a6:	01e7b7b3          	sltu	a5,a5,t5
    71aa:	8fc1                	or	a5,a5,s0
    71ac:	01cebe33          	sltu	t3,t4,t3
    71b0:	0106d413          	srli	s0,a3,0x10
    71b4:	00c53633          	sltu	a2,a0,a2
    71b8:	943e                	add	s0,s0,a5
    71ba:	00ce6633          	or	a2,t3,a2
    71be:	00959493          	slli	s1,a1,0x9
    71c2:	9432                	add	s0,s0,a2
    71c4:	947e                	add	s0,s0,t6
    71c6:	0064e4b3          	or	s1,s1,t1
    71ca:	0426                	slli	s0,s0,0x9
    71cc:	01755693          	srli	a3,a0,0x17
    71d0:	009034b3          	snez	s1,s1
    71d4:	81dd                	srli	a1,a1,0x17
    71d6:	00951793          	slli	a5,a0,0x9
    71da:	8ccd                	or	s1,s1,a1
    71dc:	8c55                	or	s0,s0,a3
    71de:	8cdd                	or	s1,s1,a5
    71e0:	00741793          	slli	a5,s0,0x7
    71e4:	0007db63          	bgez	a5,71fa <__muldf3+0x370>
    71e8:	0014d793          	srli	a5,s1,0x1
    71ec:	8885                	andi	s1,s1,1
    71ee:	01f41693          	slli	a3,s0,0x1f
    71f2:	8cdd                	or	s1,s1,a5
    71f4:	8cd5                	or	s1,s1,a3
    71f6:	8005                	srli	s0,s0,0x1
    71f8:	8942                	mv	s2,a6
    71fa:	3ff90793          	addi	a5,s2,1023
    71fe:	08f05963          	blez	a5,7290 <__muldf3+0x406>
    7202:	0074f693          	andi	a3,s1,7
    7206:	ce81                	beqz	a3,721e <__muldf3+0x394>
    7208:	00f4f693          	andi	a3,s1,15
    720c:	4611                	li	a2,4
    720e:	00c68863          	beq	a3,a2,721e <__muldf3+0x394>
    7212:	00448693          	addi	a3,s1,4
    7216:	0096b4b3          	sltu	s1,a3,s1
    721a:	9426                	add	s0,s0,s1
    721c:	84b6                	mv	s1,a3
    721e:	00741693          	slli	a3,s0,0x7
    7222:	0006d863          	bgez	a3,7232 <__muldf3+0x3a8>
    7226:	ff0007b7          	lui	a5,0xff000
    722a:	17fd                	addi	a5,a5,-1
    722c:	8c7d                	and	s0,s0,a5
    722e:	40090793          	addi	a5,s2,1024
    7232:	7fe00693          	li	a3,2046
    7236:	0ef6cf63          	blt	a3,a5,7334 <__muldf3+0x4aa>
    723a:	0034d693          	srli	a3,s1,0x3
    723e:	01d41493          	slli	s1,s0,0x1d
    7242:	0426                	slli	s0,s0,0x9
    7244:	8cd5                	or	s1,s1,a3
    7246:	8031                	srli	s0,s0,0xc
    7248:	7ff7f793          	andi	a5,a5,2047
    724c:	bb21                	j	6f64 <__muldf3+0xda>
    724e:	8532                	mv	a0,a2
    7250:	c432                	sw	a2,8(sp)
    7252:	520010ef          	jal	ra,8772 <__clzsi2>
    7256:	01550693          	addi	a3,a0,21 # 10015 <_data_lma+0x5819>
    725a:	47f1                	li	a5,28
    725c:	02050713          	addi	a4,a0,32
    7260:	4622                	lw	a2,8(sp)
    7262:	dcd7d1e3          	bge	a5,a3,7024 <__muldf3+0x19a>
    7266:	1561                	addi	a0,a0,-8
    7268:	00a617b3          	sll	a5,a2,a0
    726c:	4581                	li	a1,0
    726e:	b3f9                	j	703c <__muldf3+0x1b2>
    7270:	502010ef          	jal	ra,8772 <__clzsi2>
    7274:	01550713          	addi	a4,a0,21
    7278:	45f1                	li	a1,28
    727a:	02050793          	addi	a5,a0,32
    727e:	4622                	lw	a2,8(sp)
    7280:	46b2                	lw	a3,12(sp)
    7282:	d4e5d5e3          	bge	a1,a4,6fcc <__muldf3+0x142>
    7286:	1561                	addi	a0,a0,-8
    7288:	00aa1433          	sll	s0,s4,a0
    728c:	4481                	li	s1,0
    728e:	bb99                	j	6fe4 <__muldf3+0x15a>
    7290:	4685                	li	a3,1
    7292:	8e9d                	sub	a3,a3,a5
    7294:	e7b1                	bnez	a5,72e0 <__muldf3+0x456>
    7296:	41e90913          	addi	s2,s2,1054
    729a:	012497b3          	sll	a5,s1,s2
    729e:	00d4d4b3          	srl	s1,s1,a3
    72a2:	01241933          	sll	s2,s0,s2
    72a6:	00f037b3          	snez	a5,a5
    72aa:	009964b3          	or	s1,s2,s1
    72ae:	8cdd                	or	s1,s1,a5
    72b0:	0074f793          	andi	a5,s1,7
    72b4:	00d456b3          	srl	a3,s0,a3
    72b8:	cf81                	beqz	a5,72d0 <__muldf3+0x446>
    72ba:	00f4f793          	andi	a5,s1,15
    72be:	4611                	li	a2,4
    72c0:	00c78863          	beq	a5,a2,72d0 <__muldf3+0x446>
    72c4:	00448793          	addi	a5,s1,4
    72c8:	0097b4b3          	sltu	s1,a5,s1
    72cc:	96a6                	add	a3,a3,s1
    72ce:	84be                	mv	s1,a5
    72d0:	00869793          	slli	a5,a3,0x8
    72d4:	0407d863          	bgez	a5,7324 <__muldf3+0x49a>
    72d8:	4785                	li	a5,1
    72da:	4401                	li	s0,0
    72dc:	4481                	li	s1,0
    72de:	b159                	j	6f64 <__muldf3+0xda>
    72e0:	03800613          	li	a2,56
    72e4:	ccd641e3          	blt	a2,a3,6fa6 <__muldf3+0x11c>
    72e8:	467d                	li	a2,31
    72ea:	fad656e3          	bge	a2,a3,7296 <__muldf3+0x40c>
    72ee:	5605                	li	a2,-31
    72f0:	40f607b3          	sub	a5,a2,a5
    72f4:	02000593          	li	a1,32
    72f8:	00f45633          	srl	a2,s0,a5
    72fc:	00b68763          	beq	a3,a1,730a <__muldf3+0x480>
    7300:	43e90913          	addi	s2,s2,1086
    7304:	012417b3          	sll	a5,s0,s2
    7308:	8cdd                	or	s1,s1,a5
    730a:	009034b3          	snez	s1,s1
    730e:	8cd1                	or	s1,s1,a2
    7310:	0074f693          	andi	a3,s1,7
    7314:	4401                	li	s0,0
    7316:	ca99                	beqz	a3,732c <__muldf3+0x4a2>
    7318:	00f4f793          	andi	a5,s1,15
    731c:	4611                	li	a2,4
    731e:	4681                	li	a3,0
    7320:	fac792e3          	bne	a5,a2,72c4 <__muldf3+0x43a>
    7324:	00969413          	slli	s0,a3,0x9
    7328:	8031                	srli	s0,s0,0xc
    732a:	06f6                	slli	a3,a3,0x1d
    732c:	808d                	srli	s1,s1,0x3
    732e:	8cd5                	or	s1,s1,a3
    7330:	4781                	li	a5,0
    7332:	b90d                	j	6f64 <__muldf3+0xda>
    7334:	7ff00793          	li	a5,2047
    7338:	4401                	li	s0,0
    733a:	4481                	li	s1,0
    733c:	b125                	j	6f64 <__muldf3+0xda>
    733e:	8942                	mv	s2,a6
    7340:	bd6d                	j	71fa <__muldf3+0x370>

00007342 <__subdf3>:
    7342:	00100737          	lui	a4,0x100
    7346:	177d                	addi	a4,a4,-1
    7348:	1101                	addi	sp,sp,-32
    734a:	00b77333          	and	t1,a4,a1
    734e:	0146d893          	srli	a7,a3,0x14
    7352:	8f75                	and	a4,a4,a3
    7354:	01d65e93          	srli	t4,a2,0x1d
    7358:	cc22                	sw	s0,24(sp)
    735a:	ca26                	sw	s1,20(sp)
    735c:	030e                	slli	t1,t1,0x3
    735e:	0145d493          	srli	s1,a1,0x14
    7362:	01d55793          	srli	a5,a0,0x1d
    7366:	070e                	slli	a4,a4,0x3
    7368:	ce06                	sw	ra,28(sp)
    736a:	c84a                	sw	s2,16(sp)
    736c:	c64e                	sw	s3,12(sp)
    736e:	7ff8f893          	andi	a7,a7,2047
    7372:	7ff00e13          	li	t3,2047
    7376:	00eee733          	or	a4,t4,a4
    737a:	7ff4f493          	andi	s1,s1,2047
    737e:	01f5d413          	srli	s0,a1,0x1f
    7382:	0067e333          	or	t1,a5,t1
    7386:	00351f13          	slli	t5,a0,0x3
    738a:	82fd                	srli	a3,a3,0x1f
    738c:	00361e93          	slli	t4,a2,0x3
    7390:	19c88063          	beq	a7,t3,7510 <__subdf3+0x1ce>
    7394:	0016c693          	xori	a3,a3,1
    7398:	411485b3          	sub	a1,s1,a7
    739c:	12d40563          	beq	s0,a3,74c6 <__subdf3+0x184>
    73a0:	18b05163          	blez	a1,7522 <__subdf3+0x1e0>
    73a4:	1a088b63          	beqz	a7,755a <__subdf3+0x218>
    73a8:	008007b7          	lui	a5,0x800
    73ac:	8f5d                	or	a4,a4,a5
    73ae:	59c48163          	beq	s1,t3,7930 <__subdf3+0x5ee>
    73b2:	03800793          	li	a5,56
    73b6:	34b7c463          	blt	a5,a1,76fe <__subdf3+0x3bc>
    73ba:	47fd                	li	a5,31
    73bc:	48b7c563          	blt	a5,a1,7846 <__subdf3+0x504>
    73c0:	02000793          	li	a5,32
    73c4:	8f8d                	sub	a5,a5,a1
    73c6:	00bed9b3          	srl	s3,t4,a1
    73ca:	00f71833          	sll	a6,a4,a5
    73ce:	00fe9eb3          	sll	t4,t4,a5
    73d2:	01386833          	or	a6,a6,s3
    73d6:	00b75733          	srl	a4,a4,a1
    73da:	01d039b3          	snez	s3,t4
    73de:	01386833          	or	a6,a6,s3
    73e2:	40e30333          	sub	t1,t1,a4
    73e6:	410f09b3          	sub	s3,t5,a6
    73ea:	013f37b3          	sltu	a5,t5,s3
    73ee:	40f30633          	sub	a2,t1,a5
    73f2:	00861793          	slli	a5,a2,0x8
    73f6:	2407d363          	bgez	a5,763c <__subdf3+0x2fa>
    73fa:	00800937          	lui	s2,0x800
    73fe:	197d                	addi	s2,s2,-1
    7400:	01267933          	and	s2,a2,s2
    7404:	2c090f63          	beqz	s2,76e2 <__subdf3+0x3a0>
    7408:	854a                	mv	a0,s2
    740a:	368010ef          	jal	ra,8772 <__clzsi2>
    740e:	ff850713          	addi	a4,a0,-8
    7412:	02000793          	li	a5,32
    7416:	8f99                	sub	a5,a5,a4
    7418:	00f9d7b3          	srl	a5,s3,a5
    741c:	00e91633          	sll	a2,s2,a4
    7420:	8fd1                	or	a5,a5,a2
    7422:	00e999b3          	sll	s3,s3,a4
    7426:	2a974463          	blt	a4,s1,76ce <__subdf3+0x38c>
    742a:	8f05                	sub	a4,a4,s1
    742c:	00170613          	addi	a2,a4,1 # 100001 <_data_lma+0xf5805>
    7430:	46fd                	li	a3,31
    7432:	3ac6c563          	blt	a3,a2,77dc <__subdf3+0x49a>
    7436:	02000713          	li	a4,32
    743a:	8f11                	sub	a4,a4,a2
    743c:	00c9d6b3          	srl	a3,s3,a2
    7440:	00e99833          	sll	a6,s3,a4
    7444:	00e79733          	sll	a4,a5,a4
    7448:	8f55                	or	a4,a4,a3
    744a:	01003833          	snez	a6,a6
    744e:	010769b3          	or	s3,a4,a6
    7452:	00c7d633          	srl	a2,a5,a2
    7456:	4481                	li	s1,0
    7458:	0079f793          	andi	a5,s3,7
    745c:	cf81                	beqz	a5,7474 <__subdf3+0x132>
    745e:	00f9f693          	andi	a3,s3,15
    7462:	4791                	li	a5,4
    7464:	00f68863          	beq	a3,a5,7474 <__subdf3+0x132>
    7468:	00498693          	addi	a3,s3,4
    746c:	0136b833          	sltu	a6,a3,s3
    7470:	9642                	add	a2,a2,a6
    7472:	89b6                	mv	s3,a3
    7474:	00861793          	slli	a5,a2,0x8
    7478:	1c07d663          	bgez	a5,7644 <__subdf3+0x302>
    747c:	00148713          	addi	a4,s1,1
    7480:	7ff00793          	li	a5,2047
    7484:	8805                	andi	s0,s0,1
    7486:	20f70663          	beq	a4,a5,7692 <__subdf3+0x350>
    748a:	ff8007b7          	lui	a5,0xff800
    748e:	17fd                	addi	a5,a5,-1
    7490:	8ff1                	and	a5,a5,a2
    7492:	01d79813          	slli	a6,a5,0x1d
    7496:	0039d993          	srli	s3,s3,0x3
    749a:	07a6                	slli	a5,a5,0x9
    749c:	01386833          	or	a6,a6,s3
    74a0:	83b1                	srli	a5,a5,0xc
    74a2:	7ff77713          	andi	a4,a4,2047
    74a6:	00c79693          	slli	a3,a5,0xc
    74aa:	0752                	slli	a4,a4,0x14
    74ac:	82b1                	srli	a3,a3,0xc
    74ae:	047e                	slli	s0,s0,0x1f
    74b0:	8ed9                	or	a3,a3,a4
    74b2:	8ec1                	or	a3,a3,s0
    74b4:	40f2                	lw	ra,28(sp)
    74b6:	4462                	lw	s0,24(sp)
    74b8:	44d2                	lw	s1,20(sp)
    74ba:	4942                	lw	s2,16(sp)
    74bc:	49b2                	lw	s3,12(sp)
    74be:	8542                	mv	a0,a6
    74c0:	85b6                	mv	a1,a3
    74c2:	6105                	addi	sp,sp,32
    74c4:	8082                	ret
    74c6:	0ab05663          	blez	a1,7572 <__subdf3+0x230>
    74ca:	12088a63          	beqz	a7,75fe <__subdf3+0x2bc>
    74ce:	008007b7          	lui	a5,0x800
    74d2:	8f5d                	or	a4,a4,a5
    74d4:	2dc48763          	beq	s1,t3,77a2 <__subdf3+0x460>
    74d8:	03800793          	li	a5,56
    74dc:	18b7c763          	blt	a5,a1,766a <__subdf3+0x328>
    74e0:	47fd                	li	a5,31
    74e2:	3cb7d263          	bge	a5,a1,78a6 <__subdf3+0x564>
    74e6:	fe058813          	addi	a6,a1,-32 # ffe0 <_data_lma+0x57e4>
    74ea:	02000793          	li	a5,32
    74ee:	010759b3          	srl	s3,a4,a6
    74f2:	00f58a63          	beq	a1,a5,7506 <__subdf3+0x1c4>
    74f6:	04000793          	li	a5,64
    74fa:	40b785b3          	sub	a1,a5,a1
    74fe:	00b71733          	sll	a4,a4,a1
    7502:	00eeeeb3          	or	t4,t4,a4
    7506:	01d03833          	snez	a6,t4
    750a:	01386833          	or	a6,a6,s3
    750e:	a295                	j	7672 <__subdf3+0x330>
    7510:	01d767b3          	or	a5,a4,t4
    7514:	80148593          	addi	a1,s1,-2047
    7518:	e399                	bnez	a5,751e <__subdf3+0x1dc>
    751a:	0016c693          	xori	a3,a3,1
    751e:	04d40a63          	beq	s0,a3,7572 <__subdf3+0x230>
    7522:	e1d1                	bnez	a1,75a6 <__subdf3+0x264>
    7524:	00148793          	addi	a5,s1,1
    7528:	7fe7f793          	andi	a5,a5,2046
    752c:	1e079963          	bnez	a5,771e <__subdf3+0x3dc>
    7530:	01e367b3          	or	a5,t1,t5
    7534:	01d76833          	or	a6,a4,t4
    7538:	16049263          	bnez	s1,769c <__subdf3+0x35a>
    753c:	3c078263          	beqz	a5,7900 <__subdf3+0x5be>
    7540:	42081663          	bnez	a6,796c <__subdf3+0x62a>
    7544:	00351813          	slli	a6,a0,0x3
    7548:	01d31693          	slli	a3,t1,0x1d
    754c:	00385813          	srli	a6,a6,0x3
    7550:	0106e833          	or	a6,a3,a6
    7554:	00335793          	srli	a5,t1,0x3
    7558:	a219                	j	765e <__subdf3+0x31c>
    755a:	01d767b3          	or	a5,a4,t4
    755e:	1a078563          	beqz	a5,7708 <__subdf3+0x3c6>
    7562:	fff58793          	addi	a5,a1,-1
    7566:	3a078b63          	beqz	a5,791c <__subdf3+0x5da>
    756a:	23c58c63          	beq	a1,t3,77a2 <__subdf3+0x460>
    756e:	85be                	mv	a1,a5
    7570:	b589                	j	73b2 <__subdf3+0x70>
    7572:	1c059963          	bnez	a1,7744 <__subdf3+0x402>
    7576:	00148693          	addi	a3,s1,1
    757a:	7fe6f793          	andi	a5,a3,2046
    757e:	efc1                	bnez	a5,7616 <__subdf3+0x2d4>
    7580:	01e367b3          	or	a5,t1,t5
    7584:	36049063          	bnez	s1,78e4 <__subdf3+0x5a2>
    7588:	44078d63          	beqz	a5,79e2 <__subdf3+0x6a0>
    758c:	01d767b3          	or	a5,a4,t4
    7590:	46079463          	bnez	a5,79f8 <__subdf3+0x6b6>
    7594:	050e                	slli	a0,a0,0x3
    7596:	01d31813          	slli	a6,t1,0x1d
    759a:	810d                	srli	a0,a0,0x3
    759c:	00a86833          	or	a6,a6,a0
    75a0:	00335793          	srli	a5,t1,0x3
    75a4:	a86d                	j	765e <__subdf3+0x31c>
    75a6:	409885b3          	sub	a1,a7,s1
    75aa:	20049763          	bnez	s1,77b8 <__subdf3+0x476>
    75ae:	01e367b3          	or	a5,t1,t5
    75b2:	30078d63          	beqz	a5,78cc <__subdf3+0x58a>
    75b6:	fff58793          	addi	a5,a1,-1
    75ba:	40078963          	beqz	a5,79cc <__subdf3+0x68a>
    75be:	7ff00513          	li	a0,2047
    75c2:	20a58363          	beq	a1,a0,77c8 <__subdf3+0x486>
    75c6:	85be                	mv	a1,a5
    75c8:	03800793          	li	a5,56
    75cc:	2ab7c263          	blt	a5,a1,7870 <__subdf3+0x52e>
    75d0:	47fd                	li	a5,31
    75d2:	3cb7c863          	blt	a5,a1,79a2 <__subdf3+0x660>
    75d6:	02000793          	li	a5,32
    75da:	8f8d                	sub	a5,a5,a1
    75dc:	00f31833          	sll	a6,t1,a5
    75e0:	00bf5633          	srl	a2,t5,a1
    75e4:	00ff17b3          	sll	a5,t5,a5
    75e8:	00c86833          	or	a6,a6,a2
    75ec:	00f039b3          	snez	s3,a5
    75f0:	00b35333          	srl	t1,t1,a1
    75f4:	01386833          	or	a6,a6,s3
    75f8:	40670733          	sub	a4,a4,t1
    75fc:	acb5                	j	7878 <__subdf3+0x536>
    75fe:	01d767b3          	or	a5,a4,t4
    7602:	10078363          	beqz	a5,7708 <__subdf3+0x3c6>
    7606:	fff58793          	addi	a5,a1,-1
    760a:	1e078f63          	beqz	a5,7808 <__subdf3+0x4c6>
    760e:	2fc58063          	beq	a1,t3,78ee <__subdf3+0x5ac>
    7612:	85be                	mv	a1,a5
    7614:	b5d1                	j	74d8 <__subdf3+0x196>
    7616:	7ff00793          	li	a5,2047
    761a:	06f68b63          	beq	a3,a5,7690 <__subdf3+0x34e>
    761e:	9efa                	add	t4,t4,t5
    7620:	01eeb633          	sltu	a2,t4,t5
    7624:	00e307b3          	add	a5,t1,a4
    7628:	97b2                	add	a5,a5,a2
    762a:	01f79813          	slli	a6,a5,0x1f
    762e:	001ede93          	srli	t4,t4,0x1
    7632:	01d869b3          	or	s3,a6,t4
    7636:	0017d613          	srli	a2,a5,0x1
    763a:	84b6                	mv	s1,a3
    763c:	0079f793          	andi	a5,s3,7
    7640:	e0079fe3          	bnez	a5,745e <__subdf3+0x11c>
    7644:	01d61793          	slli	a5,a2,0x1d
    7648:	0039d813          	srli	a6,s3,0x3
    764c:	00f86833          	or	a6,a6,a5
    7650:	85a6                	mv	a1,s1
    7652:	00365793          	srli	a5,a2,0x3
    7656:	7ff00713          	li	a4,2047
    765a:	06e58063          	beq	a1,a4,76ba <__subdf3+0x378>
    765e:	07b2                	slli	a5,a5,0xc
    7660:	83b1                	srli	a5,a5,0xc
    7662:	7ff5f713          	andi	a4,a1,2047
    7666:	8805                	andi	s0,s0,1
    7668:	bd3d                	j	74a6 <__subdf3+0x164>
    766a:	01d76733          	or	a4,a4,t4
    766e:	00e03833          	snez	a6,a4
    7672:	01e809b3          	add	s3,a6,t5
    7676:	01e9b7b3          	sltu	a5,s3,t5
    767a:	00678633          	add	a2,a5,t1
    767e:	00861793          	slli	a5,a2,0x8
    7682:	fa07dde3          	bgez	a5,763c <__subdf3+0x2fa>
    7686:	0485                	addi	s1,s1,1
    7688:	7ff00793          	li	a5,2047
    768c:	18f49c63          	bne	s1,a5,7824 <__subdf3+0x4e2>
    7690:	8805                	andi	s0,s0,1
    7692:	7ff00713          	li	a4,2047
    7696:	4781                	li	a5,0
    7698:	4801                	li	a6,0
    769a:	b531                	j	74a6 <__subdf3+0x164>
    769c:	10079163          	bnez	a5,779e <__subdf3+0x45c>
    76a0:	3c080163          	beqz	a6,7a62 <__subdf3+0x720>
    76a4:	00361813          	slli	a6,a2,0x3
    76a8:	01d71793          	slli	a5,a4,0x1d
    76ac:	00385813          	srli	a6,a6,0x3
    76b0:	00f86833          	or	a6,a6,a5
    76b4:	8436                	mv	s0,a3
    76b6:	00375793          	srli	a5,a4,0x3
    76ba:	00f867b3          	or	a5,a6,a5
    76be:	dbe9                	beqz	a5,7690 <__subdf3+0x34e>
    76c0:	4401                	li	s0,0
    76c2:	7ff00713          	li	a4,2047
    76c6:	000807b7          	lui	a5,0x80
    76ca:	4801                	li	a6,0
    76cc:	bbe9                	j	74a6 <__subdf3+0x164>
    76ce:	ff800637          	lui	a2,0xff800
    76d2:	167d                	addi	a2,a2,-1
    76d4:	8e7d                	and	a2,a2,a5
    76d6:	0079f793          	andi	a5,s3,7
    76da:	8c99                	sub	s1,s1,a4
    76dc:	d80791e3          	bnez	a5,745e <__subdf3+0x11c>
    76e0:	b795                	j	7644 <__subdf3+0x302>
    76e2:	854e                	mv	a0,s3
    76e4:	08e010ef          	jal	ra,8772 <__clzsi2>
    76e8:	01850713          	addi	a4,a0,24
    76ec:	47fd                	li	a5,31
    76ee:	d2e7d2e3          	bge	a5,a4,7412 <__subdf3+0xd0>
    76f2:	ff850613          	addi	a2,a0,-8
    76f6:	00c997b3          	sll	a5,s3,a2
    76fa:	4981                	li	s3,0
    76fc:	b32d                	j	7426 <__subdf3+0xe4>
    76fe:	01d76833          	or	a6,a4,t4
    7702:	01003833          	snez	a6,a6
    7706:	b1c5                	j	73e6 <__subdf3+0xa4>
    7708:	00351813          	slli	a6,a0,0x3
    770c:	01d31793          	slli	a5,t1,0x1d
    7710:	00385813          	srli	a6,a6,0x3
    7714:	00f86833          	or	a6,a6,a5
    7718:	00335793          	srli	a5,t1,0x3
    771c:	bf2d                	j	7656 <__subdf3+0x314>
    771e:	41df09b3          	sub	s3,t5,t4
    7722:	40e30933          	sub	s2,t1,a4
    7726:	013f3633          	sltu	a2,t5,s3
    772a:	40c90933          	sub	s2,s2,a2
    772e:	00891793          	slli	a5,s2,0x8
    7732:	2007ca63          	bltz	a5,7946 <__subdf3+0x604>
    7736:	0129e833          	or	a6,s3,s2
    773a:	cc0815e3          	bnez	a6,7404 <__subdf3+0xc2>
    773e:	4781                	li	a5,0
    7740:	4401                	li	s0,0
    7742:	bf31                	j	765e <__subdf3+0x31c>
    7744:	409885b3          	sub	a1,a7,s1
    7748:	14048163          	beqz	s1,788a <__subdf3+0x548>
    774c:	008006b7          	lui	a3,0x800
    7750:	7ff00793          	li	a5,2047
    7754:	00d36333          	or	t1,t1,a3
    7758:	20f88163          	beq	a7,a5,795a <__subdf3+0x618>
    775c:	03800793          	li	a5,56
    7760:	22b7cc63          	blt	a5,a1,7998 <__subdf3+0x656>
    7764:	47fd                	li	a5,31
    7766:	2cb7c963          	blt	a5,a1,7a38 <__subdf3+0x6f6>
    776a:	02000793          	li	a5,32
    776e:	8f8d                	sub	a5,a5,a1
    7770:	00f31833          	sll	a6,t1,a5
    7774:	00bf56b3          	srl	a3,t5,a1
    7778:	00ff17b3          	sll	a5,t5,a5
    777c:	00d86833          	or	a6,a6,a3
    7780:	00f039b3          	snez	s3,a5
    7784:	00b35333          	srl	t1,t1,a1
    7788:	01386833          	or	a6,a6,s3
    778c:	971a                	add	a4,a4,t1
    778e:	01d809b3          	add	s3,a6,t4
    7792:	01d9b7b3          	sltu	a5,s3,t4
    7796:	00e78633          	add	a2,a5,a4
    779a:	84c6                	mv	s1,a7
    779c:	b5cd                	j	767e <__subdf3+0x33c>
    779e:	f20811e3          	bnez	a6,76c0 <__subdf3+0x37e>
    77a2:	00351813          	slli	a6,a0,0x3
    77a6:	01d31793          	slli	a5,t1,0x1d
    77aa:	00385813          	srli	a6,a6,0x3
    77ae:	00f86833          	or	a6,a6,a5
    77b2:	00335793          	srli	a5,t1,0x3
    77b6:	b711                	j	76ba <__subdf3+0x378>
    77b8:	00800537          	lui	a0,0x800
    77bc:	7ff00793          	li	a5,2047
    77c0:	00a36333          	or	t1,t1,a0
    77c4:	e0f892e3          	bne	a7,a5,75c8 <__subdf3+0x286>
    77c8:	060e                	slli	a2,a2,0x3
    77ca:	01d71813          	slli	a6,a4,0x1d
    77ce:	820d                	srli	a2,a2,0x3
    77d0:	00c86833          	or	a6,a6,a2
    77d4:	00375793          	srli	a5,a4,0x3
    77d8:	8436                	mv	s0,a3
    77da:	b5c5                	j	76ba <__subdf3+0x378>
    77dc:	1705                	addi	a4,a4,-31
    77de:	02000693          	li	a3,32
    77e2:	00e7d733          	srl	a4,a5,a4
    77e6:	00d60a63          	beq	a2,a3,77fa <__subdf3+0x4b8>
    77ea:	04000693          	li	a3,64
    77ee:	40c68633          	sub	a2,a3,a2
    77f2:	00c79633          	sll	a2,a5,a2
    77f6:	00c9e9b3          	or	s3,s3,a2
    77fa:	01303833          	snez	a6,s3
    77fe:	00e869b3          	or	s3,a6,a4
    7802:	4601                	li	a2,0
    7804:	4481                	li	s1,0
    7806:	bd1d                	j	763c <__subdf3+0x2fa>
    7808:	01df09b3          	add	s3,t5,t4
    780c:	00e307b3          	add	a5,t1,a4
    7810:	01e9bf33          	sltu	t5,s3,t5
    7814:	01e78633          	add	a2,a5,t5
    7818:	00861793          	slli	a5,a2,0x8
    781c:	4485                	li	s1,1
    781e:	e007dfe3          	bgez	a5,763c <__subdf3+0x2fa>
    7822:	4489                	li	s1,2
    7824:	ff8007b7          	lui	a5,0xff800
    7828:	17fd                	addi	a5,a5,-1
    782a:	8ff1                	and	a5,a5,a2
    782c:	0019d713          	srli	a4,s3,0x1
    7830:	0019f813          	andi	a6,s3,1
    7834:	01076833          	or	a6,a4,a6
    7838:	01f79993          	slli	s3,a5,0x1f
    783c:	0109e9b3          	or	s3,s3,a6
    7840:	0017d613          	srli	a2,a5,0x1
    7844:	b911                	j	7458 <__subdf3+0x116>
    7846:	fe058813          	addi	a6,a1,-32
    784a:	02000793          	li	a5,32
    784e:	010759b3          	srl	s3,a4,a6
    7852:	00f58a63          	beq	a1,a5,7866 <__subdf3+0x524>
    7856:	04000793          	li	a5,64
    785a:	40b785b3          	sub	a1,a5,a1
    785e:	00b71733          	sll	a4,a4,a1
    7862:	00eeeeb3          	or	t4,t4,a4
    7866:	01d03833          	snez	a6,t4
    786a:	01386833          	or	a6,a6,s3
    786e:	bea5                	j	73e6 <__subdf3+0xa4>
    7870:	01e36333          	or	t1,t1,t5
    7874:	00603833          	snez	a6,t1
    7878:	410e89b3          	sub	s3,t4,a6
    787c:	013eb7b3          	sltu	a5,t4,s3
    7880:	40f70633          	sub	a2,a4,a5
    7884:	84c6                	mv	s1,a7
    7886:	8436                	mv	s0,a3
    7888:	b6ad                	j	73f2 <__subdf3+0xb0>
    788a:	01e367b3          	or	a5,t1,t5
    788e:	18078763          	beqz	a5,7a1c <__subdf3+0x6da>
    7892:	fff58793          	addi	a5,a1,-1
    7896:	1c078c63          	beqz	a5,7a6e <__subdf3+0x72c>
    789a:	7ff00693          	li	a3,2047
    789e:	0ad58e63          	beq	a1,a3,795a <__subdf3+0x618>
    78a2:	85be                	mv	a1,a5
    78a4:	bd65                	j	775c <__subdf3+0x41a>
    78a6:	02000793          	li	a5,32
    78aa:	8f8d                	sub	a5,a5,a1
    78ac:	00bed9b3          	srl	s3,t4,a1
    78b0:	00f71833          	sll	a6,a4,a5
    78b4:	00fe9eb3          	sll	t4,t4,a5
    78b8:	01386833          	or	a6,a6,s3
    78bc:	00b75733          	srl	a4,a4,a1
    78c0:	01d039b3          	snez	s3,t4
    78c4:	01386833          	or	a6,a6,s3
    78c8:	933a                	add	t1,t1,a4
    78ca:	b365                	j	7672 <__subdf3+0x330>
    78cc:	00361813          	slli	a6,a2,0x3
    78d0:	01d71793          	slli	a5,a4,0x1d
    78d4:	00385813          	srli	a6,a6,0x3
    78d8:	0107e833          	or	a6,a5,a6
    78dc:	8436                	mv	s0,a3
    78de:	00375793          	srli	a5,a4,0x3
    78e2:	bb95                	j	7656 <__subdf3+0x314>
    78e4:	cbbd                	beqz	a5,795a <__subdf3+0x618>
    78e6:	01d76733          	or	a4,a4,t4
    78ea:	dc071be3          	bnez	a4,76c0 <__subdf3+0x37e>
    78ee:	050e                	slli	a0,a0,0x3
    78f0:	01d31813          	slli	a6,t1,0x1d
    78f4:	810d                	srli	a0,a0,0x3
    78f6:	00a86833          	or	a6,a6,a0
    78fa:	00335793          	srli	a5,t1,0x3
    78fe:	bb75                	j	76ba <__subdf3+0x378>
    7900:	e2080fe3          	beqz	a6,773e <__subdf3+0x3fc>
    7904:	00361813          	slli	a6,a2,0x3
    7908:	01d71793          	slli	a5,a4,0x1d
    790c:	00385813          	srli	a6,a6,0x3
    7910:	00f86833          	or	a6,a6,a5
    7914:	8436                	mv	s0,a3
    7916:	00375793          	srli	a5,a4,0x3
    791a:	b391                	j	765e <__subdf3+0x31c>
    791c:	41df09b3          	sub	s3,t5,t4
    7920:	40e307b3          	sub	a5,t1,a4
    7924:	013f3f33          	sltu	t5,t5,s3
    7928:	41e78633          	sub	a2,a5,t5
    792c:	4485                	li	s1,1
    792e:	b4d1                	j	73f2 <__subdf3+0xb0>
    7930:	00351813          	slli	a6,a0,0x3
    7934:	01d31693          	slli	a3,t1,0x1d
    7938:	00385813          	srli	a6,a6,0x3
    793c:	0106e833          	or	a6,a3,a6
    7940:	00335793          	srli	a5,t1,0x3
    7944:	bb9d                	j	76ba <__subdf3+0x378>
    7946:	41ee89b3          	sub	s3,t4,t5
    794a:	40670633          	sub	a2,a4,t1
    794e:	013eb933          	sltu	s2,t4,s3
    7952:	41260933          	sub	s2,a2,s2
    7956:	8436                	mv	s0,a3
    7958:	b475                	j	7404 <__subdf3+0xc2>
    795a:	060e                	slli	a2,a2,0x3
    795c:	01d71813          	slli	a6,a4,0x1d
    7960:	820d                	srli	a2,a2,0x3
    7962:	00c86833          	or	a6,a6,a2
    7966:	00375793          	srli	a5,a4,0x3
    796a:	bb81                	j	76ba <__subdf3+0x378>
    796c:	41df09b3          	sub	s3,t5,t4
    7970:	40e307b3          	sub	a5,t1,a4
    7974:	013f3633          	sltu	a2,t5,s3
    7978:	40c78633          	sub	a2,a5,a2
    797c:	00861793          	slli	a5,a2,0x8
    7980:	0a07d763          	bgez	a5,7a2e <__subdf3+0x6ec>
    7984:	41ee89b3          	sub	s3,t4,t5
    7988:	406707b3          	sub	a5,a4,t1
    798c:	013ebeb3          	sltu	t4,t4,s3
    7990:	41d78633          	sub	a2,a5,t4
    7994:	8436                	mv	s0,a3
    7996:	b4c9                	j	7458 <__subdf3+0x116>
    7998:	01e36333          	or	t1,t1,t5
    799c:	00603833          	snez	a6,t1
    79a0:	b3fd                	j	778e <__subdf3+0x44c>
    79a2:	fe058813          	addi	a6,a1,-32
    79a6:	02000793          	li	a5,32
    79aa:	010359b3          	srl	s3,t1,a6
    79ae:	00f58a63          	beq	a1,a5,79c2 <__subdf3+0x680>
    79b2:	04000793          	li	a5,64
    79b6:	40b785b3          	sub	a1,a5,a1
    79ba:	00b31333          	sll	t1,t1,a1
    79be:	006f6f33          	or	t5,t5,t1
    79c2:	01e03833          	snez	a6,t5
    79c6:	01386833          	or	a6,a6,s3
    79ca:	b57d                	j	7878 <__subdf3+0x536>
    79cc:	41ee89b3          	sub	s3,t4,t5
    79d0:	406707b3          	sub	a5,a4,t1
    79d4:	013ebeb3          	sltu	t4,t4,s3
    79d8:	41d78633          	sub	a2,a5,t4
    79dc:	8436                	mv	s0,a3
    79de:	4485                	li	s1,1
    79e0:	bc09                	j	73f2 <__subdf3+0xb0>
    79e2:	00361813          	slli	a6,a2,0x3
    79e6:	01d71793          	slli	a5,a4,0x1d
    79ea:	00385813          	srli	a6,a6,0x3
    79ee:	00f86833          	or	a6,a6,a5
    79f2:	00375793          	srli	a5,a4,0x3
    79f6:	b1a5                	j	765e <__subdf3+0x31c>
    79f8:	01df09b3          	add	s3,t5,t4
    79fc:	00e307b3          	add	a5,t1,a4
    7a00:	01e9bf33          	sltu	t5,s3,t5
    7a04:	01e78633          	add	a2,a5,t5
    7a08:	00861793          	slli	a5,a2,0x8
    7a0c:	c207d8e3          	bgez	a5,763c <__subdf3+0x2fa>
    7a10:	ff8007b7          	lui	a5,0xff800
    7a14:	17fd                	addi	a5,a5,-1
    7a16:	8e7d                	and	a2,a2,a5
    7a18:	4485                	li	s1,1
    7a1a:	b10d                	j	763c <__subdf3+0x2fa>
    7a1c:	060e                	slli	a2,a2,0x3
    7a1e:	01d71813          	slli	a6,a4,0x1d
    7a22:	820d                	srli	a2,a2,0x3
    7a24:	00c86833          	or	a6,a6,a2
    7a28:	00375793          	srli	a5,a4,0x3
    7a2c:	b12d                	j	7656 <__subdf3+0x314>
    7a2e:	00c9e833          	or	a6,s3,a2
    7a32:	d00806e3          	beqz	a6,773e <__subdf3+0x3fc>
    7a36:	b119                	j	763c <__subdf3+0x2fa>
    7a38:	fe058813          	addi	a6,a1,-32
    7a3c:	02000793          	li	a5,32
    7a40:	010359b3          	srl	s3,t1,a6
    7a44:	00f58a63          	beq	a1,a5,7a58 <__subdf3+0x716>
    7a48:	04000793          	li	a5,64
    7a4c:	40b785b3          	sub	a1,a5,a1
    7a50:	00b31333          	sll	t1,t1,a1
    7a54:	006f6f33          	or	t5,t5,t1
    7a58:	01e03833          	snez	a6,t5
    7a5c:	01386833          	or	a6,a6,s3
    7a60:	b33d                	j	778e <__subdf3+0x44c>
    7a62:	4401                	li	s0,0
    7a64:	7ff00713          	li	a4,2047
    7a68:	000807b7          	lui	a5,0x80
    7a6c:	bc2d                	j	74a6 <__subdf3+0x164>
    7a6e:	01df09b3          	add	s3,t5,t4
    7a72:	00e307b3          	add	a5,t1,a4
    7a76:	01d9beb3          	sltu	t4,s3,t4
    7a7a:	01d78633          	add	a2,a5,t4
    7a7e:	bb69                	j	7818 <__subdf3+0x4d6>

00007a80 <__fixdfsi>:
    7a80:	0145d793          	srli	a5,a1,0x14
    7a84:	001006b7          	lui	a3,0x100
    7a88:	fff68713          	addi	a4,a3,-1 # fffff <_data_lma+0xf5803>
    7a8c:	7ff7f793          	andi	a5,a5,2047
    7a90:	3fe00613          	li	a2,1022
    7a94:	8f6d                	and	a4,a4,a1
    7a96:	81fd                	srli	a1,a1,0x1f
    7a98:	00f65c63          	bge	a2,a5,7ab0 <__fixdfsi+0x30>
    7a9c:	41d00613          	li	a2,1053
    7aa0:	00f65a63          	bge	a2,a5,7ab4 <__fixdfsi+0x34>
    7aa4:	80000537          	lui	a0,0x80000
    7aa8:	fff54513          	not	a0,a0
    7aac:	952e                	add	a0,a0,a1
    7aae:	8082                	ret
    7ab0:	4501                	li	a0,0
    7ab2:	8082                	ret
    7ab4:	43300613          	li	a2,1075
    7ab8:	8e1d                	sub	a2,a2,a5
    7aba:	487d                	li	a6,31
    7abc:	8f55                	or	a4,a4,a3
    7abe:	00c85d63          	bge	a6,a2,7ad8 <__fixdfsi+0x58>
    7ac2:	41300693          	li	a3,1043
    7ac6:	40f687b3          	sub	a5,a3,a5
    7aca:	00f757b3          	srl	a5,a4,a5
    7ace:	40f00533          	neg	a0,a5
    7ad2:	f1e5                	bnez	a1,7ab2 <__fixdfsi+0x32>
    7ad4:	853e                	mv	a0,a5
    7ad6:	8082                	ret
    7ad8:	bed78793          	addi	a5,a5,-1043 # 7fbed <_data_lma+0x753f1>
    7adc:	00f717b3          	sll	a5,a4,a5
    7ae0:	00c55533          	srl	a0,a0,a2
    7ae4:	8fc9                	or	a5,a5,a0
    7ae6:	b7e5                	j	7ace <__fixdfsi+0x4e>

00007ae8 <__floatsidf>:
    7ae8:	1141                	addi	sp,sp,-16
    7aea:	c606                	sw	ra,12(sp)
    7aec:	c422                	sw	s0,8(sp)
    7aee:	c226                	sw	s1,4(sp)
    7af0:	cd0d                	beqz	a0,7b2a <__floatsidf+0x42>
    7af2:	41f55793          	srai	a5,a0,0x1f
    7af6:	00a7c4b3          	xor	s1,a5,a0
    7afa:	8c9d                	sub	s1,s1,a5
    7afc:	842a                	mv	s0,a0
    7afe:	8526                	mv	a0,s1
    7b00:	473000ef          	jal	ra,8772 <__clzsi2>
    7b04:	41e00693          	li	a3,1054
    7b08:	8e89                	sub	a3,a3,a0
    7b0a:	47a9                	li	a5,10
    7b0c:	807d                	srli	s0,s0,0x1f
    7b0e:	7ff6f693          	andi	a3,a3,2047
    7b12:	02a7cd63          	blt	a5,a0,7b4c <__floatsidf+0x64>
    7b16:	472d                	li	a4,11
    7b18:	8f09                	sub	a4,a4,a0
    7b1a:	00e4d7b3          	srl	a5,s1,a4
    7b1e:	0555                	addi	a0,a0,21
    7b20:	07b2                	slli	a5,a5,0xc
    7b22:	00a494b3          	sll	s1,s1,a0
    7b26:	83b1                	srli	a5,a5,0xc
    7b28:	a029                	j	7b32 <__floatsidf+0x4a>
    7b2a:	4401                	li	s0,0
    7b2c:	4681                	li	a3,0
    7b2e:	4781                	li	a5,0
    7b30:	4481                	li	s1,0
    7b32:	07b2                	slli	a5,a5,0xc
    7b34:	06d2                	slli	a3,a3,0x14
    7b36:	83b1                	srli	a5,a5,0xc
    7b38:	047e                	slli	s0,s0,0x1f
    7b3a:	8fd5                	or	a5,a5,a3
    7b3c:	8fc1                	or	a5,a5,s0
    7b3e:	40b2                	lw	ra,12(sp)
    7b40:	4422                	lw	s0,8(sp)
    7b42:	8526                	mv	a0,s1
    7b44:	85be                	mv	a1,a5
    7b46:	4492                	lw	s1,4(sp)
    7b48:	0141                	addi	sp,sp,16
    7b4a:	8082                	ret
    7b4c:	1555                	addi	a0,a0,-11
    7b4e:	00a497b3          	sll	a5,s1,a0
    7b52:	07b2                	slli	a5,a5,0xc
    7b54:	83b1                	srli	a5,a5,0xc
    7b56:	4481                	li	s1,0
    7b58:	bfe9                	j	7b32 <__floatsidf+0x4a>

00007b5a <__floatunsidf>:
    7b5a:	cd1d                	beqz	a0,7b98 <__floatunsidf+0x3e>
    7b5c:	1141                	addi	sp,sp,-16
    7b5e:	c422                	sw	s0,8(sp)
    7b60:	c606                	sw	ra,12(sp)
    7b62:	842a                	mv	s0,a0
    7b64:	40f000ef          	jal	ra,8772 <__clzsi2>
    7b68:	41e00693          	li	a3,1054
    7b6c:	8e89                	sub	a3,a3,a0
    7b6e:	47a9                	li	a5,10
    7b70:	7ff6f693          	andi	a3,a3,2047
    7b74:	02a7dc63          	bge	a5,a0,7bac <__floatunsidf+0x52>
    7b78:	1555                	addi	a0,a0,-11
    7b7a:	00a417b3          	sll	a5,s0,a0
    7b7e:	07b2                	slli	a5,a5,0xc
    7b80:	83b1                	srli	a5,a5,0xc
    7b82:	4701                	li	a4,0
    7b84:	40b2                	lw	ra,12(sp)
    7b86:	4422                	lw	s0,8(sp)
    7b88:	07b2                	slli	a5,a5,0xc
    7b8a:	06d2                	slli	a3,a3,0x14
    7b8c:	83b1                	srli	a5,a5,0xc
    7b8e:	8fd5                	or	a5,a5,a3
    7b90:	853a                	mv	a0,a4
    7b92:	85be                	mv	a1,a5
    7b94:	0141                	addi	sp,sp,16
    7b96:	8082                	ret
    7b98:	4781                	li	a5,0
    7b9a:	4681                	li	a3,0
    7b9c:	07b2                	slli	a5,a5,0xc
    7b9e:	06d2                	slli	a3,a3,0x14
    7ba0:	83b1                	srli	a5,a5,0xc
    7ba2:	4701                	li	a4,0
    7ba4:	8fd5                	or	a5,a5,a3
    7ba6:	853a                	mv	a0,a4
    7ba8:	85be                	mv	a1,a5
    7baa:	8082                	ret
    7bac:	472d                	li	a4,11
    7bae:	8f09                	sub	a4,a4,a0
    7bb0:	00e457b3          	srl	a5,s0,a4
    7bb4:	07b2                	slli	a5,a5,0xc
    7bb6:	01550713          	addi	a4,a0,21 # 80000015 <_eusrstack+0x5fff0015>
    7bba:	00e41733          	sll	a4,s0,a4
    7bbe:	83b1                	srli	a5,a5,0xc
    7bc0:	b7d1                	j	7b84 <__floatunsidf+0x2a>

00007bc2 <__addsf3>:
    7bc2:	1141                	addi	sp,sp,-16
    7bc4:	00800737          	lui	a4,0x800
    7bc8:	177d                	addi	a4,a4,-1
    7bca:	0175d813          	srli	a6,a1,0x17
    7bce:	c226                	sw	s1,4(sp)
    7bd0:	01755493          	srli	s1,a0,0x17
    7bd4:	00a77333          	and	t1,a4,a0
    7bd8:	0ff4f493          	andi	s1,s1,255
    7bdc:	00b776b3          	and	a3,a4,a1
    7be0:	c04a                	sw	s2,0(sp)
    7be2:	0ff87813          	andi	a6,a6,255
    7be6:	01f55913          	srli	s2,a0,0x1f
    7bea:	c606                	sw	ra,12(sp)
    7bec:	c422                	sw	s0,8(sp)
    7bee:	81fd                	srli	a1,a1,0x1f
    7bf0:	879a                	mv	a5,t1
    7bf2:	8526                	mv	a0,s1
    7bf4:	864a                	mv	a2,s2
    7bf6:	00331e13          	slli	t3,t1,0x3
    7bfa:	00369e93          	slli	t4,a3,0x3
    7bfe:	410488b3          	sub	a7,s1,a6
    7c02:	0eb90a63          	beq	s2,a1,7cf6 <__addsf3+0x134>
    7c06:	0d105063          	blez	a7,7cc6 <__addsf3+0x104>
    7c0a:	14080463          	beqz	a6,7d52 <__addsf3+0x190>
    7c0e:	0ff00793          	li	a5,255
    7c12:	14f48b63          	beq	s1,a5,7d68 <__addsf3+0x1a6>
    7c16:	040007b7          	lui	a5,0x4000
    7c1a:	00feeeb3          	or	t4,t4,a5
    7c1e:	47ed                	li	a5,27
    7c20:	2917c163          	blt	a5,a7,7ea2 <__addsf3+0x2e0>
    7c24:	02000793          	li	a5,32
    7c28:	411787b3          	sub	a5,a5,a7
    7c2c:	00fe97b3          	sll	a5,t4,a5
    7c30:	011ed8b3          	srl	a7,t4,a7
    7c34:	00f037b3          	snez	a5,a5
    7c38:	00f8e7b3          	or	a5,a7,a5
    7c3c:	40fe07b3          	sub	a5,t3,a5
    7c40:	00579713          	slli	a4,a5,0x5
    7c44:	18075e63          	bgez	a4,7de0 <__addsf3+0x21e>
    7c48:	04000437          	lui	s0,0x4000
    7c4c:	147d                	addi	s0,s0,-1
    7c4e:	8c7d                	and	s0,s0,a5
    7c50:	8522                	mv	a0,s0
    7c52:	321000ef          	jal	ra,8772 <__clzsi2>
    7c56:	156d                	addi	a0,a0,-5
    7c58:	00a417b3          	sll	a5,s0,a0
    7c5c:	1a954863          	blt	a0,s1,7e0c <__addsf3+0x24a>
    7c60:	8d05                	sub	a0,a0,s1
    7c62:	00150413          	addi	s0,a0,1
    7c66:	02000713          	li	a4,32
    7c6a:	8f01                	sub	a4,a4,s0
    7c6c:	00e79733          	sll	a4,a5,a4
    7c70:	00e03733          	snez	a4,a4
    7c74:	0087d7b3          	srl	a5,a5,s0
    7c78:	8fd9                	or	a5,a5,a4
    7c7a:	4481                	li	s1,0
    7c7c:	0077f713          	andi	a4,a5,7
    7c80:	c719                	beqz	a4,7c8e <__addsf3+0xcc>
    7c82:	00f7f713          	andi	a4,a5,15
    7c86:	4691                	li	a3,4
    7c88:	00d70363          	beq	a4,a3,7c8e <__addsf3+0xcc>
    7c8c:	0791                	addi	a5,a5,4
    7c8e:	00579713          	slli	a4,a5,0x5
    7c92:	14075b63          	bgez	a4,7de8 <__addsf3+0x226>
    7c96:	0485                	addi	s1,s1,1
    7c98:	0ff00713          	li	a4,255
    7c9c:	864a                	mv	a2,s2
    7c9e:	16e48363          	beq	s1,a4,7e04 <__addsf3+0x242>
    7ca2:	079a                	slli	a5,a5,0x6
    7ca4:	83a5                	srli	a5,a5,0x9
    7ca6:	0ff4f513          	andi	a0,s1,255
    7caa:	40b2                	lw	ra,12(sp)
    7cac:	4422                	lw	s0,8(sp)
    7cae:	07a6                	slli	a5,a5,0x9
    7cb0:	01751493          	slli	s1,a0,0x17
    7cb4:	0097d513          	srli	a0,a5,0x9
    7cb8:	8d45                	or	a0,a0,s1
    7cba:	067e                	slli	a2,a2,0x1f
    7cbc:	4492                	lw	s1,4(sp)
    7cbe:	4902                	lw	s2,0(sp)
    7cc0:	8d51                	or	a0,a0,a2
    7cc2:	0141                	addi	sp,sp,16
    7cc4:	8082                	ret
    7cc6:	0a089963          	bnez	a7,7d78 <__addsf3+0x1b6>
    7cca:	00148713          	addi	a4,s1,1
    7cce:	0fe77713          	andi	a4,a4,254
    7cd2:	14071763          	bnez	a4,7e20 <__addsf3+0x25e>
    7cd6:	22049063          	bnez	s1,7ef6 <__addsf3+0x334>
    7cda:	1e0e0d63          	beqz	t3,7ed4 <__addsf3+0x312>
    7cde:	fc0e86e3          	beqz	t4,7caa <__addsf3+0xe8>
    7ce2:	41de07b3          	sub	a5,t3,t4
    7ce6:	00579713          	slli	a4,a5,0x5
    7cea:	22075063          	bgez	a4,7f0a <__addsf3+0x348>
    7cee:	41ce87b3          	sub	a5,t4,t3
    7cf2:	892e                	mv	s2,a1
    7cf4:	b761                	j	7c7c <__addsf3+0xba>
    7cf6:	0b105c63          	blez	a7,7dae <__addsf3+0x1ec>
    7cfa:	08080e63          	beqz	a6,7d96 <__addsf3+0x1d4>
    7cfe:	0ff00793          	li	a5,255
    7d02:	06f48363          	beq	s1,a5,7d68 <__addsf3+0x1a6>
    7d06:	040007b7          	lui	a5,0x4000
    7d0a:	00feeeb3          	or	t4,t4,a5
    7d0e:	47ed                	li	a5,27
    7d10:	1f17c963          	blt	a5,a7,7f02 <__addsf3+0x340>
    7d14:	02000793          	li	a5,32
    7d18:	411787b3          	sub	a5,a5,a7
    7d1c:	00fe97b3          	sll	a5,t4,a5
    7d20:	011ed8b3          	srl	a7,t4,a7
    7d24:	00f037b3          	snez	a5,a5
    7d28:	00f8e7b3          	or	a5,a7,a5
    7d2c:	97f2                	add	a5,a5,t3
    7d2e:	00579713          	slli	a4,a5,0x5
    7d32:	0a075763          	bgez	a4,7de0 <__addsf3+0x21e>
    7d36:	0485                	addi	s1,s1,1
    7d38:	0ff00713          	li	a4,255
    7d3c:	0ce48463          	beq	s1,a4,7e04 <__addsf3+0x242>
    7d40:	7e0006b7          	lui	a3,0x7e000
    7d44:	0017d713          	srli	a4,a5,0x1
    7d48:	16fd                	addi	a3,a3,-1
    7d4a:	8b85                	andi	a5,a5,1
    7d4c:	8f75                	and	a4,a4,a3
    7d4e:	8fd9                	or	a5,a5,a4
    7d50:	b735                	j	7c7c <__addsf3+0xba>
    7d52:	080e8d63          	beqz	t4,7dec <__addsf3+0x22a>
    7d56:	18fd                	addi	a7,a7,-1
    7d58:	41de07b3          	sub	a5,t3,t4
    7d5c:	ee0882e3          	beqz	a7,7c40 <__addsf3+0x7e>
    7d60:	0ff00793          	li	a5,255
    7d64:	eaf49de3          	bne	s1,a5,7c1e <__addsf3+0x5c>
    7d68:	08030d63          	beqz	t1,7e02 <__addsf3+0x240>
    7d6c:	4601                	li	a2,0
    7d6e:	0ff00513          	li	a0,255
    7d72:	004007b7          	lui	a5,0x400
    7d76:	bf15                	j	7caa <__addsf3+0xe8>
    7d78:	40980733          	sub	a4,a6,s1
    7d7c:	e8ed                	bnez	s1,7e6e <__addsf3+0x2ac>
    7d7e:	140e0263          	beqz	t3,7ec2 <__addsf3+0x300>
    7d82:	177d                	addi	a4,a4,-1
    7d84:	18070863          	beqz	a4,7f14 <__addsf3+0x352>
    7d88:	0ff00793          	li	a5,255
    7d8c:	0ef81963          	bne	a6,a5,7e7e <__addsf3+0x2bc>
    7d90:	892e                	mv	s2,a1
    7d92:	8336                	mv	t1,a3
    7d94:	bfd1                	j	7d68 <__addsf3+0x1a6>
    7d96:	040e8b63          	beqz	t4,7dec <__addsf3+0x22a>
    7d9a:	18fd                	addi	a7,a7,-1
    7d9c:	01de07b3          	add	a5,t3,t4
    7da0:	f80887e3          	beqz	a7,7d2e <__addsf3+0x16c>
    7da4:	0ff00793          	li	a5,255
    7da8:	f6f493e3          	bne	s1,a5,7d0e <__addsf3+0x14c>
    7dac:	bf75                	j	7d68 <__addsf3+0x1a6>
    7dae:	08089563          	bnez	a7,7e38 <__addsf3+0x276>
    7db2:	0485                	addi	s1,s1,1
    7db4:	0fe4f713          	andi	a4,s1,254
    7db8:	12071363          	bnez	a4,7ede <__addsf3+0x31c>
    7dbc:	10051763          	bnez	a0,7eca <__addsf3+0x308>
    7dc0:	140e0f63          	beqz	t3,7f1e <__addsf3+0x35c>
    7dc4:	ee0e83e3          	beqz	t4,7caa <__addsf3+0xe8>
    7dc8:	01de07b3          	add	a5,t3,t4
    7dcc:	00579713          	slli	a4,a5,0x5
    7dd0:	4481                	li	s1,0
    7dd2:	00075763          	bgez	a4,7de0 <__addsf3+0x21e>
    7dd6:	fc000737          	lui	a4,0xfc000
    7dda:	177d                	addi	a4,a4,-1
    7ddc:	8ff9                	and	a5,a5,a4
    7dde:	4485                	li	s1,1
    7de0:	0077f713          	andi	a4,a5,7
    7de4:	e8071fe3          	bnez	a4,7c82 <__addsf3+0xc0>
    7de8:	0037d313          	srli	t1,a5,0x3
    7dec:	0ff00793          	li	a5,255
    7df0:	f6f48ce3          	beq	s1,a5,7d68 <__addsf3+0x1a6>
    7df4:	00931793          	slli	a5,t1,0x9
    7df8:	83a5                	srli	a5,a5,0x9
    7dfa:	0ff4f513          	andi	a0,s1,255
    7dfe:	864a                	mv	a2,s2
    7e00:	b56d                	j	7caa <__addsf3+0xe8>
    7e02:	864a                	mv	a2,s2
    7e04:	0ff00513          	li	a0,255
    7e08:	4781                	li	a5,0
    7e0a:	b545                	j	7caa <__addsf3+0xe8>
    7e0c:	fc000737          	lui	a4,0xfc000
    7e10:	177d                	addi	a4,a4,-1
    7e12:	8ff9                	and	a5,a5,a4
    7e14:	0077f713          	andi	a4,a5,7
    7e18:	8c89                	sub	s1,s1,a0
    7e1a:	e60714e3          	bnez	a4,7c82 <__addsf3+0xc0>
    7e1e:	b7e9                	j	7de8 <__addsf3+0x226>
    7e20:	41de0433          	sub	s0,t3,t4
    7e24:	00541793          	slli	a5,s0,0x5
    7e28:	0c07c363          	bltz	a5,7eee <__addsf3+0x32c>
    7e2c:	e20412e3          	bnez	s0,7c50 <__addsf3+0x8e>
    7e30:	4601                	li	a2,0
    7e32:	4501                	li	a0,0
    7e34:	4781                	li	a5,0
    7e36:	bd95                	j	7caa <__addsf3+0xe8>
    7e38:	40980733          	sub	a4,a6,s1
    7e3c:	c4ad                	beqz	s1,7ea6 <__addsf3+0x2e4>
    7e3e:	0ff00793          	li	a5,255
    7e42:	f4f808e3          	beq	a6,a5,7d92 <__addsf3+0x1d0>
    7e46:	040007b7          	lui	a5,0x4000
    7e4a:	00fe6e33          	or	t3,t3,a5
    7e4e:	47ed                	li	a5,27
    7e50:	0ce7cc63          	blt	a5,a4,7f28 <__addsf3+0x366>
    7e54:	02000793          	li	a5,32
    7e58:	8f99                	sub	a5,a5,a4
    7e5a:	00fe17b3          	sll	a5,t3,a5
    7e5e:	00ee5733          	srl	a4,t3,a4
    7e62:	00f037b3          	snez	a5,a5
    7e66:	8fd9                	or	a5,a5,a4
    7e68:	97f6                	add	a5,a5,t4
    7e6a:	84c2                	mv	s1,a6
    7e6c:	b5c9                	j	7d2e <__addsf3+0x16c>
    7e6e:	0ff00793          	li	a5,255
    7e72:	f0f80fe3          	beq	a6,a5,7d90 <__addsf3+0x1ce>
    7e76:	040007b7          	lui	a5,0x4000
    7e7a:	00fe6e33          	or	t3,t3,a5
    7e7e:	47ed                	li	a5,27
    7e80:	08e7c363          	blt	a5,a4,7f06 <__addsf3+0x344>
    7e84:	02000693          	li	a3,32
    7e88:	8e99                	sub	a3,a3,a4
    7e8a:	00de16b3          	sll	a3,t3,a3
    7e8e:	00ee57b3          	srl	a5,t3,a4
    7e92:	00d03733          	snez	a4,a3
    7e96:	8fd9                	or	a5,a5,a4
    7e98:	40fe87b3          	sub	a5,t4,a5
    7e9c:	84c2                	mv	s1,a6
    7e9e:	892e                	mv	s2,a1
    7ea0:	b345                	j	7c40 <__addsf3+0x7e>
    7ea2:	4785                	li	a5,1
    7ea4:	bb61                	j	7c3c <__addsf3+0x7a>
    7ea6:	060e0e63          	beqz	t3,7f22 <__addsf3+0x360>
    7eaa:	177d                	addi	a4,a4,-1
    7eac:	01de07b3          	add	a5,t3,t4
    7eb0:	84c2                	mv	s1,a6
    7eb2:	e6070ee3          	beqz	a4,7d2e <__addsf3+0x16c>
    7eb6:	0ff00793          	li	a5,255
    7eba:	f8f81ae3          	bne	a6,a5,7e4e <__addsf3+0x28c>
    7ebe:	8336                	mv	t1,a3
    7ec0:	b565                	j	7d68 <__addsf3+0x1a6>
    7ec2:	8336                	mv	t1,a3
    7ec4:	84c2                	mv	s1,a6
    7ec6:	892e                	mv	s2,a1
    7ec8:	b715                	j	7dec <__addsf3+0x22a>
    7eca:	ec0e04e3          	beqz	t3,7d92 <__addsf3+0x1d0>
    7ece:	e80e8de3          	beqz	t4,7d68 <__addsf3+0x1a6>
    7ed2:	bd69                	j	7d6c <__addsf3+0x1aa>
    7ed4:	020e8d63          	beqz	t4,7f0e <__addsf3+0x34c>
    7ed8:	862e                	mv	a2,a1
    7eda:	87b6                	mv	a5,a3
    7edc:	b3f9                	j	7caa <__addsf3+0xe8>
    7ede:	0ff00793          	li	a5,255
    7ee2:	f2f481e3          	beq	s1,a5,7e04 <__addsf3+0x242>
    7ee6:	01de07b3          	add	a5,t3,t4
    7eea:	8385                	srli	a5,a5,0x1
    7eec:	bdd5                	j	7de0 <__addsf3+0x21e>
    7eee:	41ce8433          	sub	s0,t4,t3
    7ef2:	892e                	mv	s2,a1
    7ef4:	bbb1                	j	7c50 <__addsf3+0x8e>
    7ef6:	fc0e1ce3          	bnez	t3,7ece <__addsf3+0x30c>
    7efa:	e60e89e3          	beqz	t4,7d6c <__addsf3+0x1aa>
    7efe:	892e                	mv	s2,a1
    7f00:	bd49                	j	7d92 <__addsf3+0x1d0>
    7f02:	4785                	li	a5,1
    7f04:	b525                	j	7d2c <__addsf3+0x16a>
    7f06:	4785                	li	a5,1
    7f08:	bf41                	j	7e98 <__addsf3+0x2d6>
    7f0a:	ec079be3          	bnez	a5,7de0 <__addsf3+0x21e>
    7f0e:	4601                	li	a2,0
    7f10:	4781                	li	a5,0
    7f12:	bb61                	j	7caa <__addsf3+0xe8>
    7f14:	41ce87b3          	sub	a5,t4,t3
    7f18:	84c2                	mv	s1,a6
    7f1a:	892e                	mv	s2,a1
    7f1c:	b315                	j	7c40 <__addsf3+0x7e>
    7f1e:	87b6                	mv	a5,a3
    7f20:	b369                	j	7caa <__addsf3+0xe8>
    7f22:	8336                	mv	t1,a3
    7f24:	84c2                	mv	s1,a6
    7f26:	b5d9                	j	7dec <__addsf3+0x22a>
    7f28:	4785                	li	a5,1
    7f2a:	bf3d                	j	7e68 <__addsf3+0x2a6>

00007f2c <__gesf2>:
    7f2c:	01755693          	srli	a3,a0,0x17
    7f30:	008007b7          	lui	a5,0x800
    7f34:	17fd                	addi	a5,a5,-1
    7f36:	0175d613          	srli	a2,a1,0x17
    7f3a:	0ff6f693          	andi	a3,a3,255
    7f3e:	0ff00813          	li	a6,255
    7f42:	00a7f8b3          	and	a7,a5,a0
    7f46:	01f55713          	srli	a4,a0,0x1f
    7f4a:	8fed                	and	a5,a5,a1
    7f4c:	0ff67613          	andi	a2,a2,255
    7f50:	81fd                	srli	a1,a1,0x1f
    7f52:	03068163          	beq	a3,a6,7f74 <__gesf2+0x48>
    7f56:	01060c63          	beq	a2,a6,7f6e <__gesf2+0x42>
    7f5a:	e28d                	bnez	a3,7f7c <__gesf2+0x50>
    7f5c:	e211                	bnez	a2,7f60 <__gesf2+0x34>
    7f5e:	c3b1                	beqz	a5,7fa2 <__gesf2+0x76>
    7f60:	02088e63          	beqz	a7,7f9c <__gesf2+0x70>
    7f64:	04b70563          	beq	a4,a1,7fae <__gesf2+0x82>
    7f68:	4505                	li	a0,1
    7f6a:	e71d                	bnez	a4,7f98 <__gesf2+0x6c>
    7f6c:	8082                	ret
    7f6e:	d7f5                	beqz	a5,7f5a <__gesf2+0x2e>
    7f70:	5579                	li	a0,-2
    7f72:	8082                	ret
    7f74:	fe089ee3          	bnez	a7,7f70 <__gesf2+0x44>
    7f78:	02d60963          	beq	a2,a3,7faa <__gesf2+0x7e>
    7f7c:	e211                	bnez	a2,7f80 <__gesf2+0x54>
    7f7e:	d7ed                	beqz	a5,7f68 <__gesf2+0x3c>
    7f80:	feb714e3          	bne	a4,a1,7f68 <__gesf2+0x3c>
    7f84:	fed642e3          	blt	a2,a3,7f68 <__gesf2+0x3c>
    7f88:	00c6c763          	blt	a3,a2,7f96 <__gesf2+0x6a>
    7f8c:	fd17eee3          	bltu	a5,a7,7f68 <__gesf2+0x3c>
    7f90:	4501                	li	a0,0
    7f92:	fcf8fde3          	bgeu	a7,a5,7f6c <__gesf2+0x40>
    7f96:	e701                	bnez	a4,7f9e <__gesf2+0x72>
    7f98:	557d                	li	a0,-1
    7f9a:	8082                	ret
    7f9c:	ddf5                	beqz	a1,7f98 <__gesf2+0x6c>
    7f9e:	4505                	li	a0,1
    7fa0:	8082                	ret
    7fa2:	4501                	li	a0,0
    7fa4:	fc0892e3          	bnez	a7,7f68 <__gesf2+0x3c>
    7fa8:	8082                	ret
    7faa:	dbf9                	beqz	a5,7f80 <__gesf2+0x54>
    7fac:	b7d1                	j	7f70 <__gesf2+0x44>
    7fae:	4681                	li	a3,0
    7fb0:	bfe1                	j	7f88 <__gesf2+0x5c>

00007fb2 <__lesf2>:
    7fb2:	01755693          	srli	a3,a0,0x17
    7fb6:	008007b7          	lui	a5,0x800
    7fba:	17fd                	addi	a5,a5,-1
    7fbc:	0175d613          	srli	a2,a1,0x17
    7fc0:	0ff6f693          	andi	a3,a3,255
    7fc4:	0ff00813          	li	a6,255
    7fc8:	00a7f8b3          	and	a7,a5,a0
    7fcc:	01f55713          	srli	a4,a0,0x1f
    7fd0:	8fed                	and	a5,a5,a1
    7fd2:	0ff67613          	andi	a2,a2,255
    7fd6:	81fd                	srli	a1,a1,0x1f
    7fd8:	03068763          	beq	a3,a6,8006 <__lesf2+0x54>
    7fdc:	01060963          	beq	a2,a6,7fee <__lesf2+0x3c>
    7fe0:	ea85                	bnez	a3,8010 <__lesf2+0x5e>
    7fe2:	ea11                	bnez	a2,7ff6 <__lesf2+0x44>
    7fe4:	eb89                	bnez	a5,7ff6 <__lesf2+0x44>
    7fe6:	4501                	li	a0,0
    7fe8:	00089b63          	bnez	a7,7ffe <__lesf2+0x4c>
    7fec:	8082                	ret
    7fee:	4509                	li	a0,2
    7ff0:	fff5                	bnez	a5,7fec <__lesf2+0x3a>
    7ff2:	dae5                	beqz	a3,7fe2 <__lesf2+0x30>
    7ff4:	a831                	j	8010 <__lesf2+0x5e>
    7ff6:	02088c63          	beqz	a7,802e <__lesf2+0x7c>
    7ffa:	04b70063          	beq	a4,a1,803a <__lesf2+0x88>
    7ffe:	4505                	li	a0,1
    8000:	d775                	beqz	a4,7fec <__lesf2+0x3a>
    8002:	557d                	li	a0,-1
    8004:	8082                	ret
    8006:	4509                	li	a0,2
    8008:	02089863          	bnez	a7,8038 <__lesf2+0x86>
    800c:	02d60463          	beq	a2,a3,8034 <__lesf2+0x82>
    8010:	e211                	bnez	a2,8014 <__lesf2+0x62>
    8012:	d7f5                	beqz	a5,7ffe <__lesf2+0x4c>
    8014:	feb715e3          	bne	a4,a1,7ffe <__lesf2+0x4c>
    8018:	fed643e3          	blt	a2,a3,7ffe <__lesf2+0x4c>
    801c:	00c6c763          	blt	a3,a2,802a <__lesf2+0x78>
    8020:	fd17efe3          	bltu	a5,a7,7ffe <__lesf2+0x4c>
    8024:	4501                	li	a0,0
    8026:	fcf8f3e3          	bgeu	a7,a5,7fec <__lesf2+0x3a>
    802a:	e319                	bnez	a4,8030 <__lesf2+0x7e>
    802c:	bfd9                	j	8002 <__lesf2+0x50>
    802e:	d9f1                	beqz	a1,8002 <__lesf2+0x50>
    8030:	4505                	li	a0,1
    8032:	8082                	ret
    8034:	d3e5                	beqz	a5,8014 <__lesf2+0x62>
    8036:	8082                	ret
    8038:	8082                	ret
    803a:	4681                	li	a3,0
    803c:	b7c5                	j	801c <__lesf2+0x6a>

0000803e <__mulsf3>:
    803e:	7179                	addi	sp,sp,-48
    8040:	d422                	sw	s0,40(sp)
    8042:	01755413          	srli	s0,a0,0x17
    8046:	ce4e                	sw	s3,28(sp)
    8048:	cc52                	sw	s4,24(sp)
    804a:	00951993          	slli	s3,a0,0x9
    804e:	d606                	sw	ra,44(sp)
    8050:	d226                	sw	s1,36(sp)
    8052:	d04a                	sw	s2,32(sp)
    8054:	ca56                	sw	s5,20(sp)
    8056:	c85a                	sw	s6,16(sp)
    8058:	0ff47413          	andi	s0,s0,255
    805c:	0099d993          	srli	s3,s3,0x9
    8060:	01f55a13          	srli	s4,a0,0x1f
    8064:	c469                	beqz	s0,812e <__mulsf3+0xf0>
    8066:	0ff00793          	li	a5,255
    806a:	0ef40863          	beq	s0,a5,815a <__mulsf3+0x11c>
    806e:	00399793          	slli	a5,s3,0x3
    8072:	04000737          	lui	a4,0x4000
    8076:	00e7e9b3          	or	s3,a5,a4
    807a:	f8140413          	addi	s0,s0,-127 # 3ffff81 <_data_lma+0x3ff5785>
    807e:	4481                	li	s1,0
    8080:	4b01                	li	s6,0
    8082:	0175d713          	srli	a4,a1,0x17
    8086:	00959a93          	slli	s5,a1,0x9
    808a:	0ff77713          	andi	a4,a4,255
    808e:	009ada93          	srli	s5,s5,0x9
    8092:	01f5d913          	srli	s2,a1,0x1f
    8096:	cf45                	beqz	a4,814e <__mulsf3+0x110>
    8098:	0ff00793          	li	a5,255
    809c:	02f70c63          	beq	a4,a5,80d4 <__mulsf3+0x96>
    80a0:	0a8e                	slli	s5,s5,0x3
    80a2:	f8170713          	addi	a4,a4,-127 # 3ffff81 <_data_lma+0x3ff5785>
    80a6:	040007b7          	lui	a5,0x4000
    80aa:	00faeab3          	or	s5,s5,a5
    80ae:	943a                	add	s0,s0,a4
    80b0:	4601                	li	a2,0
    80b2:	012a4533          	xor	a0,s4,s2
    80b6:	47bd                	li	a5,15
    80b8:	86aa                	mv	a3,a0
    80ba:	00140593          	addi	a1,s0,1
    80be:	1097e063          	bltu	a5,s1,81be <__mulsf3+0x180>
    80c2:	00002717          	auipc	a4,0x2
    80c6:	51e70713          	addi	a4,a4,1310 # a5e0 <MyUSBQUADescHD+0xd0>
    80ca:	048a                	slli	s1,s1,0x2
    80cc:	94ba                	add	s1,s1,a4
    80ce:	409c                	lw	a5,0(s1)
    80d0:	97ba                	add	a5,a5,a4
    80d2:	8782                	jr	a5
    80d4:	0ff40413          	addi	s0,s0,255
    80d8:	0c0a9663          	bnez	s5,81a4 <__mulsf3+0x166>
    80dc:	0024e493          	ori	s1,s1,2
    80e0:	4609                	li	a2,2
    80e2:	bfc1                	j	80b2 <__mulsf3+0x74>
    80e4:	4501                	li	a0,0
    80e6:	0ff00713          	li	a4,255
    80ea:	004007b7          	lui	a5,0x400
    80ee:	50b2                	lw	ra,44(sp)
    80f0:	5422                	lw	s0,40(sp)
    80f2:	07a6                	slli	a5,a5,0x9
    80f4:	075e                	slli	a4,a4,0x17
    80f6:	83a5                	srli	a5,a5,0x9
    80f8:	057e                	slli	a0,a0,0x1f
    80fa:	8fd9                	or	a5,a5,a4
    80fc:	5492                	lw	s1,36(sp)
    80fe:	5902                	lw	s2,32(sp)
    8100:	49f2                	lw	s3,28(sp)
    8102:	4a62                	lw	s4,24(sp)
    8104:	4ad2                	lw	s5,20(sp)
    8106:	4b42                	lw	s6,16(sp)
    8108:	8d5d                	or	a0,a0,a5
    810a:	6145                	addi	sp,sp,48
    810c:	8082                	ret
    810e:	86ca                	mv	a3,s2
    8110:	89d6                	mv	s3,s5
    8112:	8b32                	mv	s6,a2
    8114:	4789                	li	a5,2
    8116:	08fb0f63          	beq	s6,a5,81b4 <__mulsf3+0x176>
    811a:	478d                	li	a5,3
    811c:	fcfb04e3          	beq	s6,a5,80e4 <__mulsf3+0xa6>
    8120:	4785                	li	a5,1
    8122:	8536                	mv	a0,a3
    8124:	1afb1063          	bne	s6,a5,82c4 <__mulsf3+0x286>
    8128:	4701                	li	a4,0
    812a:	4781                	li	a5,0
    812c:	b7c9                	j	80ee <__mulsf3+0xb0>
    812e:	04099d63          	bnez	s3,8188 <__mulsf3+0x14a>
    8132:	0175d713          	srli	a4,a1,0x17
    8136:	00959a93          	slli	s5,a1,0x9
    813a:	0ff77713          	andi	a4,a4,255
    813e:	4491                	li	s1,4
    8140:	4401                	li	s0,0
    8142:	4b05                	li	s6,1
    8144:	009ada93          	srli	s5,s5,0x9
    8148:	01f5d913          	srli	s2,a1,0x1f
    814c:	f731                	bnez	a4,8098 <__mulsf3+0x5a>
    814e:	000a9d63          	bnez	s5,8168 <__mulsf3+0x12a>
    8152:	0014e493          	ori	s1,s1,1
    8156:	4605                	li	a2,1
    8158:	bfa9                	j	80b2 <__mulsf3+0x74>
    815a:	02099263          	bnez	s3,817e <__mulsf3+0x140>
    815e:	44a1                	li	s1,8
    8160:	0ff00413          	li	s0,255
    8164:	4b09                	li	s6,2
    8166:	bf31                	j	8082 <__mulsf3+0x44>
    8168:	8556                	mv	a0,s5
    816a:	2521                	jal	8772 <__clzsi2>
    816c:	ffb50793          	addi	a5,a0,-5
    8170:	8c09                	sub	s0,s0,a0
    8172:	00fa9ab3          	sll	s5,s5,a5
    8176:	f8a40413          	addi	s0,s0,-118
    817a:	4601                	li	a2,0
    817c:	bf1d                	j	80b2 <__mulsf3+0x74>
    817e:	44b1                	li	s1,12
    8180:	0ff00413          	li	s0,255
    8184:	4b0d                	li	s6,3
    8186:	bdf5                	j	8082 <__mulsf3+0x44>
    8188:	854e                	mv	a0,s3
    818a:	c62e                	sw	a1,12(sp)
    818c:	23dd                	jal	8772 <__clzsi2>
    818e:	ffb50793          	addi	a5,a0,-5
    8192:	f8a00413          	li	s0,-118
    8196:	00f999b3          	sll	s3,s3,a5
    819a:	8c09                	sub	s0,s0,a0
    819c:	4481                	li	s1,0
    819e:	4b01                	li	s6,0
    81a0:	45b2                	lw	a1,12(sp)
    81a2:	b5c5                	j	8082 <__mulsf3+0x44>
    81a4:	0034e493          	ori	s1,s1,3
    81a8:	460d                	li	a2,3
    81aa:	b721                	j	80b2 <__mulsf3+0x74>
    81ac:	4789                	li	a5,2
    81ae:	86d2                	mv	a3,s4
    81b0:	f6fb15e3          	bne	s6,a5,811a <__mulsf3+0xdc>
    81b4:	8536                	mv	a0,a3
    81b6:	0ff00713          	li	a4,255
    81ba:	4781                	li	a5,0
    81bc:	bf0d                	j	80ee <__mulsf3+0xb0>
    81be:	6341                	lui	t1,0x10
    81c0:	fff30693          	addi	a3,t1,-1 # ffff <_data_lma+0x5803>
    81c4:	0109d613          	srli	a2,s3,0x10
    81c8:	010ad893          	srli	a7,s5,0x10
    81cc:	00d9f7b3          	and	a5,s3,a3
    81d0:	00dafab3          	and	s5,s5,a3
    81d4:	03578833          	mul	a6,a5,s5
    81d8:	02f889b3          	mul	s3,a7,a5
    81dc:	01085713          	srli	a4,a6,0x10
    81e0:	03560ab3          	mul	s5,a2,s5
    81e4:	99d6                	add	s3,s3,s5
    81e6:	974e                	add	a4,a4,s3
    81e8:	03160633          	mul	a2,a2,a7
    81ec:	01577363          	bgeu	a4,s5,81f2 <__mulsf3+0x1b4>
    81f0:	961a                	add	a2,a2,t1
    81f2:	67c1                	lui	a5,0x10
    81f4:	17fd                	addi	a5,a5,-1
    81f6:	00f776b3          	and	a3,a4,a5
    81fa:	00f87833          	and	a6,a6,a5
    81fe:	06c2                	slli	a3,a3,0x10
    8200:	96c2                	add	a3,a3,a6
    8202:	00669993          	slli	s3,a3,0x6
    8206:	01075793          	srli	a5,a4,0x10
    820a:	013039b3          	snez	s3,s3
    820e:	82e9                	srli	a3,a3,0x1a
    8210:	97b2                	add	a5,a5,a2
    8212:	079a                	slli	a5,a5,0x6
    8214:	00d9e6b3          	or	a3,s3,a3
    8218:	00d7e9b3          	or	s3,a5,a3
    821c:	00499793          	slli	a5,s3,0x4
    8220:	0007d963          	bgez	a5,8232 <__mulsf3+0x1f4>
    8224:	0019d713          	srli	a4,s3,0x1
    8228:	0019f793          	andi	a5,s3,1
    822c:	00f769b3          	or	s3,a4,a5
    8230:	842e                	mv	s0,a1
    8232:	07f40713          	addi	a4,s0,127
    8236:	04e05063          	blez	a4,8276 <__mulsf3+0x238>
    823a:	0079f793          	andi	a5,s3,7
    823e:	c799                	beqz	a5,824c <__mulsf3+0x20e>
    8240:	00f9f793          	andi	a5,s3,15
    8244:	4691                	li	a3,4
    8246:	00d78363          	beq	a5,a3,824c <__mulsf3+0x20e>
    824a:	0991                	addi	s3,s3,4
    824c:	00499793          	slli	a5,s3,0x4
    8250:	0007d963          	bgez	a5,8262 <__mulsf3+0x224>
    8254:	f80007b7          	lui	a5,0xf8000
    8258:	17fd                	addi	a5,a5,-1
    825a:	00f9f9b3          	and	s3,s3,a5
    825e:	08040713          	addi	a4,s0,128
    8262:	0fe00793          	li	a5,254
    8266:	04e7cb63          	blt	a5,a4,82bc <__mulsf3+0x27e>
    826a:	00699793          	slli	a5,s3,0x6
    826e:	83a5                	srli	a5,a5,0x9
    8270:	0ff77713          	andi	a4,a4,255
    8274:	bdad                	j	80ee <__mulsf3+0xb0>
    8276:	4785                	li	a5,1
    8278:	40e786b3          	sub	a3,a5,a4
    827c:	c711                	beqz	a4,8288 <__mulsf3+0x24a>
    827e:	466d                	li	a2,27
    8280:	4701                	li	a4,0
    8282:	4781                	li	a5,0
    8284:	e6d645e3          	blt	a2,a3,80ee <__mulsf3+0xb0>
    8288:	09e40713          	addi	a4,s0,158
    828c:	00e99733          	sll	a4,s3,a4
    8290:	00e03733          	snez	a4,a4
    8294:	00d9d7b3          	srl	a5,s3,a3
    8298:	8fd9                	or	a5,a5,a4
    829a:	0077f713          	andi	a4,a5,7
    829e:	c719                	beqz	a4,82ac <__mulsf3+0x26e>
    82a0:	00f7f713          	andi	a4,a5,15
    82a4:	4691                	li	a3,4
    82a6:	00d70363          	beq	a4,a3,82ac <__mulsf3+0x26e>
    82aa:	0791                	addi	a5,a5,4
    82ac:	00579713          	slli	a4,a5,0x5
    82b0:	00074c63          	bltz	a4,82c8 <__mulsf3+0x28a>
    82b4:	079a                	slli	a5,a5,0x6
    82b6:	83a5                	srli	a5,a5,0x9
    82b8:	4701                	li	a4,0
    82ba:	bd15                	j	80ee <__mulsf3+0xb0>
    82bc:	0ff00713          	li	a4,255
    82c0:	4781                	li	a5,0
    82c2:	b535                	j	80ee <__mulsf3+0xb0>
    82c4:	842e                	mv	s0,a1
    82c6:	b7b5                	j	8232 <__mulsf3+0x1f4>
    82c8:	4705                	li	a4,1
    82ca:	4781                	li	a5,0
    82cc:	b50d                	j	80ee <__mulsf3+0xb0>

000082ce <__subsf3>:
    82ce:	00800737          	lui	a4,0x800
    82d2:	1141                	addi	sp,sp,-16
    82d4:	177d                	addi	a4,a4,-1
    82d6:	01755693          	srli	a3,a0,0x17
    82da:	0175d813          	srli	a6,a1,0x17
    82de:	00a777b3          	and	a5,a4,a0
    82e2:	0ff6f693          	andi	a3,a3,255
    82e6:	01f55e93          	srli	t4,a0,0x1f
    82ea:	00b77633          	and	a2,a4,a1
    82ee:	c226                	sw	s1,4(sp)
    82f0:	c04a                	sw	s2,0(sp)
    82f2:	0ff87813          	andi	a6,a6,255
    82f6:	c606                	sw	ra,12(sp)
    82f8:	c422                	sw	s0,8(sp)
    82fa:	0ff00313          	li	t1,255
    82fe:	8e3e                	mv	t3,a5
    8300:	8936                	mv	s2,a3
    8302:	84f6                	mv	s1,t4
    8304:	00379f13          	slli	t5,a5,0x3
    8308:	81fd                	srli	a1,a1,0x1f
    830a:	00361513          	slli	a0,a2,0x3
    830e:	410688b3          	sub	a7,a3,a6
    8312:	10680263          	beq	a6,t1,8416 <__subsf3+0x148>
    8316:	0015c593          	xori	a1,a1,1
    831a:	10be8c63          	beq	t4,a1,8432 <__subsf3+0x164>
    831e:	0d105463          	blez	a7,83e6 <__subsf3+0x118>
    8322:	10081063          	bnez	a6,8422 <__subsf3+0x154>
    8326:	1e050463          	beqz	a0,850e <__subsf3+0x240>
    832a:	18fd                	addi	a7,a7,-1
    832c:	40af07b3          	sub	a5,t5,a0
    8330:	02088663          	beqz	a7,835c <__subsf3+0x8e>
    8334:	0ff00793          	li	a5,255
    8338:	16f68863          	beq	a3,a5,84a8 <__subsf3+0x1da>
    833c:	47ed                	li	a5,27
    833e:	2917c763          	blt	a5,a7,85cc <__subsf3+0x2fe>
    8342:	02000713          	li	a4,32
    8346:	41170733          	sub	a4,a4,a7
    834a:	00e51733          	sll	a4,a0,a4
    834e:	011557b3          	srl	a5,a0,a7
    8352:	00e03733          	snez	a4,a4
    8356:	8fd9                	or	a5,a5,a4
    8358:	40ff07b3          	sub	a5,t5,a5
    835c:	00579713          	slli	a4,a5,0x5
    8360:	1a075163          	bgez	a4,8502 <__subsf3+0x234>
    8364:	04000437          	lui	s0,0x4000
    8368:	147d                	addi	s0,s0,-1
    836a:	8c7d                	and	s0,s0,a5
    836c:	8522                	mv	a0,s0
    836e:	2111                	jal	8772 <__clzsi2>
    8370:	156d                	addi	a0,a0,-5
    8372:	00a417b3          	sll	a5,s0,a0
    8376:	1b254e63          	blt	a0,s2,8532 <__subsf3+0x264>
    837a:	41250533          	sub	a0,a0,s2
    837e:	00150413          	addi	s0,a0,1
    8382:	02000713          	li	a4,32
    8386:	8f01                	sub	a4,a4,s0
    8388:	00e79733          	sll	a4,a5,a4
    838c:	00e03733          	snez	a4,a4
    8390:	0087d7b3          	srl	a5,a5,s0
    8394:	8fd9                	or	a5,a5,a4
    8396:	4901                	li	s2,0
    8398:	0077f713          	andi	a4,a5,7
    839c:	c719                	beqz	a4,83aa <__subsf3+0xdc>
    839e:	00f7f713          	andi	a4,a5,15
    83a2:	4691                	li	a3,4
    83a4:	00d70363          	beq	a4,a3,83aa <__subsf3+0xdc>
    83a8:	0791                	addi	a5,a5,4
    83aa:	00579713          	slli	a4,a5,0x5
    83ae:	14075e63          	bgez	a4,850a <__subsf3+0x23c>
    83b2:	00190693          	addi	a3,s2,1 # 800001 <_data_lma+0x7f5805>
    83b6:	0ff00713          	li	a4,255
    83ba:	0014fe93          	andi	t4,s1,1
    83be:	16e68663          	beq	a3,a4,852a <__subsf3+0x25c>
    83c2:	079a                	slli	a5,a5,0x6
    83c4:	83a5                	srli	a5,a5,0x9
    83c6:	0ff6f693          	andi	a3,a3,255
    83ca:	07a6                	slli	a5,a5,0x9
    83cc:	40b2                	lw	ra,12(sp)
    83ce:	4422                	lw	s0,8(sp)
    83d0:	0097d513          	srli	a0,a5,0x9
    83d4:	06de                	slli	a3,a3,0x17
    83d6:	01fe9793          	slli	a5,t4,0x1f
    83da:	8d55                	or	a0,a0,a3
    83dc:	4492                	lw	s1,4(sp)
    83de:	4902                	lw	s2,0(sp)
    83e0:	8d5d                	or	a0,a0,a5
    83e2:	0141                	addi	sp,sp,16
    83e4:	8082                	ret
    83e6:	0a089263          	bnez	a7,848a <__subsf3+0x1bc>
    83ea:	00168713          	addi	a4,a3,1 # 7e000001 <_eusrstack+0x5dff0001>
    83ee:	0fe77713          	andi	a4,a4,254
    83f2:	14071b63          	bnez	a4,8548 <__subsf3+0x27a>
    83f6:	22069463          	bnez	a3,861e <__subsf3+0x350>
    83fa:	200f0263          	beqz	t5,85fe <__subsf3+0x330>
    83fe:	d571                	beqz	a0,83ca <__subsf3+0xfc>
    8400:	40af07b3          	sub	a5,t5,a0
    8404:	00579713          	slli	a4,a5,0x5
    8408:	22075563          	bgez	a4,8632 <__subsf3+0x364>
    840c:	41e507b3          	sub	a5,a0,t5
    8410:	4901                	li	s2,0
    8412:	84ae                	mv	s1,a1
    8414:	b751                	j	8398 <__subsf3+0xca>
    8416:	f00500e3          	beqz	a0,8316 <__subsf3+0x48>
    841a:	0abe8a63          	beq	t4,a1,84ce <__subsf3+0x200>
    841e:	fd1054e3          	blez	a7,83e6 <__subsf3+0x118>
    8422:	0ff00793          	li	a5,255
    8426:	08f68163          	beq	a3,a5,84a8 <__subsf3+0x1da>
    842a:	040007b7          	lui	a5,0x4000
    842e:	8d5d                	or	a0,a0,a5
    8430:	b731                	j	833c <__subsf3+0x6e>
    8432:	09105e63          	blez	a7,84ce <__subsf3+0x200>
    8436:	08080163          	beqz	a6,84b8 <__subsf3+0x1ea>
    843a:	0ff00793          	li	a5,255
    843e:	06f68563          	beq	a3,a5,84a8 <__subsf3+0x1da>
    8442:	040007b7          	lui	a5,0x4000
    8446:	8d5d                	or	a0,a0,a5
    8448:	47ed                	li	a5,27
    844a:	1f17c063          	blt	a5,a7,862a <__subsf3+0x35c>
    844e:	02000713          	li	a4,32
    8452:	41170733          	sub	a4,a4,a7
    8456:	00e51733          	sll	a4,a0,a4
    845a:	011557b3          	srl	a5,a0,a7
    845e:	00e03733          	snez	a4,a4
    8462:	8fd9                	or	a5,a5,a4
    8464:	97fa                	add	a5,a5,t5
    8466:	00579713          	slli	a4,a5,0x5
    846a:	08075c63          	bgez	a4,8502 <__subsf3+0x234>
    846e:	0905                	addi	s2,s2,1
    8470:	0ff00713          	li	a4,255
    8474:	0ae90b63          	beq	s2,a4,852a <__subsf3+0x25c>
    8478:	7e0006b7          	lui	a3,0x7e000
    847c:	0017d713          	srli	a4,a5,0x1
    8480:	16fd                	addi	a3,a3,-1
    8482:	8b85                	andi	a5,a5,1
    8484:	8f75                	and	a4,a4,a3
    8486:	8fd9                	or	a5,a5,a4
    8488:	bf01                	j	8398 <__subsf3+0xca>
    848a:	40d80733          	sub	a4,a6,a3
    848e:	10069563          	bnez	a3,8598 <__subsf3+0x2ca>
    8492:	140f0d63          	beqz	t5,85ec <__subsf3+0x31e>
    8496:	177d                	addi	a4,a4,-1
    8498:	1a070363          	beqz	a4,863e <__subsf3+0x370>
    849c:	0ff00793          	li	a5,255
    84a0:	10f81463          	bne	a6,a5,85a8 <__subsf3+0x2da>
    84a4:	84ae                	mv	s1,a1
    84a6:	8e32                	mv	t3,a2
    84a8:	060e0f63          	beqz	t3,8526 <__subsf3+0x258>
    84ac:	4e81                	li	t4,0
    84ae:	0ff00693          	li	a3,255
    84b2:	004007b7          	lui	a5,0x400
    84b6:	bf11                	j	83ca <__subsf3+0xfc>
    84b8:	c939                	beqz	a0,850e <__subsf3+0x240>
    84ba:	18fd                	addi	a7,a7,-1
    84bc:	00af07b3          	add	a5,t5,a0
    84c0:	fa0883e3          	beqz	a7,8466 <__subsf3+0x198>
    84c4:	0ff00793          	li	a5,255
    84c8:	f8f690e3          	bne	a3,a5,8448 <__subsf3+0x17a>
    84cc:	bff1                	j	84a8 <__subsf3+0x1da>
    84ce:	08089963          	bnez	a7,8560 <__subsf3+0x292>
    84d2:	00168913          	addi	s2,a3,1 # 7e000001 <_eusrstack+0x5dff0001>
    84d6:	0fe97713          	andi	a4,s2,254
    84da:	12071663          	bnez	a4,8606 <__subsf3+0x338>
    84de:	10069b63          	bnez	a3,85f4 <__subsf3+0x326>
    84e2:	160f0363          	beqz	t5,8648 <__subsf3+0x37a>
    84e6:	ee0502e3          	beqz	a0,83ca <__subsf3+0xfc>
    84ea:	00af07b3          	add	a5,t5,a0
    84ee:	00579713          	slli	a4,a5,0x5
    84f2:	4901                	li	s2,0
    84f4:	00075763          	bgez	a4,8502 <__subsf3+0x234>
    84f8:	fc000737          	lui	a4,0xfc000
    84fc:	177d                	addi	a4,a4,-1
    84fe:	8ff9                	and	a5,a5,a4
    8500:	4905                	li	s2,1
    8502:	0077f713          	andi	a4,a5,7
    8506:	e8071ce3          	bnez	a4,839e <__subsf3+0xd0>
    850a:	0037de13          	srli	t3,a5,0x3
    850e:	0ff00793          	li	a5,255
    8512:	f8f90be3          	beq	s2,a5,84a8 <__subsf3+0x1da>
    8516:	009e1793          	slli	a5,t3,0x9
    851a:	83a5                	srli	a5,a5,0x9
    851c:	0ff97693          	andi	a3,s2,255
    8520:	0014fe93          	andi	t4,s1,1
    8524:	b55d                	j	83ca <__subsf3+0xfc>
    8526:	0014fe93          	andi	t4,s1,1
    852a:	0ff00693          	li	a3,255
    852e:	4781                	li	a5,0
    8530:	bd69                	j	83ca <__subsf3+0xfc>
    8532:	fc000737          	lui	a4,0xfc000
    8536:	177d                	addi	a4,a4,-1
    8538:	8ff9                	and	a5,a5,a4
    853a:	0077f713          	andi	a4,a5,7
    853e:	40a90933          	sub	s2,s2,a0
    8542:	e4071ee3          	bnez	a4,839e <__subsf3+0xd0>
    8546:	b7d1                	j	850a <__subsf3+0x23c>
    8548:	40af0433          	sub	s0,t5,a0
    854c:	00541793          	slli	a5,s0,0x5
    8550:	0c07c363          	bltz	a5,8616 <__subsf3+0x348>
    8554:	e0041ce3          	bnez	s0,836c <__subsf3+0x9e>
    8558:	4e81                	li	t4,0
    855a:	4681                	li	a3,0
    855c:	4781                	li	a5,0
    855e:	b5b5                	j	83ca <__subsf3+0xfc>
    8560:	40d80733          	sub	a4,a6,a3
    8564:	c6b5                	beqz	a3,85d0 <__subsf3+0x302>
    8566:	0ff00793          	li	a5,255
    856a:	f2f80ee3          	beq	a6,a5,84a6 <__subsf3+0x1d8>
    856e:	040007b7          	lui	a5,0x4000
    8572:	00ff6f33          	or	t5,t5,a5
    8576:	47ed                	li	a5,27
    8578:	0ce7cd63          	blt	a5,a4,8652 <__subsf3+0x384>
    857c:	02000793          	li	a5,32
    8580:	8f99                	sub	a5,a5,a4
    8582:	00ff17b3          	sll	a5,t5,a5
    8586:	00ef5733          	srl	a4,t5,a4
    858a:	00f037b3          	snez	a5,a5
    858e:	8f5d                	or	a4,a4,a5
    8590:	00a707b3          	add	a5,a4,a0
    8594:	8942                	mv	s2,a6
    8596:	bdc1                	j	8466 <__subsf3+0x198>
    8598:	0ff00793          	li	a5,255
    859c:	f0f804e3          	beq	a6,a5,84a4 <__subsf3+0x1d6>
    85a0:	040007b7          	lui	a5,0x4000
    85a4:	00ff6f33          	or	t5,t5,a5
    85a8:	47ed                	li	a5,27
    85aa:	08e7c263          	blt	a5,a4,862e <__subsf3+0x360>
    85ae:	02000793          	li	a5,32
    85b2:	8f99                	sub	a5,a5,a4
    85b4:	00ff17b3          	sll	a5,t5,a5
    85b8:	00ef5733          	srl	a4,t5,a4
    85bc:	00f037b3          	snez	a5,a5
    85c0:	8fd9                	or	a5,a5,a4
    85c2:	40f507b3          	sub	a5,a0,a5
    85c6:	8942                	mv	s2,a6
    85c8:	84ae                	mv	s1,a1
    85ca:	bb49                	j	835c <__subsf3+0x8e>
    85cc:	4785                	li	a5,1
    85ce:	b369                	j	8358 <__subsf3+0x8a>
    85d0:	060f0e63          	beqz	t5,864c <__subsf3+0x37e>
    85d4:	177d                	addi	a4,a4,-1
    85d6:	00af07b3          	add	a5,t5,a0
    85da:	8942                	mv	s2,a6
    85dc:	e80705e3          	beqz	a4,8466 <__subsf3+0x198>
    85e0:	0ff00793          	li	a5,255
    85e4:	f8f819e3          	bne	a6,a5,8576 <__subsf3+0x2a8>
    85e8:	8e32                	mv	t3,a2
    85ea:	bd7d                	j	84a8 <__subsf3+0x1da>
    85ec:	8e32                	mv	t3,a2
    85ee:	8942                	mv	s2,a6
    85f0:	84ae                	mv	s1,a1
    85f2:	bf31                	j	850e <__subsf3+0x240>
    85f4:	ea0f09e3          	beqz	t5,84a6 <__subsf3+0x1d8>
    85f8:	ea0508e3          	beqz	a0,84a8 <__subsf3+0x1da>
    85fc:	bd45                	j	84ac <__subsf3+0x1de>
    85fe:	cd0d                	beqz	a0,8638 <__subsf3+0x36a>
    8600:	8eae                	mv	t4,a1
    8602:	87b2                	mv	a5,a2
    8604:	b3d9                	j	83ca <__subsf3+0xfc>
    8606:	0ff00793          	li	a5,255
    860a:	f2f900e3          	beq	s2,a5,852a <__subsf3+0x25c>
    860e:	00af07b3          	add	a5,t5,a0
    8612:	8385                	srli	a5,a5,0x1
    8614:	b5fd                	j	8502 <__subsf3+0x234>
    8616:	41e50433          	sub	s0,a0,t5
    861a:	84ae                	mv	s1,a1
    861c:	bb81                	j	836c <__subsf3+0x9e>
    861e:	fc0f1de3          	bnez	t5,85f8 <__subsf3+0x32a>
    8622:	e80505e3          	beqz	a0,84ac <__subsf3+0x1de>
    8626:	84ae                	mv	s1,a1
    8628:	bdbd                	j	84a6 <__subsf3+0x1d8>
    862a:	4785                	li	a5,1
    862c:	bd25                	j	8464 <__subsf3+0x196>
    862e:	4785                	li	a5,1
    8630:	bf49                	j	85c2 <__subsf3+0x2f4>
    8632:	4901                	li	s2,0
    8634:	ec0797e3          	bnez	a5,8502 <__subsf3+0x234>
    8638:	4e81                	li	t4,0
    863a:	4781                	li	a5,0
    863c:	b379                	j	83ca <__subsf3+0xfc>
    863e:	41e507b3          	sub	a5,a0,t5
    8642:	8942                	mv	s2,a6
    8644:	84ae                	mv	s1,a1
    8646:	bb19                	j	835c <__subsf3+0x8e>
    8648:	87b2                	mv	a5,a2
    864a:	b341                	j	83ca <__subsf3+0xfc>
    864c:	8e32                	mv	t3,a2
    864e:	8942                	mv	s2,a6
    8650:	bd7d                	j	850e <__subsf3+0x240>
    8652:	4705                	li	a4,1
    8654:	bf35                	j	8590 <__subsf3+0x2c2>

00008656 <__fixunssfsi>:
    8656:	01755713          	srli	a4,a0,0x17
    865a:	00800637          	lui	a2,0x800
    865e:	fff60793          	addi	a5,a2,-1 # 7fffff <_data_lma+0x7f5803>
    8662:	0ff77713          	andi	a4,a4,255
    8666:	07e00593          	li	a1,126
    866a:	00a7f6b3          	and	a3,a5,a0
    866e:	01f55793          	srli	a5,a0,0x1f
    8672:	4501                	li	a0,0
    8674:	00e5f463          	bgeu	a1,a4,867c <__fixunssfsi+0x26>
    8678:	c399                	beqz	a5,867e <__fixunssfsi+0x28>
    867a:	8082                	ret
    867c:	8082                	ret
    867e:	09e00793          	li	a5,158
    8682:	557d                	li	a0,-1
    8684:	fee7ebe3          	bltu	a5,a4,867a <__fixunssfsi+0x24>
    8688:	09500593          	li	a1,149
    868c:	00c6e7b3          	or	a5,a3,a2
    8690:	00e5d763          	bge	a1,a4,869e <__fixunssfsi+0x48>
    8694:	f6a70713          	addi	a4,a4,-150 # fbffff6a <_eusrstack+0xdbfeff6a>
    8698:	00e79533          	sll	a0,a5,a4
    869c:	8082                	ret
    869e:	09600513          	li	a0,150
    86a2:	40e50733          	sub	a4,a0,a4
    86a6:	00e7d533          	srl	a0,a5,a4
    86aa:	8082                	ret

000086ac <__floatsisf>:
    86ac:	1141                	addi	sp,sp,-16
    86ae:	c606                	sw	ra,12(sp)
    86b0:	c422                	sw	s0,8(sp)
    86b2:	c226                	sw	s1,4(sp)
    86b4:	cd0d                	beqz	a0,86ee <__floatsisf+0x42>
    86b6:	41f55793          	srai	a5,a0,0x1f
    86ba:	00a7c433          	xor	s0,a5,a0
    86be:	8c1d                	sub	s0,s0,a5
    86c0:	84aa                	mv	s1,a0
    86c2:	8522                	mv	a0,s0
    86c4:	207d                	jal	8772 <__clzsi2>
    86c6:	09e00793          	li	a5,158
    86ca:	40a78733          	sub	a4,a5,a0
    86ce:	09600793          	li	a5,150
    86d2:	80fd                	srli	s1,s1,0x1f
    86d4:	02e7cc63          	blt	a5,a4,870c <__floatsisf+0x60>
    86d8:	46a1                	li	a3,8
    86da:	0ff77793          	andi	a5,a4,255
    86de:	00a6d563          	bge	a3,a0,86e8 <__floatsisf+0x3c>
    86e2:	1561                	addi	a0,a0,-8
    86e4:	00a41433          	sll	s0,s0,a0
    86e8:	0426                	slli	s0,s0,0x9
    86ea:	8025                	srli	s0,s0,0x9
    86ec:	a021                	j	86f4 <__floatsisf+0x48>
    86ee:	4481                	li	s1,0
    86f0:	4781                	li	a5,0
    86f2:	4401                	li	s0,0
    86f4:	0426                	slli	s0,s0,0x9
    86f6:	00945513          	srli	a0,s0,0x9
    86fa:	40b2                	lw	ra,12(sp)
    86fc:	4422                	lw	s0,8(sp)
    86fe:	07de                	slli	a5,a5,0x17
    8700:	04fe                	slli	s1,s1,0x1f
    8702:	8d5d                	or	a0,a0,a5
    8704:	8d45                	or	a0,a0,s1
    8706:	4492                	lw	s1,4(sp)
    8708:	0141                	addi	sp,sp,16
    870a:	8082                	ret
    870c:	09900793          	li	a5,153
    8710:	00e7dd63          	bge	a5,a4,872a <__floatsisf+0x7e>
    8714:	01b50793          	addi	a5,a0,27
    8718:	4695                	li	a3,5
    871a:	00f417b3          	sll	a5,s0,a5
    871e:	8e89                	sub	a3,a3,a0
    8720:	00d45433          	srl	s0,s0,a3
    8724:	00f037b3          	snez	a5,a5
    8728:	8c5d                	or	s0,s0,a5
    872a:	4795                	li	a5,5
    872c:	00a7d663          	bge	a5,a0,8738 <__floatsisf+0x8c>
    8730:	ffb50793          	addi	a5,a0,-5
    8734:	00f41433          	sll	s0,s0,a5
    8738:	fc0006b7          	lui	a3,0xfc000
    873c:	16fd                	addi	a3,a3,-1
    873e:	00747793          	andi	a5,s0,7
    8742:	00d47633          	and	a2,s0,a3
    8746:	c385                	beqz	a5,8766 <__floatsisf+0xba>
    8748:	00f47793          	andi	a5,s0,15
    874c:	4591                	li	a1,4
    874e:	00b78c63          	beq	a5,a1,8766 <__floatsisf+0xba>
    8752:	0611                	addi	a2,a2,4
    8754:	00561793          	slli	a5,a2,0x5
    8758:	0007d763          	bgez	a5,8766 <__floatsisf+0xba>
    875c:	09f00793          	li	a5,159
    8760:	8e75                	and	a2,a2,a3
    8762:	40a78733          	sub	a4,a5,a0
    8766:	00661413          	slli	s0,a2,0x6
    876a:	8025                	srli	s0,s0,0x9
    876c:	0ff77793          	andi	a5,a4,255
    8770:	b751                	j	86f4 <__floatsisf+0x48>

00008772 <__clzsi2>:
    8772:	67c1                	lui	a5,0x10
    8774:	02f57e63          	bgeu	a0,a5,87b0 <__clzsi2+0x3e>
    8778:	0ff00793          	li	a5,255
    877c:	02000713          	li	a4,32
    8780:	00a7ec63          	bltu	a5,a0,8798 <__clzsi2+0x26>
    8784:	00002797          	auipc	a5,0x2
    8788:	e9c78793          	addi	a5,a5,-356 # a620 <__clz_tab>
    878c:	97aa                	add	a5,a5,a0
    878e:	0007c503          	lbu	a0,0(a5)
    8792:	40a70533          	sub	a0,a4,a0
    8796:	8082                	ret
    8798:	8121                	srli	a0,a0,0x8
    879a:	00002797          	auipc	a5,0x2
    879e:	e8678793          	addi	a5,a5,-378 # a620 <__clz_tab>
    87a2:	97aa                	add	a5,a5,a0
    87a4:	0007c503          	lbu	a0,0(a5)
    87a8:	4761                	li	a4,24
    87aa:	40a70533          	sub	a0,a4,a0
    87ae:	8082                	ret
    87b0:	010007b7          	lui	a5,0x1000
    87b4:	00f56e63          	bltu	a0,a5,87d0 <__clzsi2+0x5e>
    87b8:	8161                	srli	a0,a0,0x18
    87ba:	00002797          	auipc	a5,0x2
    87be:	e6678793          	addi	a5,a5,-410 # a620 <__clz_tab>
    87c2:	97aa                	add	a5,a5,a0
    87c4:	0007c503          	lbu	a0,0(a5)
    87c8:	4721                	li	a4,8
    87ca:	40a70533          	sub	a0,a4,a0
    87ce:	8082                	ret
    87d0:	8141                	srli	a0,a0,0x10
    87d2:	00002797          	auipc	a5,0x2
    87d6:	e4e78793          	addi	a5,a5,-434 # a620 <__clz_tab>
    87da:	97aa                	add	a5,a5,a0
    87dc:	0007c503          	lbu	a0,0(a5)
    87e0:	4741                	li	a4,16
    87e2:	40a70533          	sub	a0,a4,a0
    87e6:	8082                	ret

000087e8 <__assert_func>:
    87e8:	83c18793          	addi	a5,gp,-1988 # 200001c4 <_impure_ptr>
    87ec:	439c                	lw	a5,0(a5)
    87ee:	1141                	addi	sp,sp,-16
    87f0:	8832                	mv	a6,a2
    87f2:	c606                	sw	ra,12(sp)
    87f4:	88aa                	mv	a7,a0
    87f6:	872e                	mv	a4,a1
    87f8:	47c8                	lw	a0,12(a5)
    87fa:	8636                	mv	a2,a3
    87fc:	00002797          	auipc	a5,0x2
    8800:	f2478793          	addi	a5,a5,-220 # a720 <__clz_tab+0x100>
    8804:	00081763          	bnez	a6,8812 <__assert_func+0x2a>
    8808:	00001797          	auipc	a5,0x1
    880c:	55478793          	addi	a5,a5,1364 # 9d5c <__func__.6409+0xa8>
    8810:	883e                	mv	a6,a5
    8812:	86c6                	mv	a3,a7
    8814:	00002597          	auipc	a1,0x2
    8818:	f1c58593          	addi	a1,a1,-228 # a730 <__clz_tab+0x110>
    881c:	2019                	jal	8822 <fiprintf>
    881e:	459000ef          	jal	ra,9476 <abort>

00008822 <fiprintf>:
    8822:	7139                	addi	sp,sp,-64
    8824:	d432                	sw	a2,40(sp)
    8826:	d636                	sw	a3,44(sp)
    8828:	da3e                	sw	a5,52(sp)
    882a:	d83a                	sw	a4,48(sp)
    882c:	dc42                	sw	a6,56(sp)
    882e:	de46                	sw	a7,60(sp)
    8830:	83c18793          	addi	a5,gp,-1988 # 200001c4 <_impure_ptr>
    8834:	862e                	mv	a2,a1
    8836:	85aa                	mv	a1,a0
    8838:	4388                	lw	a0,0(a5)
    883a:	1034                	addi	a3,sp,40
    883c:	ce06                	sw	ra,28(sp)
    883e:	c636                	sw	a3,12(sp)
    8840:	2c65                	jal	8af8 <_vfiprintf_r>
    8842:	40f2                	lw	ra,28(sp)
    8844:	6121                	addi	sp,sp,64
    8846:	8082                	ret

00008848 <malloc>:
    8848:	83c18793          	addi	a5,gp,-1988 # 200001c4 <_impure_ptr>
    884c:	85aa                	mv	a1,a0
    884e:	4388                	lw	a0,0(a5)
    8850:	a285                	j	89b0 <_malloc_r>

00008852 <memcpy>:
    8852:	00a5c7b3          	xor	a5,a1,a0
    8856:	8b8d                	andi	a5,a5,3
    8858:	00c50733          	add	a4,a0,a2
    885c:	e781                	bnez	a5,8864 <memcpy+0x12>
    885e:	478d                	li	a5,3
    8860:	00c7ee63          	bltu	a5,a2,887c <memcpy+0x2a>
    8864:	87aa                	mv	a5,a0
    8866:	0ae57063          	bgeu	a0,a4,8906 <memcpy+0xb4>
    886a:	0005c683          	lbu	a3,0(a1)
    886e:	0785                	addi	a5,a5,1
    8870:	0585                	addi	a1,a1,1
    8872:	fed78fa3          	sb	a3,-1(a5)
    8876:	fee7eae3          	bltu	a5,a4,886a <memcpy+0x18>
    887a:	8082                	ret
    887c:	00357693          	andi	a3,a0,3
    8880:	87aa                	mv	a5,a0
    8882:	ca91                	beqz	a3,8896 <memcpy+0x44>
    8884:	0005c683          	lbu	a3,0(a1)
    8888:	0785                	addi	a5,a5,1
    888a:	0585                	addi	a1,a1,1
    888c:	fed78fa3          	sb	a3,-1(a5)
    8890:	0037f693          	andi	a3,a5,3
    8894:	b7fd                	j	8882 <memcpy+0x30>
    8896:	ffc77693          	andi	a3,a4,-4
    889a:	fe068613          	addi	a2,a3,-32 # fbffffe0 <_eusrstack+0xdbfeffe0>
    889e:	06c7f063          	bgeu	a5,a2,88fe <memcpy+0xac>
    88a2:	0005a383          	lw	t2,0(a1)
    88a6:	0045a283          	lw	t0,4(a1)
    88aa:	0085af83          	lw	t6,8(a1)
    88ae:	00c5af03          	lw	t5,12(a1)
    88b2:	0105ae83          	lw	t4,16(a1)
    88b6:	0145ae03          	lw	t3,20(a1)
    88ba:	0185a303          	lw	t1,24(a1)
    88be:	01c5a883          	lw	a7,28(a1)
    88c2:	02458593          	addi	a1,a1,36
    88c6:	0077a023          	sw	t2,0(a5)
    88ca:	ffc5a803          	lw	a6,-4(a1)
    88ce:	0057a223          	sw	t0,4(a5)
    88d2:	01f7a423          	sw	t6,8(a5)
    88d6:	01e7a623          	sw	t5,12(a5)
    88da:	01d7a823          	sw	t4,16(a5)
    88de:	01c7aa23          	sw	t3,20(a5)
    88e2:	0067ac23          	sw	t1,24(a5)
    88e6:	0117ae23          	sw	a7,28(a5)
    88ea:	02478793          	addi	a5,a5,36
    88ee:	ff07ae23          	sw	a6,-4(a5)
    88f2:	b775                	j	889e <memcpy+0x4c>
    88f4:	4190                	lw	a2,0(a1)
    88f6:	0791                	addi	a5,a5,4
    88f8:	0591                	addi	a1,a1,4
    88fa:	fec7ae23          	sw	a2,-4(a5)
    88fe:	fed7ebe3          	bltu	a5,a3,88f4 <memcpy+0xa2>
    8902:	f6e7e4e3          	bltu	a5,a4,886a <memcpy+0x18>
    8906:	8082                	ret

00008908 <_free_r>:
    8908:	c1dd                	beqz	a1,89ae <_free_r+0xa6>
    890a:	ffc5a783          	lw	a5,-4(a1)
    890e:	1141                	addi	sp,sp,-16
    8910:	c422                	sw	s0,8(sp)
    8912:	c606                	sw	ra,12(sp)
    8914:	c226                	sw	s1,4(sp)
    8916:	ffc58413          	addi	s0,a1,-4
    891a:	0007d363          	bgez	a5,8920 <_free_r+0x18>
    891e:	943e                	add	s0,s0,a5
    8920:	84aa                	mv	s1,a0
    8922:	04c010ef          	jal	ra,996e <__malloc_lock>
    8926:	87018793          	addi	a5,gp,-1936 # 200001f8 <__malloc_free_list>
    892a:	439c                	lw	a5,0(a5)
    892c:	ef81                	bnez	a5,8944 <_free_r+0x3c>
    892e:	00042223          	sw	zero,4(s0) # 4000004 <_data_lma+0x3ff5808>
    8932:	8681a823          	sw	s0,-1936(gp) # 200001f8 <__malloc_free_list>
    8936:	4422                	lw	s0,8(sp)
    8938:	40b2                	lw	ra,12(sp)
    893a:	8526                	mv	a0,s1
    893c:	4492                	lw	s1,4(sp)
    893e:	0141                	addi	sp,sp,16
    8940:	0300106f          	j	9970 <__malloc_unlock>
    8944:	00f47e63          	bgeu	s0,a5,8960 <_free_r+0x58>
    8948:	4014                	lw	a3,0(s0)
    894a:	00d40733          	add	a4,s0,a3
    894e:	00e79663          	bne	a5,a4,895a <_free_r+0x52>
    8952:	4398                	lw	a4,0(a5)
    8954:	43dc                	lw	a5,4(a5)
    8956:	9736                	add	a4,a4,a3
    8958:	c018                	sw	a4,0(s0)
    895a:	c05c                	sw	a5,4(s0)
    895c:	bfd9                	j	8932 <_free_r+0x2a>
    895e:	87ba                	mv	a5,a4
    8960:	43d8                	lw	a4,4(a5)
    8962:	c319                	beqz	a4,8968 <_free_r+0x60>
    8964:	fee47de3          	bgeu	s0,a4,895e <_free_r+0x56>
    8968:	4394                	lw	a3,0(a5)
    896a:	00d78633          	add	a2,a5,a3
    896e:	00861f63          	bne	a2,s0,898c <_free_r+0x84>
    8972:	4010                	lw	a2,0(s0)
    8974:	96b2                	add	a3,a3,a2
    8976:	c394                	sw	a3,0(a5)
    8978:	00d78633          	add	a2,a5,a3
    897c:	fac71de3          	bne	a4,a2,8936 <_free_r+0x2e>
    8980:	4310                	lw	a2,0(a4)
    8982:	4358                	lw	a4,4(a4)
    8984:	96b2                	add	a3,a3,a2
    8986:	c394                	sw	a3,0(a5)
    8988:	c3d8                	sw	a4,4(a5)
    898a:	b775                	j	8936 <_free_r+0x2e>
    898c:	00c47563          	bgeu	s0,a2,8996 <_free_r+0x8e>
    8990:	47b1                	li	a5,12
    8992:	c09c                	sw	a5,0(s1)
    8994:	b74d                	j	8936 <_free_r+0x2e>
    8996:	4010                	lw	a2,0(s0)
    8998:	00c406b3          	add	a3,s0,a2
    899c:	00d71663          	bne	a4,a3,89a8 <_free_r+0xa0>
    89a0:	4314                	lw	a3,0(a4)
    89a2:	4358                	lw	a4,4(a4)
    89a4:	96b2                	add	a3,a3,a2
    89a6:	c014                	sw	a3,0(s0)
    89a8:	c058                	sw	a4,4(s0)
    89aa:	c3c0                	sw	s0,4(a5)
    89ac:	b769                	j	8936 <_free_r+0x2e>
    89ae:	8082                	ret

000089b0 <_malloc_r>:
    89b0:	1101                	addi	sp,sp,-32
    89b2:	ca26                	sw	s1,20(sp)
    89b4:	00358493          	addi	s1,a1,3
    89b8:	98f1                	andi	s1,s1,-4
    89ba:	ce06                	sw	ra,28(sp)
    89bc:	cc22                	sw	s0,24(sp)
    89be:	c84a                	sw	s2,16(sp)
    89c0:	c64e                	sw	s3,12(sp)
    89c2:	04a1                	addi	s1,s1,8
    89c4:	47b1                	li	a5,12
    89c6:	04f4f563          	bgeu	s1,a5,8a10 <_malloc_r+0x60>
    89ca:	44b1                	li	s1,12
    89cc:	04b4e463          	bltu	s1,a1,8a14 <_malloc_r+0x64>
    89d0:	892a                	mv	s2,a0
    89d2:	79d000ef          	jal	ra,996e <__malloc_lock>
    89d6:	87018793          	addi	a5,gp,-1936 # 200001f8 <__malloc_free_list>
    89da:	4398                	lw	a4,0(a5)
    89dc:	843a                	mv	s0,a4
    89de:	e429                	bnez	s0,8a28 <_malloc_r+0x78>
    89e0:	87418793          	addi	a5,gp,-1932 # 200001fc <__malloc_sbrk_start>
    89e4:	439c                	lw	a5,0(a5)
    89e6:	e799                	bnez	a5,89f4 <_malloc_r+0x44>
    89e8:	4581                	li	a1,0
    89ea:	854a                	mv	a0,s2
    89ec:	08b000ef          	jal	ra,9276 <_sbrk_r>
    89f0:	86a1aa23          	sw	a0,-1932(gp) # 200001fc <__malloc_sbrk_start>
    89f4:	85a6                	mv	a1,s1
    89f6:	854a                	mv	a0,s2
    89f8:	07f000ef          	jal	ra,9276 <_sbrk_r>
    89fc:	59fd                	li	s3,-1
    89fe:	07351963          	bne	a0,s3,8a70 <_malloc_r+0xc0>
    8a02:	47b1                	li	a5,12
    8a04:	00f92023          	sw	a5,0(s2)
    8a08:	854a                	mv	a0,s2
    8a0a:	767000ef          	jal	ra,9970 <__malloc_unlock>
    8a0e:	a029                	j	8a18 <_malloc_r+0x68>
    8a10:	fa04dee3          	bgez	s1,89cc <_malloc_r+0x1c>
    8a14:	47b1                	li	a5,12
    8a16:	c11c                	sw	a5,0(a0)
    8a18:	4501                	li	a0,0
    8a1a:	40f2                	lw	ra,28(sp)
    8a1c:	4462                	lw	s0,24(sp)
    8a1e:	44d2                	lw	s1,20(sp)
    8a20:	4942                	lw	s2,16(sp)
    8a22:	49b2                	lw	s3,12(sp)
    8a24:	6105                	addi	sp,sp,32
    8a26:	8082                	ret
    8a28:	401c                	lw	a5,0(s0)
    8a2a:	8f85                	sub	a5,a5,s1
    8a2c:	0207cf63          	bltz	a5,8a6a <_malloc_r+0xba>
    8a30:	46ad                	li	a3,11
    8a32:	00f6f663          	bgeu	a3,a5,8a3e <_malloc_r+0x8e>
    8a36:	c01c                	sw	a5,0(s0)
    8a38:	943e                	add	s0,s0,a5
    8a3a:	c004                	sw	s1,0(s0)
    8a3c:	a031                	j	8a48 <_malloc_r+0x98>
    8a3e:	405c                	lw	a5,4(s0)
    8a40:	02871363          	bne	a4,s0,8a66 <_malloc_r+0xb6>
    8a44:	86f1a823          	sw	a5,-1936(gp) # 200001f8 <__malloc_free_list>
    8a48:	854a                	mv	a0,s2
    8a4a:	727000ef          	jal	ra,9970 <__malloc_unlock>
    8a4e:	00b40513          	addi	a0,s0,11
    8a52:	00440793          	addi	a5,s0,4
    8a56:	9961                	andi	a0,a0,-8
    8a58:	40f50733          	sub	a4,a0,a5
    8a5c:	df5d                	beqz	a4,8a1a <_malloc_r+0x6a>
    8a5e:	943a                	add	s0,s0,a4
    8a60:	8f89                	sub	a5,a5,a0
    8a62:	c01c                	sw	a5,0(s0)
    8a64:	bf5d                	j	8a1a <_malloc_r+0x6a>
    8a66:	c35c                	sw	a5,4(a4)
    8a68:	b7c5                	j	8a48 <_malloc_r+0x98>
    8a6a:	8722                	mv	a4,s0
    8a6c:	4040                	lw	s0,4(s0)
    8a6e:	bf85                	j	89de <_malloc_r+0x2e>
    8a70:	00350413          	addi	s0,a0,3
    8a74:	9871                	andi	s0,s0,-4
    8a76:	fc8502e3          	beq	a0,s0,8a3a <_malloc_r+0x8a>
    8a7a:	40a405b3          	sub	a1,s0,a0
    8a7e:	854a                	mv	a0,s2
    8a80:	7f6000ef          	jal	ra,9276 <_sbrk_r>
    8a84:	fb351be3          	bne	a0,s3,8a3a <_malloc_r+0x8a>
    8a88:	bfad                	j	8a02 <_malloc_r+0x52>

00008a8a <__sfputc_r>:
    8a8a:	461c                	lw	a5,8(a2)
    8a8c:	17fd                	addi	a5,a5,-1
    8a8e:	c61c                	sw	a5,8(a2)
    8a90:	0007da63          	bgez	a5,8aa4 <__sfputc_r+0x1a>
    8a94:	4e18                	lw	a4,24(a2)
    8a96:	00e7c563          	blt	a5,a4,8aa0 <__sfputc_r+0x16>
    8a9a:	47a9                	li	a5,10
    8a9c:	00f59463          	bne	a1,a5,8aa4 <__sfputc_r+0x1a>
    8aa0:	0090006f          	j	92a8 <__swbuf_r>
    8aa4:	421c                	lw	a5,0(a2)
    8aa6:	852e                	mv	a0,a1
    8aa8:	00178713          	addi	a4,a5,1
    8aac:	c218                	sw	a4,0(a2)
    8aae:	00b78023          	sb	a1,0(a5)
    8ab2:	8082                	ret

00008ab4 <__sfputs_r>:
    8ab4:	1101                	addi	sp,sp,-32
    8ab6:	cc22                	sw	s0,24(sp)
    8ab8:	ca26                	sw	s1,20(sp)
    8aba:	c84a                	sw	s2,16(sp)
    8abc:	c64e                	sw	s3,12(sp)
    8abe:	c452                	sw	s4,8(sp)
    8ac0:	ce06                	sw	ra,28(sp)
    8ac2:	892a                	mv	s2,a0
    8ac4:	89ae                	mv	s3,a1
    8ac6:	8432                	mv	s0,a2
    8ac8:	00d604b3          	add	s1,a2,a3
    8acc:	5a7d                	li	s4,-1
    8ace:	00941463          	bne	s0,s1,8ad6 <__sfputs_r+0x22>
    8ad2:	4501                	li	a0,0
    8ad4:	a811                	j	8ae8 <__sfputs_r+0x34>
    8ad6:	00044583          	lbu	a1,0(s0)
    8ada:	864e                	mv	a2,s3
    8adc:	854a                	mv	a0,s2
    8ade:	fadff0ef          	jal	ra,8a8a <__sfputc_r>
    8ae2:	0405                	addi	s0,s0,1
    8ae4:	ff4515e3          	bne	a0,s4,8ace <__sfputs_r+0x1a>
    8ae8:	40f2                	lw	ra,28(sp)
    8aea:	4462                	lw	s0,24(sp)
    8aec:	44d2                	lw	s1,20(sp)
    8aee:	4942                	lw	s2,16(sp)
    8af0:	49b2                	lw	s3,12(sp)
    8af2:	4a22                	lw	s4,8(sp)
    8af4:	6105                	addi	sp,sp,32
    8af6:	8082                	ret

00008af8 <_vfiprintf_r>:
    8af8:	7135                	addi	sp,sp,-160
    8afa:	cd22                	sw	s0,152(sp)
    8afc:	cb26                	sw	s1,148(sp)
    8afe:	c94a                	sw	s2,144(sp)
    8b00:	c74e                	sw	s3,140(sp)
    8b02:	cf06                	sw	ra,156(sp)
    8b04:	c552                	sw	s4,136(sp)
    8b06:	c356                	sw	s5,132(sp)
    8b08:	c15a                	sw	s6,128(sp)
    8b0a:	dede                	sw	s7,124(sp)
    8b0c:	dce2                	sw	s8,120(sp)
    8b0e:	dae6                	sw	s9,116(sp)
    8b10:	89aa                	mv	s3,a0
    8b12:	84ae                	mv	s1,a1
    8b14:	8932                	mv	s2,a2
    8b16:	8436                	mv	s0,a3
    8b18:	c509                	beqz	a0,8b22 <_vfiprintf_r+0x2a>
    8b1a:	4d1c                	lw	a5,24(a0)
    8b1c:	e399                	bnez	a5,8b22 <_vfiprintf_r+0x2a>
    8b1e:	3c7000ef          	jal	ra,96e4 <__sinit>
    8b22:	00002797          	auipc	a5,0x2
    8b26:	c9a78793          	addi	a5,a5,-870 # a7bc <__sf_fake_stdin>
    8b2a:	0cf49d63          	bne	s1,a5,8c04 <_vfiprintf_r+0x10c>
    8b2e:	0049a483          	lw	s1,4(s3)
    8b32:	00c4d783          	lhu	a5,12(s1)
    8b36:	8ba1                	andi	a5,a5,8
    8b38:	cbe5                	beqz	a5,8c28 <_vfiprintf_r+0x130>
    8b3a:	489c                	lw	a5,16(s1)
    8b3c:	c7f5                	beqz	a5,8c28 <_vfiprintf_r+0x130>
    8b3e:	02000793          	li	a5,32
    8b42:	02f104a3          	sb	a5,41(sp)
    8b46:	03000793          	li	a5,48
    8b4a:	d202                	sw	zero,36(sp)
    8b4c:	02f10523          	sb	a5,42(sp)
    8b50:	c622                	sw	s0,12(sp)
    8b52:	02500b93          	li	s7,37
    8b56:	00002a97          	auipc	s5,0x2
    8b5a:	c0aa8a93          	addi	s5,s5,-1014 # a760 <__clz_tab+0x140>
    8b5e:	4c05                	li	s8,1
    8b60:	4b29                	li	s6,10
    8b62:	844a                	mv	s0,s2
    8b64:	00044783          	lbu	a5,0(s0)
    8b68:	c399                	beqz	a5,8b6e <_vfiprintf_r+0x76>
    8b6a:	0f779163          	bne	a5,s7,8c4c <_vfiprintf_r+0x154>
    8b6e:	41240cb3          	sub	s9,s0,s2
    8b72:	000c8e63          	beqz	s9,8b8e <_vfiprintf_r+0x96>
    8b76:	86e6                	mv	a3,s9
    8b78:	864a                	mv	a2,s2
    8b7a:	85a6                	mv	a1,s1
    8b7c:	854e                	mv	a0,s3
    8b7e:	f37ff0ef          	jal	ra,8ab4 <__sfputs_r>
    8b82:	57fd                	li	a5,-1
    8b84:	1ef50863          	beq	a0,a5,8d74 <_vfiprintf_r+0x27c>
    8b88:	5692                	lw	a3,36(sp)
    8b8a:	96e6                	add	a3,a3,s9
    8b8c:	d236                	sw	a3,36(sp)
    8b8e:	00044783          	lbu	a5,0(s0)
    8b92:	1e078163          	beqz	a5,8d74 <_vfiprintf_r+0x27c>
    8b96:	57fd                	li	a5,-1
    8b98:	00140913          	addi	s2,s0,1
    8b9c:	c802                	sw	zero,16(sp)
    8b9e:	ce02                	sw	zero,28(sp)
    8ba0:	ca3e                	sw	a5,20(sp)
    8ba2:	cc02                	sw	zero,24(sp)
    8ba4:	040109a3          	sb	zero,83(sp)
    8ba8:	d482                	sw	zero,104(sp)
    8baa:	00094583          	lbu	a1,0(s2)
    8bae:	4615                	li	a2,5
    8bb0:	8556                	mv	a0,s5
    8bb2:	5a3000ef          	jal	ra,9954 <memchr>
    8bb6:	00190413          	addi	s0,s2,1
    8bba:	47c2                	lw	a5,16(sp)
    8bbc:	e951                	bnez	a0,8c50 <_vfiprintf_r+0x158>
    8bbe:	0107f713          	andi	a4,a5,16
    8bc2:	c709                	beqz	a4,8bcc <_vfiprintf_r+0xd4>
    8bc4:	02000713          	li	a4,32
    8bc8:	04e109a3          	sb	a4,83(sp)
    8bcc:	0087f713          	andi	a4,a5,8
    8bd0:	c709                	beqz	a4,8bda <_vfiprintf_r+0xe2>
    8bd2:	02b00713          	li	a4,43
    8bd6:	04e109a3          	sb	a4,83(sp)
    8bda:	00094683          	lbu	a3,0(s2)
    8bde:	02a00713          	li	a4,42
    8be2:	06e68f63          	beq	a3,a4,8c60 <_vfiprintf_r+0x168>
    8be6:	47f2                	lw	a5,28(sp)
    8be8:	844a                	mv	s0,s2
    8bea:	4681                	li	a3,0
    8bec:	4625                	li	a2,9
    8bee:	00044703          	lbu	a4,0(s0)
    8bf2:	00140593          	addi	a1,s0,1
    8bf6:	fd070713          	addi	a4,a4,-48
    8bfa:	0ae67863          	bgeu	a2,a4,8caa <_vfiprintf_r+0x1b2>
    8bfe:	caad                	beqz	a3,8c70 <_vfiprintf_r+0x178>
    8c00:	ce3e                	sw	a5,28(sp)
    8c02:	a0bd                	j	8c70 <_vfiprintf_r+0x178>
    8c04:	00002797          	auipc	a5,0x2
    8c08:	bd878793          	addi	a5,a5,-1064 # a7dc <__sf_fake_stdout>
    8c0c:	00f49563          	bne	s1,a5,8c16 <_vfiprintf_r+0x11e>
    8c10:	0089a483          	lw	s1,8(s3)
    8c14:	bf39                	j	8b32 <_vfiprintf_r+0x3a>
    8c16:	00002797          	auipc	a5,0x2
    8c1a:	b8678793          	addi	a5,a5,-1146 # a79c <__sf_fake_stderr>
    8c1e:	f0f49ae3          	bne	s1,a5,8b32 <_vfiprintf_r+0x3a>
    8c22:	00c9a483          	lw	s1,12(s3)
    8c26:	b731                	j	8b32 <_vfiprintf_r+0x3a>
    8c28:	85a6                	mv	a1,s1
    8c2a:	854e                	mv	a0,s3
    8c2c:	2f35                	jal	9368 <__swsetup_r>
    8c2e:	d901                	beqz	a0,8b3e <_vfiprintf_r+0x46>
    8c30:	557d                	li	a0,-1
    8c32:	40fa                	lw	ra,156(sp)
    8c34:	446a                	lw	s0,152(sp)
    8c36:	44da                	lw	s1,148(sp)
    8c38:	494a                	lw	s2,144(sp)
    8c3a:	49ba                	lw	s3,140(sp)
    8c3c:	4a2a                	lw	s4,136(sp)
    8c3e:	4a9a                	lw	s5,132(sp)
    8c40:	4b0a                	lw	s6,128(sp)
    8c42:	5bf6                	lw	s7,124(sp)
    8c44:	5c66                	lw	s8,120(sp)
    8c46:	5cd6                	lw	s9,116(sp)
    8c48:	610d                	addi	sp,sp,160
    8c4a:	8082                	ret
    8c4c:	0405                	addi	s0,s0,1
    8c4e:	bf19                	j	8b64 <_vfiprintf_r+0x6c>
    8c50:	41550533          	sub	a0,a0,s5
    8c54:	00ac1533          	sll	a0,s8,a0
    8c58:	8fc9                	or	a5,a5,a0
    8c5a:	c83e                	sw	a5,16(sp)
    8c5c:	8922                	mv	s2,s0
    8c5e:	b7b1                	j	8baa <_vfiprintf_r+0xb2>
    8c60:	4732                	lw	a4,12(sp)
    8c62:	00470693          	addi	a3,a4,4
    8c66:	4318                	lw	a4,0(a4)
    8c68:	c636                	sw	a3,12(sp)
    8c6a:	02074963          	bltz	a4,8c9c <_vfiprintf_r+0x1a4>
    8c6e:	ce3a                	sw	a4,28(sp)
    8c70:	00044703          	lbu	a4,0(s0)
    8c74:	02e00793          	li	a5,46
    8c78:	04f71f63          	bne	a4,a5,8cd6 <_vfiprintf_r+0x1de>
    8c7c:	00144703          	lbu	a4,1(s0)
    8c80:	02a00793          	li	a5,42
    8c84:	02f71b63          	bne	a4,a5,8cba <_vfiprintf_r+0x1c2>
    8c88:	47b2                	lw	a5,12(sp)
    8c8a:	0409                	addi	s0,s0,2
    8c8c:	00478713          	addi	a4,a5,4
    8c90:	439c                	lw	a5,0(a5)
    8c92:	c63a                	sw	a4,12(sp)
    8c94:	0207c163          	bltz	a5,8cb6 <_vfiprintf_r+0x1be>
    8c98:	ca3e                	sw	a5,20(sp)
    8c9a:	a835                	j	8cd6 <_vfiprintf_r+0x1de>
    8c9c:	40e00733          	neg	a4,a4
    8ca0:	0027e793          	ori	a5,a5,2
    8ca4:	ce3a                	sw	a4,28(sp)
    8ca6:	c83e                	sw	a5,16(sp)
    8ca8:	b7e1                	j	8c70 <_vfiprintf_r+0x178>
    8caa:	036787b3          	mul	a5,a5,s6
    8cae:	4685                	li	a3,1
    8cb0:	842e                	mv	s0,a1
    8cb2:	97ba                	add	a5,a5,a4
    8cb4:	bf2d                	j	8bee <_vfiprintf_r+0xf6>
    8cb6:	57fd                	li	a5,-1
    8cb8:	b7c5                	j	8c98 <_vfiprintf_r+0x1a0>
    8cba:	0405                	addi	s0,s0,1
    8cbc:	ca02                	sw	zero,20(sp)
    8cbe:	4681                	li	a3,0
    8cc0:	4781                	li	a5,0
    8cc2:	4625                	li	a2,9
    8cc4:	00044703          	lbu	a4,0(s0)
    8cc8:	00140593          	addi	a1,s0,1
    8ccc:	fd070713          	addi	a4,a4,-48
    8cd0:	06e67863          	bgeu	a2,a4,8d40 <_vfiprintf_r+0x248>
    8cd4:	f2f1                	bnez	a3,8c98 <_vfiprintf_r+0x1a0>
    8cd6:	00044583          	lbu	a1,0(s0)
    8cda:	460d                	li	a2,3
    8cdc:	00002517          	auipc	a0,0x2
    8ce0:	a8c50513          	addi	a0,a0,-1396 # a768 <__clz_tab+0x148>
    8ce4:	471000ef          	jal	ra,9954 <memchr>
    8ce8:	cd11                	beqz	a0,8d04 <_vfiprintf_r+0x20c>
    8cea:	00002797          	auipc	a5,0x2
    8cee:	a7e78793          	addi	a5,a5,-1410 # a768 <__clz_tab+0x148>
    8cf2:	8d1d                	sub	a0,a0,a5
    8cf4:	04000793          	li	a5,64
    8cf8:	00a797b3          	sll	a5,a5,a0
    8cfc:	4542                	lw	a0,16(sp)
    8cfe:	0405                	addi	s0,s0,1
    8d00:	8d5d                	or	a0,a0,a5
    8d02:	c82a                	sw	a0,16(sp)
    8d04:	00044583          	lbu	a1,0(s0)
    8d08:	4619                	li	a2,6
    8d0a:	00002517          	auipc	a0,0x2
    8d0e:	a6250513          	addi	a0,a0,-1438 # a76c <__clz_tab+0x14c>
    8d12:	00140913          	addi	s2,s0,1
    8d16:	02b10423          	sb	a1,40(sp)
    8d1a:	43b000ef          	jal	ra,9954 <memchr>
    8d1e:	c13d                	beqz	a0,8d84 <_vfiprintf_r+0x28c>
    8d20:	ffff7797          	auipc	a5,0xffff7
    8d24:	2e078793          	addi	a5,a5,736 # 0 <_sinit>
    8d28:	e795                	bnez	a5,8d54 <_vfiprintf_r+0x25c>
    8d2a:	4742                	lw	a4,16(sp)
    8d2c:	47b2                	lw	a5,12(sp)
    8d2e:	10077713          	andi	a4,a4,256
    8d32:	cf09                	beqz	a4,8d4c <_vfiprintf_r+0x254>
    8d34:	0791                	addi	a5,a5,4
    8d36:	c63e                	sw	a5,12(sp)
    8d38:	5792                	lw	a5,36(sp)
    8d3a:	97d2                	add	a5,a5,s4
    8d3c:	d23e                	sw	a5,36(sp)
    8d3e:	b515                	j	8b62 <_vfiprintf_r+0x6a>
    8d40:	036787b3          	mul	a5,a5,s6
    8d44:	4685                	li	a3,1
    8d46:	842e                	mv	s0,a1
    8d48:	97ba                	add	a5,a5,a4
    8d4a:	bfad                	j	8cc4 <_vfiprintf_r+0x1cc>
    8d4c:	079d                	addi	a5,a5,7
    8d4e:	9be1                	andi	a5,a5,-8
    8d50:	07a1                	addi	a5,a5,8
    8d52:	b7d5                	j	8d36 <_vfiprintf_r+0x23e>
    8d54:	0078                	addi	a4,sp,12
    8d56:	00000697          	auipc	a3,0x0
    8d5a:	d5e68693          	addi	a3,a3,-674 # 8ab4 <__sfputs_r>
    8d5e:	8626                	mv	a2,s1
    8d60:	080c                	addi	a1,sp,16
    8d62:	854e                	mv	a0,s3
    8d64:	00000097          	auipc	ra,0x0
    8d68:	000000e7          	jalr	zero # 0 <_sinit>
    8d6c:	57fd                	li	a5,-1
    8d6e:	8a2a                	mv	s4,a0
    8d70:	fcf514e3          	bne	a0,a5,8d38 <_vfiprintf_r+0x240>
    8d74:	00c4d783          	lhu	a5,12(s1)
    8d78:	0407f793          	andi	a5,a5,64
    8d7c:	ea079ae3          	bnez	a5,8c30 <_vfiprintf_r+0x138>
    8d80:	5512                	lw	a0,36(sp)
    8d82:	bd45                	j	8c32 <_vfiprintf_r+0x13a>
    8d84:	0078                	addi	a4,sp,12
    8d86:	00000697          	auipc	a3,0x0
    8d8a:	d2e68693          	addi	a3,a3,-722 # 8ab4 <__sfputs_r>
    8d8e:	8626                	mv	a2,s1
    8d90:	080c                	addi	a1,sp,16
    8d92:	854e                	mv	a0,s3
    8d94:	2a01                	jal	8ea4 <_printf_i>
    8d96:	bfd9                	j	8d6c <_vfiprintf_r+0x274>

00008d98 <_printf_common>:
    8d98:	7179                	addi	sp,sp,-48
    8d9a:	ca56                	sw	s5,20(sp)
    8d9c:	499c                	lw	a5,16(a1)
    8d9e:	8aba                	mv	s5,a4
    8da0:	4598                	lw	a4,8(a1)
    8da2:	d422                	sw	s0,40(sp)
    8da4:	d226                	sw	s1,36(sp)
    8da6:	ce4e                	sw	s3,28(sp)
    8da8:	cc52                	sw	s4,24(sp)
    8daa:	d606                	sw	ra,44(sp)
    8dac:	d04a                	sw	s2,32(sp)
    8dae:	c85a                	sw	s6,16(sp)
    8db0:	c65e                	sw	s7,12(sp)
    8db2:	89aa                	mv	s3,a0
    8db4:	842e                	mv	s0,a1
    8db6:	84b2                	mv	s1,a2
    8db8:	8a36                	mv	s4,a3
    8dba:	00e7d363          	bge	a5,a4,8dc0 <_printf_common+0x28>
    8dbe:	87ba                	mv	a5,a4
    8dc0:	c09c                	sw	a5,0(s1)
    8dc2:	04344703          	lbu	a4,67(s0)
    8dc6:	c319                	beqz	a4,8dcc <_printf_common+0x34>
    8dc8:	0785                	addi	a5,a5,1
    8dca:	c09c                	sw	a5,0(s1)
    8dcc:	401c                	lw	a5,0(s0)
    8dce:	0207f793          	andi	a5,a5,32
    8dd2:	c781                	beqz	a5,8dda <_printf_common+0x42>
    8dd4:	409c                	lw	a5,0(s1)
    8dd6:	0789                	addi	a5,a5,2
    8dd8:	c09c                	sw	a5,0(s1)
    8dda:	00042903          	lw	s2,0(s0)
    8dde:	00697913          	andi	s2,s2,6
    8de2:	00091a63          	bnez	s2,8df6 <_printf_common+0x5e>
    8de6:	01940b13          	addi	s6,s0,25
    8dea:	5bfd                	li	s7,-1
    8dec:	445c                	lw	a5,12(s0)
    8dee:	4098                	lw	a4,0(s1)
    8df0:	8f99                	sub	a5,a5,a4
    8df2:	04f94c63          	blt	s2,a5,8e4a <_printf_common+0xb2>
    8df6:	401c                	lw	a5,0(s0)
    8df8:	04344683          	lbu	a3,67(s0)
    8dfc:	0207f793          	andi	a5,a5,32
    8e00:	00d036b3          	snez	a3,a3
    8e04:	eba5                	bnez	a5,8e74 <_printf_common+0xdc>
    8e06:	04340613          	addi	a2,s0,67
    8e0a:	85d2                	mv	a1,s4
    8e0c:	854e                	mv	a0,s3
    8e0e:	9a82                	jalr	s5
    8e10:	57fd                	li	a5,-1
    8e12:	04f50363          	beq	a0,a5,8e58 <_printf_common+0xc0>
    8e16:	401c                	lw	a5,0(s0)
    8e18:	4611                	li	a2,4
    8e1a:	4098                	lw	a4,0(s1)
    8e1c:	8b99                	andi	a5,a5,6
    8e1e:	4454                	lw	a3,12(s0)
    8e20:	4481                	li	s1,0
    8e22:	00c79763          	bne	a5,a2,8e30 <_printf_common+0x98>
    8e26:	40e684b3          	sub	s1,a3,a4
    8e2a:	0004d363          	bgez	s1,8e30 <_printf_common+0x98>
    8e2e:	4481                	li	s1,0
    8e30:	441c                	lw	a5,8(s0)
    8e32:	4818                	lw	a4,16(s0)
    8e34:	00f75463          	bge	a4,a5,8e3c <_printf_common+0xa4>
    8e38:	8f99                	sub	a5,a5,a4
    8e3a:	94be                	add	s1,s1,a5
    8e3c:	4901                	li	s2,0
    8e3e:	0469                	addi	s0,s0,26
    8e40:	5b7d                	li	s6,-1
    8e42:	05249863          	bne	s1,s2,8e92 <_printf_common+0xfa>
    8e46:	4501                	li	a0,0
    8e48:	a809                	j	8e5a <_printf_common+0xc2>
    8e4a:	4685                	li	a3,1
    8e4c:	865a                	mv	a2,s6
    8e4e:	85d2                	mv	a1,s4
    8e50:	854e                	mv	a0,s3
    8e52:	9a82                	jalr	s5
    8e54:	01751e63          	bne	a0,s7,8e70 <_printf_common+0xd8>
    8e58:	557d                	li	a0,-1
    8e5a:	50b2                	lw	ra,44(sp)
    8e5c:	5422                	lw	s0,40(sp)
    8e5e:	5492                	lw	s1,36(sp)
    8e60:	5902                	lw	s2,32(sp)
    8e62:	49f2                	lw	s3,28(sp)
    8e64:	4a62                	lw	s4,24(sp)
    8e66:	4ad2                	lw	s5,20(sp)
    8e68:	4b42                	lw	s6,16(sp)
    8e6a:	4bb2                	lw	s7,12(sp)
    8e6c:	6145                	addi	sp,sp,48
    8e6e:	8082                	ret
    8e70:	0905                	addi	s2,s2,1
    8e72:	bfad                	j	8dec <_printf_common+0x54>
    8e74:	00d40733          	add	a4,s0,a3
    8e78:	03000613          	li	a2,48
    8e7c:	04c701a3          	sb	a2,67(a4)
    8e80:	04544703          	lbu	a4,69(s0)
    8e84:	00168793          	addi	a5,a3,1
    8e88:	97a2                	add	a5,a5,s0
    8e8a:	0689                	addi	a3,a3,2
    8e8c:	04e781a3          	sb	a4,67(a5)
    8e90:	bf9d                	j	8e06 <_printf_common+0x6e>
    8e92:	4685                	li	a3,1
    8e94:	8622                	mv	a2,s0
    8e96:	85d2                	mv	a1,s4
    8e98:	854e                	mv	a0,s3
    8e9a:	9a82                	jalr	s5
    8e9c:	fb650ee3          	beq	a0,s6,8e58 <_printf_common+0xc0>
    8ea0:	0905                	addi	s2,s2,1
    8ea2:	b745                	j	8e42 <_printf_common+0xaa>

00008ea4 <_printf_i>:
    8ea4:	7179                	addi	sp,sp,-48
    8ea6:	d422                	sw	s0,40(sp)
    8ea8:	d226                	sw	s1,36(sp)
    8eaa:	d04a                	sw	s2,32(sp)
    8eac:	ce4e                	sw	s3,28(sp)
    8eae:	d606                	sw	ra,44(sp)
    8eb0:	cc52                	sw	s4,24(sp)
    8eb2:	ca56                	sw	s5,20(sp)
    8eb4:	c85a                	sw	s6,16(sp)
    8eb6:	89b6                	mv	s3,a3
    8eb8:	0185c683          	lbu	a3,24(a1)
    8ebc:	06900793          	li	a5,105
    8ec0:	8932                	mv	s2,a2
    8ec2:	84aa                	mv	s1,a0
    8ec4:	842e                	mv	s0,a1
    8ec6:	04358613          	addi	a2,a1,67
    8eca:	02f68d63          	beq	a3,a5,8f04 <_printf_i+0x60>
    8ece:	06d7e263          	bltu	a5,a3,8f32 <_printf_i+0x8e>
    8ed2:	05800793          	li	a5,88
    8ed6:	18f68963          	beq	a3,a5,9068 <_printf_i+0x1c4>
    8eda:	00d7ed63          	bltu	a5,a3,8ef4 <_printf_i+0x50>
    8ede:	22068263          	beqz	a3,9102 <_printf_i+0x25e>
    8ee2:	04300793          	li	a5,67
    8ee6:	0af68f63          	beq	a3,a5,8fa4 <_printf_i+0x100>
    8eea:	04240a93          	addi	s5,s0,66
    8eee:	04d40123          	sb	a3,66(s0)
    8ef2:	a0d1                	j	8fb6 <_printf_i+0x112>
    8ef4:	06300793          	li	a5,99
    8ef8:	0af68663          	beq	a3,a5,8fa4 <_printf_i+0x100>
    8efc:	06400793          	li	a5,100
    8f00:	fef695e3          	bne	a3,a5,8eea <_printf_i+0x46>
    8f04:	401c                	lw	a5,0(s0)
    8f06:	4308                	lw	a0,0(a4)
    8f08:	0807f693          	andi	a3,a5,128
    8f0c:	00450593          	addi	a1,a0,4
    8f10:	c6cd                	beqz	a3,8fba <_printf_i+0x116>
    8f12:	411c                	lw	a5,0(a0)
    8f14:	c30c                	sw	a1,0(a4)
    8f16:	0007d863          	bgez	a5,8f26 <_printf_i+0x82>
    8f1a:	02d00713          	li	a4,45
    8f1e:	40f007b3          	neg	a5,a5
    8f22:	04e401a3          	sb	a4,67(s0)
    8f26:	00002697          	auipc	a3,0x2
    8f2a:	84e68693          	addi	a3,a3,-1970 # a774 <__clz_tab+0x154>
    8f2e:	4729                	li	a4,10
    8f30:	a875                	j	8fec <_printf_i+0x148>
    8f32:	07000793          	li	a5,112
    8f36:	16f68563          	beq	a3,a5,90a0 <_printf_i+0x1fc>
    8f3a:	02d7e563          	bltu	a5,a3,8f64 <_printf_i+0xc0>
    8f3e:	06e00793          	li	a5,110
    8f42:	18f68c63          	beq	a3,a5,90da <_printf_i+0x236>
    8f46:	06f00793          	li	a5,111
    8f4a:	faf690e3          	bne	a3,a5,8eea <_printf_i+0x46>
    8f4e:	400c                	lw	a1,0(s0)
    8f50:	431c                	lw	a5,0(a4)
    8f52:	0805f813          	andi	a6,a1,128
    8f56:	00478513          	addi	a0,a5,4
    8f5a:	06080863          	beqz	a6,8fca <_printf_i+0x126>
    8f5e:	c308                	sw	a0,0(a4)
    8f60:	439c                	lw	a5,0(a5)
    8f62:	a895                	j	8fd6 <_printf_i+0x132>
    8f64:	07500793          	li	a5,117
    8f68:	fef683e3          	beq	a3,a5,8f4e <_printf_i+0xaa>
    8f6c:	07800793          	li	a5,120
    8f70:	12f68c63          	beq	a3,a5,90a8 <_printf_i+0x204>
    8f74:	07300793          	li	a5,115
    8f78:	f6f699e3          	bne	a3,a5,8eea <_printf_i+0x46>
    8f7c:	431c                	lw	a5,0(a4)
    8f7e:	41d0                	lw	a2,4(a1)
    8f80:	4581                	li	a1,0
    8f82:	00478693          	addi	a3,a5,4
    8f86:	c314                	sw	a3,0(a4)
    8f88:	0007aa83          	lw	s5,0(a5)
    8f8c:	8556                	mv	a0,s5
    8f8e:	1c7000ef          	jal	ra,9954 <memchr>
    8f92:	c501                	beqz	a0,8f9a <_printf_i+0xf6>
    8f94:	41550533          	sub	a0,a0,s5
    8f98:	c048                	sw	a0,4(s0)
    8f9a:	405c                	lw	a5,4(s0)
    8f9c:	c81c                	sw	a5,16(s0)
    8f9e:	040401a3          	sb	zero,67(s0)
    8fa2:	a871                	j	903e <_printf_i+0x19a>
    8fa4:	431c                	lw	a5,0(a4)
    8fa6:	04240a93          	addi	s5,s0,66
    8faa:	00478693          	addi	a3,a5,4
    8fae:	439c                	lw	a5,0(a5)
    8fb0:	c314                	sw	a3,0(a4)
    8fb2:	04f40123          	sb	a5,66(s0)
    8fb6:	4785                	li	a5,1
    8fb8:	b7d5                	j	8f9c <_printf_i+0xf8>
    8fba:	0407f693          	andi	a3,a5,64
    8fbe:	411c                	lw	a5,0(a0)
    8fc0:	c30c                	sw	a1,0(a4)
    8fc2:	dab1                	beqz	a3,8f16 <_printf_i+0x72>
    8fc4:	07c2                	slli	a5,a5,0x10
    8fc6:	87c1                	srai	a5,a5,0x10
    8fc8:	b7b9                	j	8f16 <_printf_i+0x72>
    8fca:	0405f593          	andi	a1,a1,64
    8fce:	c308                	sw	a0,0(a4)
    8fd0:	d9c1                	beqz	a1,8f60 <_printf_i+0xbc>
    8fd2:	0007d783          	lhu	a5,0(a5)
    8fd6:	06f00713          	li	a4,111
    8fda:	0ee68863          	beq	a3,a4,90ca <_printf_i+0x226>
    8fde:	00001697          	auipc	a3,0x1
    8fe2:	79668693          	addi	a3,a3,1942 # a774 <__clz_tab+0x154>
    8fe6:	4729                	li	a4,10
    8fe8:	040401a3          	sb	zero,67(s0)
    8fec:	404c                	lw	a1,4(s0)
    8fee:	c40c                	sw	a1,8(s0)
    8ff0:	0005c563          	bltz	a1,8ffa <_printf_i+0x156>
    8ff4:	4008                	lw	a0,0(s0)
    8ff6:	996d                	andi	a0,a0,-5
    8ff8:	c008                	sw	a0,0(s0)
    8ffa:	e399                	bnez	a5,9000 <_printf_i+0x15c>
    8ffc:	8ab2                	mv	s5,a2
    8ffe:	cd91                	beqz	a1,901a <_printf_i+0x176>
    9000:	8ab2                	mv	s5,a2
    9002:	02e7f5b3          	remu	a1,a5,a4
    9006:	1afd                	addi	s5,s5,-1
    9008:	95b6                	add	a1,a1,a3
    900a:	0005c583          	lbu	a1,0(a1)
    900e:	00ba8023          	sb	a1,0(s5)
    9012:	02e7d5b3          	divu	a1,a5,a4
    9016:	0ce7f063          	bgeu	a5,a4,90d6 <_printf_i+0x232>
    901a:	47a1                	li	a5,8
    901c:	00f71e63          	bne	a4,a5,9038 <_printf_i+0x194>
    9020:	401c                	lw	a5,0(s0)
    9022:	8b85                	andi	a5,a5,1
    9024:	cb91                	beqz	a5,9038 <_printf_i+0x194>
    9026:	4058                	lw	a4,4(s0)
    9028:	481c                	lw	a5,16(s0)
    902a:	00e7c763          	blt	a5,a4,9038 <_printf_i+0x194>
    902e:	03000793          	li	a5,48
    9032:	fefa8fa3          	sb	a5,-1(s5)
    9036:	1afd                	addi	s5,s5,-1
    9038:	41560633          	sub	a2,a2,s5
    903c:	c810                	sw	a2,16(s0)
    903e:	874e                	mv	a4,s3
    9040:	86ca                	mv	a3,s2
    9042:	0070                	addi	a2,sp,12
    9044:	85a2                	mv	a1,s0
    9046:	8526                	mv	a0,s1
    9048:	d51ff0ef          	jal	ra,8d98 <_printf_common>
    904c:	5a7d                	li	s4,-1
    904e:	0b451e63          	bne	a0,s4,910a <_printf_i+0x266>
    9052:	557d                	li	a0,-1
    9054:	50b2                	lw	ra,44(sp)
    9056:	5422                	lw	s0,40(sp)
    9058:	5492                	lw	s1,36(sp)
    905a:	5902                	lw	s2,32(sp)
    905c:	49f2                	lw	s3,28(sp)
    905e:	4a62                	lw	s4,24(sp)
    9060:	4ad2                	lw	s5,20(sp)
    9062:	4b42                	lw	s6,16(sp)
    9064:	6145                	addi	sp,sp,48
    9066:	8082                	ret
    9068:	04d582a3          	sb	a3,69(a1)
    906c:	00001697          	auipc	a3,0x1
    9070:	70868693          	addi	a3,a3,1800 # a774 <__clz_tab+0x154>
    9074:	400c                	lw	a1,0(s0)
    9076:	4308                	lw	a0,0(a4)
    9078:	0805f813          	andi	a6,a1,128
    907c:	411c                	lw	a5,0(a0)
    907e:	0511                	addi	a0,a0,4
    9080:	02080d63          	beqz	a6,90ba <_printf_i+0x216>
    9084:	c308                	sw	a0,0(a4)
    9086:	0015f713          	andi	a4,a1,1
    908a:	c701                	beqz	a4,9092 <_printf_i+0x1ee>
    908c:	0205e593          	ori	a1,a1,32
    9090:	c00c                	sw	a1,0(s0)
    9092:	4741                	li	a4,16
    9094:	fbb1                	bnez	a5,8fe8 <_printf_i+0x144>
    9096:	400c                	lw	a1,0(s0)
    9098:	fdf5f593          	andi	a1,a1,-33
    909c:	c00c                	sw	a1,0(s0)
    909e:	b7a9                	j	8fe8 <_printf_i+0x144>
    90a0:	419c                	lw	a5,0(a1)
    90a2:	0207e793          	ori	a5,a5,32
    90a6:	c19c                	sw	a5,0(a1)
    90a8:	07800793          	li	a5,120
    90ac:	04f402a3          	sb	a5,69(s0)
    90b0:	00001697          	auipc	a3,0x1
    90b4:	6d868693          	addi	a3,a3,1752 # a788 <__clz_tab+0x168>
    90b8:	bf75                	j	9074 <_printf_i+0x1d0>
    90ba:	0405f813          	andi	a6,a1,64
    90be:	c308                	sw	a0,0(a4)
    90c0:	fc0803e3          	beqz	a6,9086 <_printf_i+0x1e2>
    90c4:	07c2                	slli	a5,a5,0x10
    90c6:	83c1                	srli	a5,a5,0x10
    90c8:	bf7d                	j	9086 <_printf_i+0x1e2>
    90ca:	00001697          	auipc	a3,0x1
    90ce:	6aa68693          	addi	a3,a3,1706 # a774 <__clz_tab+0x154>
    90d2:	4721                	li	a4,8
    90d4:	bf11                	j	8fe8 <_printf_i+0x144>
    90d6:	87ae                	mv	a5,a1
    90d8:	b72d                	j	9002 <_printf_i+0x15e>
    90da:	4194                	lw	a3,0(a1)
    90dc:	431c                	lw	a5,0(a4)
    90de:	49cc                	lw	a1,20(a1)
    90e0:	0806f813          	andi	a6,a3,128
    90e4:	00478513          	addi	a0,a5,4
    90e8:	00080663          	beqz	a6,90f4 <_printf_i+0x250>
    90ec:	c308                	sw	a0,0(a4)
    90ee:	439c                	lw	a5,0(a5)
    90f0:	c38c                	sw	a1,0(a5)
    90f2:	a801                	j	9102 <_printf_i+0x25e>
    90f4:	c308                	sw	a0,0(a4)
    90f6:	0406f693          	andi	a3,a3,64
    90fa:	439c                	lw	a5,0(a5)
    90fc:	daf5                	beqz	a3,90f0 <_printf_i+0x24c>
    90fe:	00b79023          	sh	a1,0(a5)
    9102:	00042823          	sw	zero,16(s0)
    9106:	8ab2                	mv	s5,a2
    9108:	bf1d                	j	903e <_printf_i+0x19a>
    910a:	4814                	lw	a3,16(s0)
    910c:	8656                	mv	a2,s5
    910e:	85ca                	mv	a1,s2
    9110:	8526                	mv	a0,s1
    9112:	9982                	jalr	s3
    9114:	f3450fe3          	beq	a0,s4,9052 <_printf_i+0x1ae>
    9118:	401c                	lw	a5,0(s0)
    911a:	8b89                	andi	a5,a5,2
    911c:	e78d                	bnez	a5,9146 <_printf_i+0x2a2>
    911e:	47b2                	lw	a5,12(sp)
    9120:	4448                	lw	a0,12(s0)
    9122:	f2f559e3          	bge	a0,a5,9054 <_printf_i+0x1b0>
    9126:	853e                	mv	a0,a5
    9128:	b735                	j	9054 <_printf_i+0x1b0>
    912a:	4685                	li	a3,1
    912c:	8656                	mv	a2,s5
    912e:	85ca                	mv	a1,s2
    9130:	8526                	mv	a0,s1
    9132:	9982                	jalr	s3
    9134:	f1650fe3          	beq	a0,s6,9052 <_printf_i+0x1ae>
    9138:	0a05                	addi	s4,s4,1
    913a:	445c                	lw	a5,12(s0)
    913c:	4732                	lw	a4,12(sp)
    913e:	8f99                	sub	a5,a5,a4
    9140:	fefa45e3          	blt	s4,a5,912a <_printf_i+0x286>
    9144:	bfe9                	j	911e <_printf_i+0x27a>
    9146:	4a01                	li	s4,0
    9148:	01940a93          	addi	s5,s0,25
    914c:	5b7d                	li	s6,-1
    914e:	b7f5                	j	913a <_printf_i+0x296>

00009150 <iprintf>:
    9150:	7139                	addi	sp,sp,-64
    9152:	da3e                	sw	a5,52(sp)
    9154:	d22e                	sw	a1,36(sp)
    9156:	d432                	sw	a2,40(sp)
    9158:	d636                	sw	a3,44(sp)
    915a:	d83a                	sw	a4,48(sp)
    915c:	dc42                	sw	a6,56(sp)
    915e:	de46                	sw	a7,60(sp)
    9160:	83c18793          	addi	a5,gp,-1988 # 200001c4 <_impure_ptr>
    9164:	cc22                	sw	s0,24(sp)
    9166:	4380                	lw	s0,0(a5)
    9168:	ca26                	sw	s1,20(sp)
    916a:	ce06                	sw	ra,28(sp)
    916c:	84aa                	mv	s1,a0
    916e:	c409                	beqz	s0,9178 <iprintf+0x28>
    9170:	4c1c                	lw	a5,24(s0)
    9172:	e399                	bnez	a5,9178 <iprintf+0x28>
    9174:	8522                	mv	a0,s0
    9176:	23bd                	jal	96e4 <__sinit>
    9178:	440c                	lw	a1,8(s0)
    917a:	1054                	addi	a3,sp,36
    917c:	8626                	mv	a2,s1
    917e:	8522                	mv	a0,s0
    9180:	c636                	sw	a3,12(sp)
    9182:	977ff0ef          	jal	ra,8af8 <_vfiprintf_r>
    9186:	40f2                	lw	ra,28(sp)
    9188:	4462                	lw	s0,24(sp)
    918a:	44d2                	lw	s1,20(sp)
    918c:	6121                	addi	sp,sp,64
    918e:	8082                	ret

00009190 <_puts_r>:
    9190:	1101                	addi	sp,sp,-32
    9192:	ca26                	sw	s1,20(sp)
    9194:	c84a                	sw	s2,16(sp)
    9196:	ce06                	sw	ra,28(sp)
    9198:	cc22                	sw	s0,24(sp)
    919a:	c64e                	sw	s3,12(sp)
    919c:	c452                	sw	s4,8(sp)
    919e:	84aa                	mv	s1,a0
    91a0:	892e                	mv	s2,a1
    91a2:	c501                	beqz	a0,91aa <_puts_r+0x1a>
    91a4:	4d1c                	lw	a5,24(a0)
    91a6:	e391                	bnez	a5,91aa <_puts_r+0x1a>
    91a8:	2b35                	jal	96e4 <__sinit>
    91aa:	4c9c                	lw	a5,24(s1)
    91ac:	4480                	lw	s0,8(s1)
    91ae:	e399                	bnez	a5,91b4 <_puts_r+0x24>
    91b0:	8526                	mv	a0,s1
    91b2:	2b0d                	jal	96e4 <__sinit>
    91b4:	00001797          	auipc	a5,0x1
    91b8:	60878793          	addi	a5,a5,1544 # a7bc <__sf_fake_stdin>
    91bc:	02f41c63          	bne	s0,a5,91f4 <_puts_r+0x64>
    91c0:	40c0                	lw	s0,4(s1)
    91c2:	00c45783          	lhu	a5,12(s0)
    91c6:	8ba1                	andi	a5,a5,8
    91c8:	c7b1                	beqz	a5,9214 <_puts_r+0x84>
    91ca:	481c                	lw	a5,16(s0)
    91cc:	c7a1                	beqz	a5,9214 <_puts_r+0x84>
    91ce:	59fd                	li	s3,-1
    91d0:	4a29                	li	s4,10
    91d2:	441c                	lw	a5,8(s0)
    91d4:	00094583          	lbu	a1,0(s2)
    91d8:	17fd                	addi	a5,a5,-1
    91da:	e9b1                	bnez	a1,922e <_puts_r+0x9e>
    91dc:	c41c                	sw	a5,8(s0)
    91de:	0607de63          	bgez	a5,925a <_puts_r+0xca>
    91e2:	8622                	mv	a2,s0
    91e4:	45a9                	li	a1,10
    91e6:	8526                	mv	a0,s1
    91e8:	20c1                	jal	92a8 <__swbuf_r>
    91ea:	57fd                	li	a5,-1
    91ec:	02f50863          	beq	a0,a5,921c <_puts_r+0x8c>
    91f0:	4529                	li	a0,10
    91f2:	a035                	j	921e <_puts_r+0x8e>
    91f4:	00001797          	auipc	a5,0x1
    91f8:	5e878793          	addi	a5,a5,1512 # a7dc <__sf_fake_stdout>
    91fc:	00f41463          	bne	s0,a5,9204 <_puts_r+0x74>
    9200:	4480                	lw	s0,8(s1)
    9202:	b7c1                	j	91c2 <_puts_r+0x32>
    9204:	00001797          	auipc	a5,0x1
    9208:	59878793          	addi	a5,a5,1432 # a79c <__sf_fake_stderr>
    920c:	faf41be3          	bne	s0,a5,91c2 <_puts_r+0x32>
    9210:	44c0                	lw	s0,12(s1)
    9212:	bf45                	j	91c2 <_puts_r+0x32>
    9214:	85a2                	mv	a1,s0
    9216:	8526                	mv	a0,s1
    9218:	2a81                	jal	9368 <__swsetup_r>
    921a:	d955                	beqz	a0,91ce <_puts_r+0x3e>
    921c:	557d                	li	a0,-1
    921e:	40f2                	lw	ra,28(sp)
    9220:	4462                	lw	s0,24(sp)
    9222:	44d2                	lw	s1,20(sp)
    9224:	4942                	lw	s2,16(sp)
    9226:	49b2                	lw	s3,12(sp)
    9228:	4a22                	lw	s4,8(sp)
    922a:	6105                	addi	sp,sp,32
    922c:	8082                	ret
    922e:	c41c                	sw	a5,8(s0)
    9230:	0905                	addi	s2,s2,1
    9232:	0007d763          	bgez	a5,9240 <_puts_r+0xb0>
    9236:	4c18                	lw	a4,24(s0)
    9238:	00e7cb63          	blt	a5,a4,924e <_puts_r+0xbe>
    923c:	01458963          	beq	a1,s4,924e <_puts_r+0xbe>
    9240:	401c                	lw	a5,0(s0)
    9242:	00178713          	addi	a4,a5,1
    9246:	c018                	sw	a4,0(s0)
    9248:	00b78023          	sb	a1,0(a5)
    924c:	b759                	j	91d2 <_puts_r+0x42>
    924e:	8622                	mv	a2,s0
    9250:	8526                	mv	a0,s1
    9252:	2899                	jal	92a8 <__swbuf_r>
    9254:	f7351fe3          	bne	a0,s3,91d2 <_puts_r+0x42>
    9258:	b7d1                	j	921c <_puts_r+0x8c>
    925a:	401c                	lw	a5,0(s0)
    925c:	00178713          	addi	a4,a5,1
    9260:	c018                	sw	a4,0(s0)
    9262:	4729                	li	a4,10
    9264:	00e78023          	sb	a4,0(a5)
    9268:	b761                	j	91f0 <_puts_r+0x60>

0000926a <puts>:
    926a:	83c18793          	addi	a5,gp,-1988 # 200001c4 <_impure_ptr>
    926e:	85aa                	mv	a1,a0
    9270:	4388                	lw	a0,0(a5)
    9272:	f1fff06f          	j	9190 <_puts_r>

00009276 <_sbrk_r>:
    9276:	1141                	addi	sp,sp,-16
    9278:	c422                	sw	s0,8(sp)
    927a:	842a                	mv	s0,a0
    927c:	852e                	mv	a0,a1
    927e:	20002797          	auipc	a5,0x20002
    9282:	4a07a723          	sw	zero,1198(a5) # 2000b72c <errno>
    9286:	c606                	sw	ra,12(sp)
    9288:	1e7000ef          	jal	ra,9c6e <_sbrk>
    928c:	57fd                	li	a5,-1
    928e:	00f51963          	bne	a0,a5,92a0 <_sbrk_r+0x2a>
    9292:	20002797          	auipc	a5,0x20002
    9296:	49a78793          	addi	a5,a5,1178 # 2000b72c <errno>
    929a:	439c                	lw	a5,0(a5)
    929c:	c391                	beqz	a5,92a0 <_sbrk_r+0x2a>
    929e:	c01c                	sw	a5,0(s0)
    92a0:	40b2                	lw	ra,12(sp)
    92a2:	4422                	lw	s0,8(sp)
    92a4:	0141                	addi	sp,sp,16
    92a6:	8082                	ret

000092a8 <__swbuf_r>:
    92a8:	1101                	addi	sp,sp,-32
    92aa:	cc22                	sw	s0,24(sp)
    92ac:	ca26                	sw	s1,20(sp)
    92ae:	c84a                	sw	s2,16(sp)
    92b0:	ce06                	sw	ra,28(sp)
    92b2:	c64e                	sw	s3,12(sp)
    92b4:	84aa                	mv	s1,a0
    92b6:	892e                	mv	s2,a1
    92b8:	8432                	mv	s0,a2
    92ba:	c501                	beqz	a0,92c2 <__swbuf_r+0x1a>
    92bc:	4d1c                	lw	a5,24(a0)
    92be:	e391                	bnez	a5,92c2 <__swbuf_r+0x1a>
    92c0:	2115                	jal	96e4 <__sinit>
    92c2:	00001797          	auipc	a5,0x1
    92c6:	4fa78793          	addi	a5,a5,1274 # a7bc <__sf_fake_stdin>
    92ca:	06f41963          	bne	s0,a5,933c <__swbuf_r+0x94>
    92ce:	40c0                	lw	s0,4(s1)
    92d0:	4c1c                	lw	a5,24(s0)
    92d2:	c41c                	sw	a5,8(s0)
    92d4:	00c45783          	lhu	a5,12(s0)
    92d8:	8ba1                	andi	a5,a5,8
    92da:	c3c9                	beqz	a5,935c <__swbuf_r+0xb4>
    92dc:	481c                	lw	a5,16(s0)
    92de:	cfbd                	beqz	a5,935c <__swbuf_r+0xb4>
    92e0:	481c                	lw	a5,16(s0)
    92e2:	4008                	lw	a0,0(s0)
    92e4:	0ff97993          	andi	s3,s2,255
    92e8:	0ff97913          	andi	s2,s2,255
    92ec:	8d1d                	sub	a0,a0,a5
    92ee:	485c                	lw	a5,20(s0)
    92f0:	00f54663          	blt	a0,a5,92fc <__swbuf_r+0x54>
    92f4:	85a2                	mv	a1,s0
    92f6:	8526                	mv	a0,s1
    92f8:	24e9                	jal	95c2 <_fflush_r>
    92fa:	e52d                	bnez	a0,9364 <__swbuf_r+0xbc>
    92fc:	441c                	lw	a5,8(s0)
    92fe:	0505                	addi	a0,a0,1
    9300:	17fd                	addi	a5,a5,-1
    9302:	c41c                	sw	a5,8(s0)
    9304:	401c                	lw	a5,0(s0)
    9306:	00178713          	addi	a4,a5,1
    930a:	c018                	sw	a4,0(s0)
    930c:	01378023          	sb	s3,0(a5)
    9310:	485c                	lw	a5,20(s0)
    9312:	00a78963          	beq	a5,a0,9324 <__swbuf_r+0x7c>
    9316:	00c45783          	lhu	a5,12(s0)
    931a:	8b85                	andi	a5,a5,1
    931c:	cb81                	beqz	a5,932c <__swbuf_r+0x84>
    931e:	47a9                	li	a5,10
    9320:	00f91663          	bne	s2,a5,932c <__swbuf_r+0x84>
    9324:	85a2                	mv	a1,s0
    9326:	8526                	mv	a0,s1
    9328:	2c69                	jal	95c2 <_fflush_r>
    932a:	ed0d                	bnez	a0,9364 <__swbuf_r+0xbc>
    932c:	40f2                	lw	ra,28(sp)
    932e:	4462                	lw	s0,24(sp)
    9330:	854a                	mv	a0,s2
    9332:	44d2                	lw	s1,20(sp)
    9334:	4942                	lw	s2,16(sp)
    9336:	49b2                	lw	s3,12(sp)
    9338:	6105                	addi	sp,sp,32
    933a:	8082                	ret
    933c:	00001797          	auipc	a5,0x1
    9340:	4a078793          	addi	a5,a5,1184 # a7dc <__sf_fake_stdout>
    9344:	00f41463          	bne	s0,a5,934c <__swbuf_r+0xa4>
    9348:	4480                	lw	s0,8(s1)
    934a:	b759                	j	92d0 <__swbuf_r+0x28>
    934c:	00001797          	auipc	a5,0x1
    9350:	45078793          	addi	a5,a5,1104 # a79c <__sf_fake_stderr>
    9354:	f6f41ee3          	bne	s0,a5,92d0 <__swbuf_r+0x28>
    9358:	44c0                	lw	s0,12(s1)
    935a:	bf9d                	j	92d0 <__swbuf_r+0x28>
    935c:	85a2                	mv	a1,s0
    935e:	8526                	mv	a0,s1
    9360:	2021                	jal	9368 <__swsetup_r>
    9362:	dd3d                	beqz	a0,92e0 <__swbuf_r+0x38>
    9364:	597d                	li	s2,-1
    9366:	b7d9                	j	932c <__swbuf_r+0x84>

00009368 <__swsetup_r>:
    9368:	1141                	addi	sp,sp,-16
    936a:	83c18793          	addi	a5,gp,-1988 # 200001c4 <_impure_ptr>
    936e:	c226                	sw	s1,4(sp)
    9370:	4384                	lw	s1,0(a5)
    9372:	c422                	sw	s0,8(sp)
    9374:	c04a                	sw	s2,0(sp)
    9376:	c606                	sw	ra,12(sp)
    9378:	892a                	mv	s2,a0
    937a:	842e                	mv	s0,a1
    937c:	c489                	beqz	s1,9386 <__swsetup_r+0x1e>
    937e:	4c9c                	lw	a5,24(s1)
    9380:	e399                	bnez	a5,9386 <__swsetup_r+0x1e>
    9382:	8526                	mv	a0,s1
    9384:	2685                	jal	96e4 <__sinit>
    9386:	00001797          	auipc	a5,0x1
    938a:	43678793          	addi	a5,a5,1078 # a7bc <__sf_fake_stdin>
    938e:	02f41c63          	bne	s0,a5,93c6 <__swsetup_r+0x5e>
    9392:	40c0                	lw	s0,4(s1)
    9394:	00c41703          	lh	a4,12(s0)
    9398:	01071793          	slli	a5,a4,0x10
    939c:	83c1                	srli	a5,a5,0x10
    939e:	0087f693          	andi	a3,a5,8
    93a2:	eebd                	bnez	a3,9420 <__swsetup_r+0xb8>
    93a4:	0107f693          	andi	a3,a5,16
    93a8:	ee9d                	bnez	a3,93e6 <__swsetup_r+0x7e>
    93aa:	47a5                	li	a5,9
    93ac:	00f92023          	sw	a5,0(s2)
    93b0:	04076713          	ori	a4,a4,64
    93b4:	00e41623          	sh	a4,12(s0)
    93b8:	557d                	li	a0,-1
    93ba:	40b2                	lw	ra,12(sp)
    93bc:	4422                	lw	s0,8(sp)
    93be:	4492                	lw	s1,4(sp)
    93c0:	4902                	lw	s2,0(sp)
    93c2:	0141                	addi	sp,sp,16
    93c4:	8082                	ret
    93c6:	00001797          	auipc	a5,0x1
    93ca:	41678793          	addi	a5,a5,1046 # a7dc <__sf_fake_stdout>
    93ce:	00f41463          	bne	s0,a5,93d6 <__swsetup_r+0x6e>
    93d2:	4480                	lw	s0,8(s1)
    93d4:	b7c1                	j	9394 <__swsetup_r+0x2c>
    93d6:	00001797          	auipc	a5,0x1
    93da:	3c678793          	addi	a5,a5,966 # a79c <__sf_fake_stderr>
    93de:	faf41be3          	bne	s0,a5,9394 <__swsetup_r+0x2c>
    93e2:	44c0                	lw	s0,12(s1)
    93e4:	bf45                	j	9394 <__swsetup_r+0x2c>
    93e6:	8b91                	andi	a5,a5,4
    93e8:	c795                	beqz	a5,9414 <__swsetup_r+0xac>
    93ea:	584c                	lw	a1,52(s0)
    93ec:	c991                	beqz	a1,9400 <__swsetup_r+0x98>
    93ee:	04440793          	addi	a5,s0,68
    93f2:	00f58563          	beq	a1,a5,93fc <__swsetup_r+0x94>
    93f6:	854a                	mv	a0,s2
    93f8:	d10ff0ef          	jal	ra,8908 <_free_r>
    93fc:	02042a23          	sw	zero,52(s0)
    9400:	00c45783          	lhu	a5,12(s0)
    9404:	00042223          	sw	zero,4(s0)
    9408:	fdb7f793          	andi	a5,a5,-37
    940c:	00f41623          	sh	a5,12(s0)
    9410:	481c                	lw	a5,16(s0)
    9412:	c01c                	sw	a5,0(s0)
    9414:	00c45783          	lhu	a5,12(s0)
    9418:	0087e793          	ori	a5,a5,8
    941c:	00f41623          	sh	a5,12(s0)
    9420:	481c                	lw	a5,16(s0)
    9422:	ef81                	bnez	a5,943a <__swsetup_r+0xd2>
    9424:	00c45783          	lhu	a5,12(s0)
    9428:	20000713          	li	a4,512
    942c:	2807f793          	andi	a5,a5,640
    9430:	00e78563          	beq	a5,a4,943a <__swsetup_r+0xd2>
    9434:	85a2                	mv	a1,s0
    9436:	854a                	mv	a0,s2
    9438:	29b5                	jal	98b4 <__smakebuf_r>
    943a:	00c45783          	lhu	a5,12(s0)
    943e:	0017f713          	andi	a4,a5,1
    9442:	c705                	beqz	a4,946a <__swsetup_r+0x102>
    9444:	485c                	lw	a5,20(s0)
    9446:	00042423          	sw	zero,8(s0)
    944a:	40f007b3          	neg	a5,a5
    944e:	cc1c                	sw	a5,24(s0)
    9450:	481c                	lw	a5,16(s0)
    9452:	4501                	li	a0,0
    9454:	f3bd                	bnez	a5,93ba <__swsetup_r+0x52>
    9456:	00c41783          	lh	a5,12(s0)
    945a:	0807f713          	andi	a4,a5,128
    945e:	df31                	beqz	a4,93ba <__swsetup_r+0x52>
    9460:	0407e793          	ori	a5,a5,64
    9464:	00f41623          	sh	a5,12(s0)
    9468:	bf81                	j	93b8 <__swsetup_r+0x50>
    946a:	8b89                	andi	a5,a5,2
    946c:	4701                	li	a4,0
    946e:	e391                	bnez	a5,9472 <__swsetup_r+0x10a>
    9470:	4858                	lw	a4,20(s0)
    9472:	c418                	sw	a4,8(s0)
    9474:	bff1                	j	9450 <__swsetup_r+0xe8>

00009476 <abort>:
    9476:	1141                	addi	sp,sp,-16
    9478:	4519                	li	a0,6
    947a:	c606                	sw	ra,12(sp)
    947c:	2ba1                	jal	99d4 <raise>
    947e:	4505                	li	a0,1
    9480:	013000ef          	jal	ra,9c92 <_exit>

00009484 <__sflush_r>:
    9484:	00c5d783          	lhu	a5,12(a1)
    9488:	1101                	addi	sp,sp,-32
    948a:	cc22                	sw	s0,24(sp)
    948c:	ca26                	sw	s1,20(sp)
    948e:	ce06                	sw	ra,28(sp)
    9490:	c84a                	sw	s2,16(sp)
    9492:	c64e                	sw	s3,12(sp)
    9494:	0087f713          	andi	a4,a5,8
    9498:	84aa                	mv	s1,a0
    949a:	842e                	mv	s0,a1
    949c:	ef79                	bnez	a4,957a <__sflush_r+0xf6>
    949e:	41d8                	lw	a4,4(a1)
    94a0:	00e04d63          	bgtz	a4,94ba <__sflush_r+0x36>
    94a4:	41b8                	lw	a4,64(a1)
    94a6:	00e04a63          	bgtz	a4,94ba <__sflush_r+0x36>
    94aa:	4501                	li	a0,0
    94ac:	40f2                	lw	ra,28(sp)
    94ae:	4462                	lw	s0,24(sp)
    94b0:	44d2                	lw	s1,20(sp)
    94b2:	4942                	lw	s2,16(sp)
    94b4:	49b2                	lw	s3,12(sp)
    94b6:	6105                	addi	sp,sp,32
    94b8:	8082                	ret
    94ba:	5458                	lw	a4,44(s0)
    94bc:	d77d                	beqz	a4,94aa <__sflush_r+0x26>
    94be:	0004a903          	lw	s2,0(s1)
    94c2:	01379693          	slli	a3,a5,0x13
    94c6:	0004a023          	sw	zero,0(s1)
    94ca:	0606de63          	bgez	a3,9546 <__sflush_r+0xc2>
    94ce:	4870                	lw	a2,84(s0)
    94d0:	00c45783          	lhu	a5,12(s0)
    94d4:	8b91                	andi	a5,a5,4
    94d6:	c799                	beqz	a5,94e4 <__sflush_r+0x60>
    94d8:	405c                	lw	a5,4(s0)
    94da:	8e1d                	sub	a2,a2,a5
    94dc:	585c                	lw	a5,52(s0)
    94de:	c399                	beqz	a5,94e4 <__sflush_r+0x60>
    94e0:	403c                	lw	a5,64(s0)
    94e2:	8e1d                	sub	a2,a2,a5
    94e4:	545c                	lw	a5,44(s0)
    94e6:	500c                	lw	a1,32(s0)
    94e8:	4681                	li	a3,0
    94ea:	8526                	mv	a0,s1
    94ec:	9782                	jalr	a5
    94ee:	57fd                	li	a5,-1
    94f0:	00c45703          	lhu	a4,12(s0)
    94f4:	00f51d63          	bne	a0,a5,950e <__sflush_r+0x8a>
    94f8:	4094                	lw	a3,0(s1)
    94fa:	47f5                	li	a5,29
    94fc:	06d7e963          	bltu	a5,a3,956e <__sflush_r+0xea>
    9500:	204007b7          	lui	a5,0x20400
    9504:	0785                	addi	a5,a5,1
    9506:	00d7d7b3          	srl	a5,a5,a3
    950a:	8b85                	andi	a5,a5,1
    950c:	c3ad                	beqz	a5,956e <__sflush_r+0xea>
    950e:	481c                	lw	a5,16(s0)
    9510:	00042223          	sw	zero,4(s0)
    9514:	c01c                	sw	a5,0(s0)
    9516:	01371793          	slli	a5,a4,0x13
    951a:	0007d863          	bgez	a5,952a <__sflush_r+0xa6>
    951e:	57fd                	li	a5,-1
    9520:	00f51463          	bne	a0,a5,9528 <__sflush_r+0xa4>
    9524:	409c                	lw	a5,0(s1)
    9526:	e391                	bnez	a5,952a <__sflush_r+0xa6>
    9528:	c868                	sw	a0,84(s0)
    952a:	584c                	lw	a1,52(s0)
    952c:	0124a023          	sw	s2,0(s1)
    9530:	ddad                	beqz	a1,94aa <__sflush_r+0x26>
    9532:	04440793          	addi	a5,s0,68
    9536:	00f58563          	beq	a1,a5,9540 <__sflush_r+0xbc>
    953a:	8526                	mv	a0,s1
    953c:	bccff0ef          	jal	ra,8908 <_free_r>
    9540:	02042a23          	sw	zero,52(s0)
    9544:	b79d                	j	94aa <__sflush_r+0x26>
    9546:	500c                	lw	a1,32(s0)
    9548:	4601                	li	a2,0
    954a:	4685                	li	a3,1
    954c:	8526                	mv	a0,s1
    954e:	9702                	jalr	a4
    9550:	57fd                	li	a5,-1
    9552:	862a                	mv	a2,a0
    9554:	f6f51ee3          	bne	a0,a5,94d0 <__sflush_r+0x4c>
    9558:	409c                	lw	a5,0(s1)
    955a:	dbbd                	beqz	a5,94d0 <__sflush_r+0x4c>
    955c:	4775                	li	a4,29
    955e:	00e78563          	beq	a5,a4,9568 <__sflush_r+0xe4>
    9562:	4759                	li	a4,22
    9564:	04e79463          	bne	a5,a4,95ac <__sflush_r+0x128>
    9568:	0124a023          	sw	s2,0(s1)
    956c:	bf3d                	j	94aa <__sflush_r+0x26>
    956e:	04076713          	ori	a4,a4,64
    9572:	00e41623          	sh	a4,12(s0)
    9576:	557d                	li	a0,-1
    9578:	bf15                	j	94ac <__sflush_r+0x28>
    957a:	0105a983          	lw	s3,16(a1)
    957e:	f20986e3          	beqz	s3,94aa <__sflush_r+0x26>
    9582:	0005a903          	lw	s2,0(a1)
    9586:	8b8d                	andi	a5,a5,3
    9588:	0135a023          	sw	s3,0(a1)
    958c:	41390933          	sub	s2,s2,s3
    9590:	4701                	li	a4,0
    9592:	e391                	bnez	a5,9596 <__sflush_r+0x112>
    9594:	49d8                	lw	a4,20(a1)
    9596:	c418                	sw	a4,8(s0)
    9598:	f12059e3          	blez	s2,94aa <__sflush_r+0x26>
    959c:	541c                	lw	a5,40(s0)
    959e:	500c                	lw	a1,32(s0)
    95a0:	86ca                	mv	a3,s2
    95a2:	864e                	mv	a2,s3
    95a4:	8526                	mv	a0,s1
    95a6:	9782                	jalr	a5
    95a8:	00a04963          	bgtz	a0,95ba <__sflush_r+0x136>
    95ac:	00c45783          	lhu	a5,12(s0)
    95b0:	0407e793          	ori	a5,a5,64
    95b4:	00f41623          	sh	a5,12(s0)
    95b8:	bf7d                	j	9576 <__sflush_r+0xf2>
    95ba:	99aa                	add	s3,s3,a0
    95bc:	40a90933          	sub	s2,s2,a0
    95c0:	bfe1                	j	9598 <__sflush_r+0x114>

000095c2 <_fflush_r>:
    95c2:	499c                	lw	a5,16(a1)
    95c4:	c3a5                	beqz	a5,9624 <_fflush_r+0x62>
    95c6:	1101                	addi	sp,sp,-32
    95c8:	cc22                	sw	s0,24(sp)
    95ca:	ce06                	sw	ra,28(sp)
    95cc:	842a                	mv	s0,a0
    95ce:	c511                	beqz	a0,95da <_fflush_r+0x18>
    95d0:	4d1c                	lw	a5,24(a0)
    95d2:	e781                	bnez	a5,95da <_fflush_r+0x18>
    95d4:	c62e                	sw	a1,12(sp)
    95d6:	2239                	jal	96e4 <__sinit>
    95d8:	45b2                	lw	a1,12(sp)
    95da:	00001797          	auipc	a5,0x1
    95de:	1e278793          	addi	a5,a5,482 # a7bc <__sf_fake_stdin>
    95e2:	00f59c63          	bne	a1,a5,95fa <_fflush_r+0x38>
    95e6:	404c                	lw	a1,4(s0)
    95e8:	00c59783          	lh	a5,12(a1)
    95ec:	c79d                	beqz	a5,961a <_fflush_r+0x58>
    95ee:	8522                	mv	a0,s0
    95f0:	4462                	lw	s0,24(sp)
    95f2:	40f2                	lw	ra,28(sp)
    95f4:	6105                	addi	sp,sp,32
    95f6:	e8fff06f          	j	9484 <__sflush_r>
    95fa:	00001797          	auipc	a5,0x1
    95fe:	1e278793          	addi	a5,a5,482 # a7dc <__sf_fake_stdout>
    9602:	00f59463          	bne	a1,a5,960a <_fflush_r+0x48>
    9606:	440c                	lw	a1,8(s0)
    9608:	b7c5                	j	95e8 <_fflush_r+0x26>
    960a:	00001797          	auipc	a5,0x1
    960e:	19278793          	addi	a5,a5,402 # a79c <__sf_fake_stderr>
    9612:	fcf59be3          	bne	a1,a5,95e8 <_fflush_r+0x26>
    9616:	444c                	lw	a1,12(s0)
    9618:	bfc1                	j	95e8 <_fflush_r+0x26>
    961a:	40f2                	lw	ra,28(sp)
    961c:	4462                	lw	s0,24(sp)
    961e:	4501                	li	a0,0
    9620:	6105                	addi	sp,sp,32
    9622:	8082                	ret
    9624:	4501                	li	a0,0
    9626:	8082                	ret

00009628 <std>:
    9628:	1141                	addi	sp,sp,-16
    962a:	c422                	sw	s0,8(sp)
    962c:	c606                	sw	ra,12(sp)
    962e:	842a                	mv	s0,a0
    9630:	00b51623          	sh	a1,12(a0)
    9634:	00c51723          	sh	a2,14(a0)
    9638:	00052023          	sw	zero,0(a0)
    963c:	00052223          	sw	zero,4(a0)
    9640:	00052423          	sw	zero,8(a0)
    9644:	06052223          	sw	zero,100(a0)
    9648:	00052823          	sw	zero,16(a0)
    964c:	00052a23          	sw	zero,20(a0)
    9650:	00052c23          	sw	zero,24(a0)
    9654:	4621                	li	a2,8
    9656:	4581                	li	a1,0
    9658:	05c50513          	addi	a0,a0,92
    965c:	ba5f60ef          	jal	ra,200 <memset>
    9660:	00000797          	auipc	a5,0x0
    9664:	3b478793          	addi	a5,a5,948 # 9a14 <__sread>
    9668:	d05c                	sw	a5,36(s0)
    966a:	00000797          	auipc	a5,0x0
    966e:	3da78793          	addi	a5,a5,986 # 9a44 <__swrite>
    9672:	d41c                	sw	a5,40(s0)
    9674:	00000797          	auipc	a5,0x0
    9678:	41e78793          	addi	a5,a5,1054 # 9a92 <__sseek>
    967c:	d45c                	sw	a5,44(s0)
    967e:	00000797          	auipc	a5,0x0
    9682:	44a78793          	addi	a5,a5,1098 # 9ac8 <__sclose>
    9686:	d000                	sw	s0,32(s0)
    9688:	d81c                	sw	a5,48(s0)
    968a:	40b2                	lw	ra,12(sp)
    968c:	4422                	lw	s0,8(sp)
    968e:	0141                	addi	sp,sp,16
    9690:	8082                	ret

00009692 <_cleanup_r>:
    9692:	00000597          	auipc	a1,0x0
    9696:	f3058593          	addi	a1,a1,-208 # 95c2 <_fflush_r>
    969a:	aa99                	j	97f0 <_fwalk_reent>

0000969c <__sfmoreglue>:
    969c:	1141                	addi	sp,sp,-16
    969e:	c226                	sw	s1,4(sp)
    96a0:	06800613          	li	a2,104
    96a4:	fff58493          	addi	s1,a1,-1
    96a8:	02c484b3          	mul	s1,s1,a2
    96ac:	c04a                	sw	s2,0(sp)
    96ae:	892e                	mv	s2,a1
    96b0:	c422                	sw	s0,8(sp)
    96b2:	c606                	sw	ra,12(sp)
    96b4:	07448593          	addi	a1,s1,116
    96b8:	af8ff0ef          	jal	ra,89b0 <_malloc_r>
    96bc:	842a                	mv	s0,a0
    96be:	cd01                	beqz	a0,96d6 <__sfmoreglue+0x3a>
    96c0:	00052023          	sw	zero,0(a0)
    96c4:	01252223          	sw	s2,4(a0)
    96c8:	0531                	addi	a0,a0,12
    96ca:	c408                	sw	a0,8(s0)
    96cc:	06848613          	addi	a2,s1,104
    96d0:	4581                	li	a1,0
    96d2:	b2ff60ef          	jal	ra,200 <memset>
    96d6:	8522                	mv	a0,s0
    96d8:	40b2                	lw	ra,12(sp)
    96da:	4422                	lw	s0,8(sp)
    96dc:	4492                	lw	s1,4(sp)
    96de:	4902                	lw	s2,0(sp)
    96e0:	0141                	addi	sp,sp,16
    96e2:	8082                	ret

000096e4 <__sinit>:
    96e4:	4d1c                	lw	a5,24(a0)
    96e6:	e7a5                	bnez	a5,974e <__sinit+0x6a>
    96e8:	1141                	addi	sp,sp,-16
    96ea:	c606                	sw	ra,12(sp)
    96ec:	c422                	sw	s0,8(sp)
    96ee:	00000797          	auipc	a5,0x0
    96f2:	fa478793          	addi	a5,a5,-92 # 9692 <_cleanup_r>
    96f6:	d51c                	sw	a5,40(a0)
    96f8:	84c18793          	addi	a5,gp,-1972 # 200001d4 <_global_impure_ptr>
    96fc:	439c                	lw	a5,0(a5)
    96fe:	04052423          	sw	zero,72(a0)
    9702:	04052623          	sw	zero,76(a0)
    9706:	04052823          	sw	zero,80(a0)
    970a:	00f51463          	bne	a0,a5,9712 <__sinit+0x2e>
    970e:	4785                	li	a5,1
    9710:	cd1c                	sw	a5,24(a0)
    9712:	842a                	mv	s0,a0
    9714:	2835                	jal	9750 <__sfp>
    9716:	c048                	sw	a0,4(s0)
    9718:	8522                	mv	a0,s0
    971a:	281d                	jal	9750 <__sfp>
    971c:	c408                	sw	a0,8(s0)
    971e:	8522                	mv	a0,s0
    9720:	2805                	jal	9750 <__sfp>
    9722:	c448                	sw	a0,12(s0)
    9724:	4048                	lw	a0,4(s0)
    9726:	4601                	li	a2,0
    9728:	4591                	li	a1,4
    972a:	effff0ef          	jal	ra,9628 <std>
    972e:	4408                	lw	a0,8(s0)
    9730:	4605                	li	a2,1
    9732:	45a5                	li	a1,9
    9734:	ef5ff0ef          	jal	ra,9628 <std>
    9738:	4448                	lw	a0,12(s0)
    973a:	4609                	li	a2,2
    973c:	45c9                	li	a1,18
    973e:	eebff0ef          	jal	ra,9628 <std>
    9742:	4785                	li	a5,1
    9744:	cc1c                	sw	a5,24(s0)
    9746:	40b2                	lw	ra,12(sp)
    9748:	4422                	lw	s0,8(sp)
    974a:	0141                	addi	sp,sp,16
    974c:	8082                	ret
    974e:	8082                	ret

00009750 <__sfp>:
    9750:	1141                	addi	sp,sp,-16
    9752:	84c18793          	addi	a5,gp,-1972 # 200001d4 <_global_impure_ptr>
    9756:	c226                	sw	s1,4(sp)
    9758:	4384                	lw	s1,0(a5)
    975a:	c04a                	sw	s2,0(sp)
    975c:	c606                	sw	ra,12(sp)
    975e:	4c9c                	lw	a5,24(s1)
    9760:	c422                	sw	s0,8(sp)
    9762:	892a                	mv	s2,a0
    9764:	e781                	bnez	a5,976c <__sfp+0x1c>
    9766:	8526                	mv	a0,s1
    9768:	f7dff0ef          	jal	ra,96e4 <__sinit>
    976c:	04848493          	addi	s1,s1,72
    9770:	4480                	lw	s0,8(s1)
    9772:	40dc                	lw	a5,4(s1)
    9774:	17fd                	addi	a5,a5,-1
    9776:	0007d663          	bgez	a5,9782 <__sfp+0x32>
    977a:	409c                	lw	a5,0(s1)
    977c:	cfb9                	beqz	a5,97da <__sfp+0x8a>
    977e:	4084                	lw	s1,0(s1)
    9780:	bfc5                	j	9770 <__sfp+0x20>
    9782:	00c41703          	lh	a4,12(s0)
    9786:	e739                	bnez	a4,97d4 <__sfp+0x84>
    9788:	77c1                	lui	a5,0xffff0
    978a:	0785                	addi	a5,a5,1
    978c:	06042223          	sw	zero,100(s0)
    9790:	00042023          	sw	zero,0(s0)
    9794:	00042223          	sw	zero,4(s0)
    9798:	00042423          	sw	zero,8(s0)
    979c:	c45c                	sw	a5,12(s0)
    979e:	00042823          	sw	zero,16(s0)
    97a2:	00042a23          	sw	zero,20(s0)
    97a6:	00042c23          	sw	zero,24(s0)
    97aa:	4621                	li	a2,8
    97ac:	4581                	li	a1,0
    97ae:	05c40513          	addi	a0,s0,92
    97b2:	a4ff60ef          	jal	ra,200 <memset>
    97b6:	02042a23          	sw	zero,52(s0)
    97ba:	02042c23          	sw	zero,56(s0)
    97be:	04042423          	sw	zero,72(s0)
    97c2:	04042623          	sw	zero,76(s0)
    97c6:	8522                	mv	a0,s0
    97c8:	40b2                	lw	ra,12(sp)
    97ca:	4422                	lw	s0,8(sp)
    97cc:	4492                	lw	s1,4(sp)
    97ce:	4902                	lw	s2,0(sp)
    97d0:	0141                	addi	sp,sp,16
    97d2:	8082                	ret
    97d4:	06840413          	addi	s0,s0,104
    97d8:	bf71                	j	9774 <__sfp+0x24>
    97da:	4591                	li	a1,4
    97dc:	854a                	mv	a0,s2
    97de:	ebfff0ef          	jal	ra,969c <__sfmoreglue>
    97e2:	c088                	sw	a0,0(s1)
    97e4:	fd49                	bnez	a0,977e <__sfp+0x2e>
    97e6:	47b1                	li	a5,12
    97e8:	00f92023          	sw	a5,0(s2)
    97ec:	4401                	li	s0,0
    97ee:	bfe1                	j	97c6 <__sfp+0x76>

000097f0 <_fwalk_reent>:
    97f0:	7179                	addi	sp,sp,-48
    97f2:	d422                	sw	s0,40(sp)
    97f4:	d04a                	sw	s2,32(sp)
    97f6:	cc52                	sw	s4,24(sp)
    97f8:	ca56                	sw	s5,20(sp)
    97fa:	c85a                	sw	s6,16(sp)
    97fc:	c65e                	sw	s7,12(sp)
    97fe:	d606                	sw	ra,44(sp)
    9800:	d226                	sw	s1,36(sp)
    9802:	ce4e                	sw	s3,28(sp)
    9804:	8a2a                	mv	s4,a0
    9806:	8aae                	mv	s5,a1
    9808:	04850413          	addi	s0,a0,72
    980c:	4901                	li	s2,0
    980e:	4b05                	li	s6,1
    9810:	5bfd                	li	s7,-1
    9812:	ec09                	bnez	s0,982c <_fwalk_reent+0x3c>
    9814:	50b2                	lw	ra,44(sp)
    9816:	5422                	lw	s0,40(sp)
    9818:	854a                	mv	a0,s2
    981a:	5492                	lw	s1,36(sp)
    981c:	5902                	lw	s2,32(sp)
    981e:	49f2                	lw	s3,28(sp)
    9820:	4a62                	lw	s4,24(sp)
    9822:	4ad2                	lw	s5,20(sp)
    9824:	4b42                	lw	s6,16(sp)
    9826:	4bb2                	lw	s7,12(sp)
    9828:	6145                	addi	sp,sp,48
    982a:	8082                	ret
    982c:	4404                	lw	s1,8(s0)
    982e:	00442983          	lw	s3,4(s0)
    9832:	19fd                	addi	s3,s3,-1
    9834:	0009d463          	bgez	s3,983c <_fwalk_reent+0x4c>
    9838:	4000                	lw	s0,0(s0)
    983a:	bfe1                	j	9812 <_fwalk_reent+0x22>
    983c:	00c4d783          	lhu	a5,12(s1)
    9840:	00fb7b63          	bgeu	s6,a5,9856 <_fwalk_reent+0x66>
    9844:	00e49783          	lh	a5,14(s1)
    9848:	01778763          	beq	a5,s7,9856 <_fwalk_reent+0x66>
    984c:	85a6                	mv	a1,s1
    984e:	8552                	mv	a0,s4
    9850:	9a82                	jalr	s5
    9852:	00a96933          	or	s2,s2,a0
    9856:	06848493          	addi	s1,s1,104
    985a:	bfe1                	j	9832 <_fwalk_reent+0x42>

0000985c <__swhatbuf_r>:
    985c:	7119                	addi	sp,sp,-128
    985e:	daa6                	sw	s1,116(sp)
    9860:	84ae                	mv	s1,a1
    9862:	00e59583          	lh	a1,14(a1)
    9866:	dca2                	sw	s0,120(sp)
    9868:	de86                	sw	ra,124(sp)
    986a:	8432                	mv	s0,a2
    986c:	0005dc63          	bgez	a1,9884 <__swhatbuf_r+0x28>
    9870:	00c4d783          	lhu	a5,12(s1)
    9874:	0006a023          	sw	zero,0(a3)
    9878:	0807f793          	andi	a5,a5,128
    987c:	e39d                	bnez	a5,98a2 <__swhatbuf_r+0x46>
    987e:	40000793          	li	a5,1024
    9882:	a015                	j	98a6 <__swhatbuf_r+0x4a>
    9884:	0830                	addi	a2,sp,24
    9886:	c636                	sw	a3,12(sp)
    9888:	2475                	jal	9b34 <_fstat_r>
    988a:	46b2                	lw	a3,12(sp)
    988c:	fe0542e3          	bltz	a0,9870 <__swhatbuf_r+0x14>
    9890:	4772                	lw	a4,28(sp)
    9892:	67bd                	lui	a5,0xf
    9894:	8ff9                	and	a5,a5,a4
    9896:	7779                	lui	a4,0xffffe
    9898:	97ba                	add	a5,a5,a4
    989a:	0017b793          	seqz	a5,a5
    989e:	c29c                	sw	a5,0(a3)
    98a0:	bff9                	j	987e <__swhatbuf_r+0x22>
    98a2:	04000793          	li	a5,64
    98a6:	c01c                	sw	a5,0(s0)
    98a8:	50f6                	lw	ra,124(sp)
    98aa:	5466                	lw	s0,120(sp)
    98ac:	54d6                	lw	s1,116(sp)
    98ae:	4501                	li	a0,0
    98b0:	6109                	addi	sp,sp,128
    98b2:	8082                	ret

000098b4 <__smakebuf_r>:
    98b4:	00c5d783          	lhu	a5,12(a1)
    98b8:	1101                	addi	sp,sp,-32
    98ba:	cc22                	sw	s0,24(sp)
    98bc:	ce06                	sw	ra,28(sp)
    98be:	ca26                	sw	s1,20(sp)
    98c0:	c84a                	sw	s2,16(sp)
    98c2:	8b89                	andi	a5,a5,2
    98c4:	842e                	mv	s0,a1
    98c6:	cf89                	beqz	a5,98e0 <__smakebuf_r+0x2c>
    98c8:	04740793          	addi	a5,s0,71
    98cc:	c01c                	sw	a5,0(s0)
    98ce:	c81c                	sw	a5,16(s0)
    98d0:	4785                	li	a5,1
    98d2:	c85c                	sw	a5,20(s0)
    98d4:	40f2                	lw	ra,28(sp)
    98d6:	4462                	lw	s0,24(sp)
    98d8:	44d2                	lw	s1,20(sp)
    98da:	4942                	lw	s2,16(sp)
    98dc:	6105                	addi	sp,sp,32
    98de:	8082                	ret
    98e0:	0074                	addi	a3,sp,12
    98e2:	0030                	addi	a2,sp,8
    98e4:	84aa                	mv	s1,a0
    98e6:	f77ff0ef          	jal	ra,985c <__swhatbuf_r>
    98ea:	45a2                	lw	a1,8(sp)
    98ec:	892a                	mv	s2,a0
    98ee:	8526                	mv	a0,s1
    98f0:	8c0ff0ef          	jal	ra,89b0 <_malloc_r>
    98f4:	ed01                	bnez	a0,990c <__smakebuf_r+0x58>
    98f6:	00c41783          	lh	a5,12(s0)
    98fa:	2007f713          	andi	a4,a5,512
    98fe:	fb79                	bnez	a4,98d4 <__smakebuf_r+0x20>
    9900:	9bf1                	andi	a5,a5,-4
    9902:	0027e793          	ori	a5,a5,2
    9906:	00f41623          	sh	a5,12(s0)
    990a:	bf7d                	j	98c8 <__smakebuf_r+0x14>
    990c:	00000797          	auipc	a5,0x0
    9910:	d8678793          	addi	a5,a5,-634 # 9692 <_cleanup_r>
    9914:	d49c                	sw	a5,40(s1)
    9916:	00c45783          	lhu	a5,12(s0)
    991a:	c008                	sw	a0,0(s0)
    991c:	c808                	sw	a0,16(s0)
    991e:	0807e793          	ori	a5,a5,128
    9922:	00f41623          	sh	a5,12(s0)
    9926:	47a2                	lw	a5,8(sp)
    9928:	c85c                	sw	a5,20(s0)
    992a:	47b2                	lw	a5,12(sp)
    992c:	cf89                	beqz	a5,9946 <__smakebuf_r+0x92>
    992e:	00e41583          	lh	a1,14(s0)
    9932:	8526                	mv	a0,s1
    9934:	2c0d                	jal	9b66 <_isatty_r>
    9936:	c901                	beqz	a0,9946 <__smakebuf_r+0x92>
    9938:	00c45783          	lhu	a5,12(s0)
    993c:	9bf1                	andi	a5,a5,-4
    993e:	0017e793          	ori	a5,a5,1
    9942:	00f41623          	sh	a5,12(s0)
    9946:	00c45783          	lhu	a5,12(s0)
    994a:	00f96933          	or	s2,s2,a5
    994e:	01241623          	sh	s2,12(s0)
    9952:	b749                	j	98d4 <__smakebuf_r+0x20>

00009954 <memchr>:
    9954:	0ff5f593          	andi	a1,a1,255
    9958:	962a                	add	a2,a2,a0
    995a:	00c51463          	bne	a0,a2,9962 <memchr+0xe>
    995e:	4501                	li	a0,0
    9960:	8082                	ret
    9962:	00054783          	lbu	a5,0(a0)
    9966:	feb78de3          	beq	a5,a1,9960 <memchr+0xc>
    996a:	0505                	addi	a0,a0,1
    996c:	b7fd                	j	995a <memchr+0x6>

0000996e <__malloc_lock>:
    996e:	8082                	ret

00009970 <__malloc_unlock>:
    9970:	8082                	ret

00009972 <_raise_r>:
    9972:	47fd                	li	a5,31
    9974:	00b7f663          	bgeu	a5,a1,9980 <_raise_r+0xe>
    9978:	47d9                	li	a5,22
    997a:	c11c                	sw	a5,0(a0)
    997c:	557d                	li	a0,-1
    997e:	8082                	ret
    9980:	417c                	lw	a5,68(a0)
    9982:	1101                	addi	sp,sp,-32
    9984:	cc22                	sw	s0,24(sp)
    9986:	ce06                	sw	ra,28(sp)
    9988:	862e                	mv	a2,a1
    998a:	842a                	mv	s0,a0
    998c:	c791                	beqz	a5,9998 <_raise_r+0x26>
    998e:	00259713          	slli	a4,a1,0x2
    9992:	97ba                	add	a5,a5,a4
    9994:	4398                	lw	a4,0(a5)
    9996:	eb19                	bnez	a4,99ac <_raise_r+0x3a>
    9998:	8522                	mv	a0,s0
    999a:	c632                	sw	a2,12(sp)
    999c:	289d                	jal	9a12 <_getpid_r>
    999e:	85aa                	mv	a1,a0
    99a0:	8522                	mv	a0,s0
    99a2:	4462                	lw	s0,24(sp)
    99a4:	4632                	lw	a2,12(sp)
    99a6:	40f2                	lw	ra,28(sp)
    99a8:	6105                	addi	sp,sp,32
    99aa:	a81d                	j	99e0 <_kill_r>
    99ac:	4685                	li	a3,1
    99ae:	4501                	li	a0,0
    99b0:	00d70863          	beq	a4,a3,99c0 <_raise_r+0x4e>
    99b4:	56fd                	li	a3,-1
    99b6:	00d71963          	bne	a4,a3,99c8 <_raise_r+0x56>
    99ba:	47d9                	li	a5,22
    99bc:	c01c                	sw	a5,0(s0)
    99be:	4505                	li	a0,1
    99c0:	40f2                	lw	ra,28(sp)
    99c2:	4462                	lw	s0,24(sp)
    99c4:	6105                	addi	sp,sp,32
    99c6:	8082                	ret
    99c8:	852e                	mv	a0,a1
    99ca:	0007a023          	sw	zero,0(a5)
    99ce:	9702                	jalr	a4
    99d0:	4501                	li	a0,0
    99d2:	b7fd                	j	99c0 <_raise_r+0x4e>

000099d4 <raise>:
    99d4:	83c18793          	addi	a5,gp,-1988 # 200001c4 <_impure_ptr>
    99d8:	85aa                	mv	a1,a0
    99da:	4388                	lw	a0,0(a5)
    99dc:	f97ff06f          	j	9972 <_raise_r>

000099e0 <_kill_r>:
    99e0:	1141                	addi	sp,sp,-16
    99e2:	c422                	sw	s0,8(sp)
    99e4:	842a                	mv	s0,a0
    99e6:	852e                	mv	a0,a1
    99e8:	85b2                	mv	a1,a2
    99ea:	20002797          	auipc	a5,0x20002
    99ee:	d407a123          	sw	zero,-702(a5) # 2000b72c <errno>
    99f2:	c606                	sw	ra,12(sp)
    99f4:	24a9                	jal	9c3e <_kill>
    99f6:	57fd                	li	a5,-1
    99f8:	00f51963          	bne	a0,a5,9a0a <_kill_r+0x2a>
    99fc:	20002797          	auipc	a5,0x20002
    9a00:	d3078793          	addi	a5,a5,-720 # 2000b72c <errno>
    9a04:	439c                	lw	a5,0(a5)
    9a06:	c391                	beqz	a5,9a0a <_kill_r+0x2a>
    9a08:	c01c                	sw	a5,0(s0)
    9a0a:	40b2                	lw	ra,12(sp)
    9a0c:	4422                	lw	s0,8(sp)
    9a0e:	0141                	addi	sp,sp,16
    9a10:	8082                	ret

00009a12 <_getpid_r>:
    9a12:	a431                	j	9c1e <_getpid>

00009a14 <__sread>:
    9a14:	1141                	addi	sp,sp,-16
    9a16:	c422                	sw	s0,8(sp)
    9a18:	842e                	mv	s0,a1
    9a1a:	00e59583          	lh	a1,14(a1)
    9a1e:	c606                	sw	ra,12(sp)
    9a20:	226d                	jal	9bca <_read_r>
    9a22:	00054963          	bltz	a0,9a34 <__sread+0x20>
    9a26:	487c                	lw	a5,84(s0)
    9a28:	97aa                	add	a5,a5,a0
    9a2a:	c87c                	sw	a5,84(s0)
    9a2c:	40b2                	lw	ra,12(sp)
    9a2e:	4422                	lw	s0,8(sp)
    9a30:	0141                	addi	sp,sp,16
    9a32:	8082                	ret
    9a34:	00c45783          	lhu	a5,12(s0)
    9a38:	777d                	lui	a4,0xfffff
    9a3a:	177d                	addi	a4,a4,-1
    9a3c:	8ff9                	and	a5,a5,a4
    9a3e:	00f41623          	sh	a5,12(s0)
    9a42:	b7ed                	j	9a2c <__sread+0x18>

00009a44 <__swrite>:
    9a44:	00c5d783          	lhu	a5,12(a1)
    9a48:	1101                	addi	sp,sp,-32
    9a4a:	cc22                	sw	s0,24(sp)
    9a4c:	ca26                	sw	s1,20(sp)
    9a4e:	c84a                	sw	s2,16(sp)
    9a50:	c64e                	sw	s3,12(sp)
    9a52:	ce06                	sw	ra,28(sp)
    9a54:	1007f793          	andi	a5,a5,256
    9a58:	84aa                	mv	s1,a0
    9a5a:	842e                	mv	s0,a1
    9a5c:	8932                	mv	s2,a2
    9a5e:	89b6                	mv	s3,a3
    9a60:	c791                	beqz	a5,9a6c <__swrite+0x28>
    9a62:	00e59583          	lh	a1,14(a1)
    9a66:	4689                	li	a3,2
    9a68:	4601                	li	a2,0
    9a6a:	2235                	jal	9b96 <_lseek_r>
    9a6c:	00c45783          	lhu	a5,12(s0)
    9a70:	777d                	lui	a4,0xfffff
    9a72:	177d                	addi	a4,a4,-1
    9a74:	8ff9                	and	a5,a5,a4
    9a76:	00f41623          	sh	a5,12(s0)
    9a7a:	00e41583          	lh	a1,14(s0)
    9a7e:	4462                	lw	s0,24(sp)
    9a80:	40f2                	lw	ra,28(sp)
    9a82:	86ce                	mv	a3,s3
    9a84:	864a                	mv	a2,s2
    9a86:	49b2                	lw	s3,12(sp)
    9a88:	4942                	lw	s2,16(sp)
    9a8a:	8526                	mv	a0,s1
    9a8c:	44d2                	lw	s1,20(sp)
    9a8e:	6105                	addi	sp,sp,32
    9a90:	a83d                	j	9ace <_write_r>

00009a92 <__sseek>:
    9a92:	1141                	addi	sp,sp,-16
    9a94:	c422                	sw	s0,8(sp)
    9a96:	842e                	mv	s0,a1
    9a98:	00e59583          	lh	a1,14(a1)
    9a9c:	c606                	sw	ra,12(sp)
    9a9e:	28e5                	jal	9b96 <_lseek_r>
    9aa0:	57fd                	li	a5,-1
    9aa2:	00c45703          	lhu	a4,12(s0)
    9aa6:	00f51b63          	bne	a0,a5,9abc <__sseek+0x2a>
    9aaa:	77fd                	lui	a5,0xfffff
    9aac:	17fd                	addi	a5,a5,-1
    9aae:	8ff9                	and	a5,a5,a4
    9ab0:	00f41623          	sh	a5,12(s0)
    9ab4:	40b2                	lw	ra,12(sp)
    9ab6:	4422                	lw	s0,8(sp)
    9ab8:	0141                	addi	sp,sp,16
    9aba:	8082                	ret
    9abc:	6785                	lui	a5,0x1
    9abe:	8fd9                	or	a5,a5,a4
    9ac0:	00f41623          	sh	a5,12(s0)
    9ac4:	c868                	sw	a0,84(s0)
    9ac6:	b7fd                	j	9ab4 <__sseek+0x22>

00009ac8 <__sclose>:
    9ac8:	00e59583          	lh	a1,14(a1)
    9acc:	a825                	j	9b04 <_close_r>

00009ace <_write_r>:
    9ace:	1141                	addi	sp,sp,-16
    9ad0:	c422                	sw	s0,8(sp)
    9ad2:	842a                	mv	s0,a0
    9ad4:	852e                	mv	a0,a1
    9ad6:	85b2                	mv	a1,a2
    9ad8:	8636                	mv	a2,a3
    9ada:	20002797          	auipc	a5,0x20002
    9ade:	c407a923          	sw	zero,-942(a5) # 2000b72c <errno>
    9ae2:	c606                	sw	ra,12(sp)
    9ae4:	ef5f70ef          	jal	ra,19d8 <_write>
    9ae8:	57fd                	li	a5,-1
    9aea:	00f51963          	bne	a0,a5,9afc <_write_r+0x2e>
    9aee:	20002797          	auipc	a5,0x20002
    9af2:	c3e78793          	addi	a5,a5,-962 # 2000b72c <errno>
    9af6:	439c                	lw	a5,0(a5)
    9af8:	c391                	beqz	a5,9afc <_write_r+0x2e>
    9afa:	c01c                	sw	a5,0(s0)
    9afc:	40b2                	lw	ra,12(sp)
    9afe:	4422                	lw	s0,8(sp)
    9b00:	0141                	addi	sp,sp,16
    9b02:	8082                	ret

00009b04 <_close_r>:
    9b04:	1141                	addi	sp,sp,-16
    9b06:	c422                	sw	s0,8(sp)
    9b08:	842a                	mv	s0,a0
    9b0a:	852e                	mv	a0,a1
    9b0c:	20002797          	auipc	a5,0x20002
    9b10:	c207a023          	sw	zero,-992(a5) # 2000b72c <errno>
    9b14:	c606                	sw	ra,12(sp)
    9b16:	20e5                	jal	9bfe <_close>
    9b18:	57fd                	li	a5,-1
    9b1a:	00f51963          	bne	a0,a5,9b2c <_close_r+0x28>
    9b1e:	20002797          	auipc	a5,0x20002
    9b22:	c0e78793          	addi	a5,a5,-1010 # 2000b72c <errno>
    9b26:	439c                	lw	a5,0(a5)
    9b28:	c391                	beqz	a5,9b2c <_close_r+0x28>
    9b2a:	c01c                	sw	a5,0(s0)
    9b2c:	40b2                	lw	ra,12(sp)
    9b2e:	4422                	lw	s0,8(sp)
    9b30:	0141                	addi	sp,sp,16
    9b32:	8082                	ret

00009b34 <_fstat_r>:
    9b34:	1141                	addi	sp,sp,-16
    9b36:	c422                	sw	s0,8(sp)
    9b38:	842a                	mv	s0,a0
    9b3a:	852e                	mv	a0,a1
    9b3c:	85b2                	mv	a1,a2
    9b3e:	20002797          	auipc	a5,0x20002
    9b42:	be07a723          	sw	zero,-1042(a5) # 2000b72c <errno>
    9b46:	c606                	sw	ra,12(sp)
    9b48:	20d9                	jal	9c0e <_fstat>
    9b4a:	57fd                	li	a5,-1
    9b4c:	00f51963          	bne	a0,a5,9b5e <_fstat_r+0x2a>
    9b50:	20002797          	auipc	a5,0x20002
    9b54:	bdc78793          	addi	a5,a5,-1060 # 2000b72c <errno>
    9b58:	439c                	lw	a5,0(a5)
    9b5a:	c391                	beqz	a5,9b5e <_fstat_r+0x2a>
    9b5c:	c01c                	sw	a5,0(s0)
    9b5e:	40b2                	lw	ra,12(sp)
    9b60:	4422                	lw	s0,8(sp)
    9b62:	0141                	addi	sp,sp,16
    9b64:	8082                	ret

00009b66 <_isatty_r>:
    9b66:	1141                	addi	sp,sp,-16
    9b68:	c422                	sw	s0,8(sp)
    9b6a:	842a                	mv	s0,a0
    9b6c:	852e                	mv	a0,a1
    9b6e:	20002797          	auipc	a5,0x20002
    9b72:	ba07af23          	sw	zero,-1090(a5) # 2000b72c <errno>
    9b76:	c606                	sw	ra,12(sp)
    9b78:	285d                	jal	9c2e <_isatty>
    9b7a:	57fd                	li	a5,-1
    9b7c:	00f51963          	bne	a0,a5,9b8e <_isatty_r+0x28>
    9b80:	20002797          	auipc	a5,0x20002
    9b84:	bac78793          	addi	a5,a5,-1108 # 2000b72c <errno>
    9b88:	439c                	lw	a5,0(a5)
    9b8a:	c391                	beqz	a5,9b8e <_isatty_r+0x28>
    9b8c:	c01c                	sw	a5,0(s0)
    9b8e:	40b2                	lw	ra,12(sp)
    9b90:	4422                	lw	s0,8(sp)
    9b92:	0141                	addi	sp,sp,16
    9b94:	8082                	ret

00009b96 <_lseek_r>:
    9b96:	1141                	addi	sp,sp,-16
    9b98:	c422                	sw	s0,8(sp)
    9b9a:	842a                	mv	s0,a0
    9b9c:	852e                	mv	a0,a1
    9b9e:	85b2                	mv	a1,a2
    9ba0:	8636                	mv	a2,a3
    9ba2:	20002797          	auipc	a5,0x20002
    9ba6:	b807a523          	sw	zero,-1142(a5) # 2000b72c <errno>
    9baa:	c606                	sw	ra,12(sp)
    9bac:	204d                	jal	9c4e <_lseek>
    9bae:	57fd                	li	a5,-1
    9bb0:	00f51963          	bne	a0,a5,9bc2 <_lseek_r+0x2c>
    9bb4:	20002797          	auipc	a5,0x20002
    9bb8:	b7878793          	addi	a5,a5,-1160 # 2000b72c <errno>
    9bbc:	439c                	lw	a5,0(a5)
    9bbe:	c391                	beqz	a5,9bc2 <_lseek_r+0x2c>
    9bc0:	c01c                	sw	a5,0(s0)
    9bc2:	40b2                	lw	ra,12(sp)
    9bc4:	4422                	lw	s0,8(sp)
    9bc6:	0141                	addi	sp,sp,16
    9bc8:	8082                	ret

00009bca <_read_r>:
    9bca:	1141                	addi	sp,sp,-16
    9bcc:	c422                	sw	s0,8(sp)
    9bce:	842a                	mv	s0,a0
    9bd0:	852e                	mv	a0,a1
    9bd2:	85b2                	mv	a1,a2
    9bd4:	8636                	mv	a2,a3
    9bd6:	20002797          	auipc	a5,0x20002
    9bda:	b407ab23          	sw	zero,-1194(a5) # 2000b72c <errno>
    9bde:	c606                	sw	ra,12(sp)
    9be0:	28bd                	jal	9c5e <_read>
    9be2:	57fd                	li	a5,-1
    9be4:	00f51963          	bne	a0,a5,9bf6 <_read_r+0x2c>
    9be8:	20002797          	auipc	a5,0x20002
    9bec:	b4478793          	addi	a5,a5,-1212 # 2000b72c <errno>
    9bf0:	439c                	lw	a5,0(a5)
    9bf2:	c391                	beqz	a5,9bf6 <_read_r+0x2c>
    9bf4:	c01c                	sw	a5,0(s0)
    9bf6:	40b2                	lw	ra,12(sp)
    9bf8:	4422                	lw	s0,8(sp)
    9bfa:	0141                	addi	sp,sp,16
    9bfc:	8082                	ret

00009bfe <_close>:
    9bfe:	05800793          	li	a5,88
    9c02:	20002717          	auipc	a4,0x20002
    9c06:	b2f72523          	sw	a5,-1238(a4) # 2000b72c <errno>
    9c0a:	557d                	li	a0,-1
    9c0c:	8082                	ret

00009c0e <_fstat>:
    9c0e:	05800793          	li	a5,88
    9c12:	20002717          	auipc	a4,0x20002
    9c16:	b0f72d23          	sw	a5,-1254(a4) # 2000b72c <errno>
    9c1a:	557d                	li	a0,-1
    9c1c:	8082                	ret

00009c1e <_getpid>:
    9c1e:	05800793          	li	a5,88
    9c22:	20002717          	auipc	a4,0x20002
    9c26:	b0f72523          	sw	a5,-1270(a4) # 2000b72c <errno>
    9c2a:	557d                	li	a0,-1
    9c2c:	8082                	ret

00009c2e <_isatty>:
    9c2e:	05800793          	li	a5,88
    9c32:	20002717          	auipc	a4,0x20002
    9c36:	aef72d23          	sw	a5,-1286(a4) # 2000b72c <errno>
    9c3a:	4501                	li	a0,0
    9c3c:	8082                	ret

00009c3e <_kill>:
    9c3e:	05800793          	li	a5,88
    9c42:	20002717          	auipc	a4,0x20002
    9c46:	aef72523          	sw	a5,-1302(a4) # 2000b72c <errno>
    9c4a:	557d                	li	a0,-1
    9c4c:	8082                	ret

00009c4e <_lseek>:
    9c4e:	05800793          	li	a5,88
    9c52:	20002717          	auipc	a4,0x20002
    9c56:	acf72d23          	sw	a5,-1318(a4) # 2000b72c <errno>
    9c5a:	557d                	li	a0,-1
    9c5c:	8082                	ret

00009c5e <_read>:
    9c5e:	05800793          	li	a5,88
    9c62:	20002717          	auipc	a4,0x20002
    9c66:	acf72523          	sw	a5,-1334(a4) # 2000b72c <errno>
    9c6a:	557d                	li	a0,-1
    9c6c:	8082                	ret

00009c6e <_sbrk>:
    9c6e:	87818793          	addi	a5,gp,-1928 # 20000200 <heap_end.1518>
    9c72:	439c                	lw	a5,0(a5)
    9c74:	c791                	beqz	a5,9c80 <_sbrk+0x12>
    9c76:	953e                	add	a0,a0,a5
    9c78:	86a1ac23          	sw	a0,-1928(gp) # 20000200 <heap_end.1518>
    9c7c:	853e                	mv	a0,a5
    9c7e:	8082                	ret
    9c80:	20002797          	auipc	a5,0x20002
    9c84:	ab078793          	addi	a5,a5,-1360 # 2000b730 <_ebss>
    9c88:	953e                	add	a0,a0,a5
    9c8a:	86a1ac23          	sw	a0,-1928(gp) # 20000200 <heap_end.1518>
    9c8e:	853e                	mv	a0,a5
    9c90:	8082                	ret

00009c92 <_exit>:
    9c92:	a001                	j	9c92 <_exit>
    9c94:	6c20                	flw	fs0,88(s0)
    9c96:	6665                	lui	a2,0x19
    9c98:	0074                	addi	a3,sp,12
    9c9a:	0000                	unimp
    9c9c:	6972                	flw	fs2,28(sp)
    9c9e:	00746867          	0x746867
    9ca2:	0000                	unimp
    9ca4:	2d4d4143          	0x2d4d4143
    9ca8:	5049                	c.li	zero,-14
    9caa:	45440053          	0x45440053
    9cae:	4f4d                	li	t5,19
    9cb0:	0000                	unimp
	...

00009cb4 <__func__.6409>:
    9cb4:	746d 7639 3330 5f78 6e69 7469 645f 7076     mt9v03x_init_dvp
    9cc4:	0000 0000 0030 0000 3a44 632f 7261 bb2f     ....0...D:/car/.
    9cd4:	b4f9 d7a1 c9e9 cfe3 cdf1 d7b7 c1ca a3cf     ................
    9ce4:	c9a8 cfe3 cdf1 a3b7 d7a9 c1ca 56cf 2e31     .............V1.
    9cf4:	2f33 f9bb a1b4 e9d7 e3c9 f1cf b7cd cad7     3/..............
    9d04:	cfc1 a8a3 e3c9 f1cf b7cd a9a3 cad7 cfc1     ................
    9d14:	3156 332e 342f 442e 6d65 2f6f 694c 7262     V1.3/4.Demo/Libr
    9d24:	7261 6569 2f73 6568 6566 5f69 6570 6972     aries/hefei_peri
    9d34:	6870 7265 6c61 482f 5f46 544d 5639 3330     pheral/HF_MT9V03
    9d44:	2e58 0063 4f54 3446 3030 2043 6e49 7469     X.c.TOF400C Init
    9d54:	4520 7272 726f 0d21 0000 0000 4f54 3446      Error!.....TOF4
    9d64:	3030 2043 6e49 7469 5320 6375 6563 7373     00C Init Success
    9d74:	0d21 0000                                   !...

00009d78 <tft_ascii>:
	...
    9d88:	0000 0800 0808 0808 0808 0000 0808 0000     ................
    9d98:	4800 2424 0012 0000 0000 0000 0000 0000     .H$$............
    9da8:	0000 4800 4848 247e 2424 247e 2424 0000     ...HHH~$$$~$$$..
    9db8:	0000 3c10 5252 1c12 5030 5250 3c52 1010     ...<RR..0PPRR<..
    9dc8:	0000 2200 1525 0d15 582a 5454 2252 0000     ..."%...*XTTR"..
    9dd8:	0000 0c00 1212 0a12 2576 1929 6e91 0000     ........v%)..n..
    9de8:	0600 0404 0002 0000 0000 0000 0000 0000     ................
    9df8:	4000 1020 0810 0808 0808 1008 2010 0040     .@ .......... @.
    9e08:	0200 0804 1008 1010 1010 0810 0408 0002     ................
    9e18:	0000 0000 0808 1c6b 6b1c 0808 0000 0000     ......k..k......
    9e28:	0000 0000 1000 1010 10fe 1010 0000 0000     ................
	...
    9e44:	0406 0204 0000 0000 0000 0000 007e 0000     ............~...
	...
    9e64:	0606 0000 0000 2040 2020 1010 0808 0408     ......@   ......
    9e74:	0204 0002 0000 1800 4224 4242 4242 4242     ........$BBBBBBB
    9e84:	1824 0000 0000 1000 101c 1010 1010 1010     $...............
    9e94:	7c10 0000 0000 3c00 4242 4042 1020 0408     .|.....<BBB@ ...
    9ea4:	7e42 0000 0000 3c00 4242 2040 2018 4240     B~.....<BB@ . @B
    9eb4:	3c42 0000 0000 2000 3030 2428 2224 20fe     B<..... 00($$". 
    9ec4:	f820 0000 0000 7e00 0202 1e02 4022 4240      ......~...."@@B
    9ed4:	1c22 0000 0000 1800 0224 3a02 4246 4242     ".......$..:FBBB
    9ee4:	3844 0000 0000 7e00 2042 1020 0810 0808     D8.....~B  .....
    9ef4:	0808 0000 0000 3c00 4242 2442 2418 4242     .......<BBB$.$BB
    9f04:	3c42 0000 0000 1c00 4222 4242 5c62 4040     B<......"BBBb\@@
    9f14:	1824 0000 0000 0000 0000 1818 0000 0000     $...............
    9f24:	1818 0000 0000 0000 0000 0800 0000 0000     ................
    9f34:	0800 0808 0000 4000 1020 0408 0402 1008     .......@ .......
    9f44:	4020 0000 0000 0000 0000 007e 7e00 0000      @........~..~..
    9f54:	0000 0000 0000 0200 0804 2010 2040 0810     ........... @ ..
    9f64:	0204 0000 0000 3c00 4242 2046 1010 0010     .......<BBF ....
    9f74:	1818 0000 0000 1c00 5a22 5555 5555 3a55     ........"ZUUUUU:
    9f84:	3c42 0000 0000 0800 1808 1414 3c24 4222     B<..........$<"B
    9f94:	e742 0000 0000 1f00 2222 1e22 4222 4242     B......."""."BBB
    9fa4:	1f22 0000 0000 7c00 4242 0101 0101 4201     "......|BB.....B
    9fb4:	1c22 0000 0000 1f00 4222 4242 4242 4242     "......."BBBBBBB
    9fc4:	1f22 0000 0000 3f00 1242 1e12 1212 4202     "......?B......B
    9fd4:	3f42 0000 0000 3f00 1242 1e12 1212 0202     B?.....?B.......
    9fe4:	0702 0000 0000 3c00 2222 0101 7101 2221     .......<""...q!"
    9ff4:	1c22 0000 0000 e700 4242 4242 427e 4242     ".......BBBB~BBB
    a004:	e742 0000 0000 3e00 0808 0808 0808 0808     B......>........
    a014:	3e08 0000 0000 7c00 1010 1010 1010 1010     .>.....|........
    a024:	1010 0f11 0000 7700 1222 0e0a 120a 2212     .......w"......"
    a034:	7722 0000 0000 0700 0202 0202 0202 0202     "w..............
    a044:	7f42 0000 0000 7700 3636 3636 2a36 2a2a     B......w66666***
    a054:	6b2a 0000 0000 e300 4646 4a4a 5252 6252     *k......FFJJRRRb
    a064:	4762 0000 0000 1c00 4122 4141 4141 4141     bG......"AAAAAAA
    a074:	1c22 0000 0000 3f00 4242 4242 023e 0202     "......?BBBB>...
    a084:	0702 0000 0000 1c00 4122 4141 4141 4d41     ........"AAAAAAM
    a094:	1c32 0060 0000 3f00 4242 3e42 1212 2222     2.`....?BBB>..""
    a0a4:	c742 0000 0000 7c00 4242 0402 2018 4240     B......|BB... @B
    a0b4:	3e42 0000 0000 7f00 0849 0808 0808 0808     B>......I.......
    a0c4:	1c08 0000 0000 e700 4242 4242 4242 4242     ........BBBBBBBB
    a0d4:	3c42 0000 0000 e700 4242 2422 1424 1814     B<......BB"$$...
    a0e4:	0808 0000 0000 6b00 2a2a 2a2a 362a 1414     .......k*****6..
    a0f4:	1414 0000 0000 e700 2442 1824 1818 2424     ........B$$...$$
    a104:	e742 0000 0000 7700 2222 1414 0808 0808     B......w""......
    a114:	1c08 0000 0000 7e00 2021 1010 0408 4204     .......~! .....B
    a124:	3f42 0000 7800 0808 0808 0808 0808 0808     B?...x..........
    a134:	0808 0078 0000 0402 0404 0808 1008 2010     ..x............ 
    a144:	2020 4040 1e00 1010 1010 1010 1010 1010       @@............
    a154:	1010 001e 1800 0024 0000 0000 0000 0000     ......$.........
	...
    a174:	0000 ff00 0600 0008 0000 0000 0000 0000     ................
	...
    a18c:	0000 1c00 3022 222c 6c32 0000 0000 0000     ...."0,"2l......
    a19c:	0203 1a02 4226 4242 1a26 0000 0000 0000     ....&BBB&.......
    a1ac:	0000 3800 0244 0202 3844 0000 0000 0000     ...8D...D8......
    a1bc:	4060 7c40 4242 4242 dc62 0000 0000 0000     `@@|BBBBb.......
    a1cc:	0000 3c00 4242 027e 3c42 0000 0000 0000     ...<BB~.B<......
    a1dc:	4830 3e08 0808 0808 3e08 0000 0000 0000     0H.>.....>......
    a1ec:	0000 7c00 2222 021c 423c 3c42 0000 0000     ...|""..<BB<....
    a1fc:	0203 3a02 4246 4242 e742 0000 0000 0c00     ...:FBBBB.......
    a20c:	000c 0e00 0808 0808 3e08 0000 0000 3000     .........>.....0
    a21c:	0030 3800 2020 2020 2020 1e22 0000 0000     0..8      ".....
    a22c:	0203 7202 0a12 120e 7722 0000 0000 0800     ...r...."w......
    a23c:	080e 0808 0808 0808 3e08 0000 0000 0000     .........>......
    a24c:	0000 7f00 9292 9292 b792 0000 0000 0000     ................
    a25c:	0000 3b00 4246 4242 e742 0000 0000 0000     ...;FBBBB.......
    a26c:	0000 3c00 4242 4242 3c42 0000 0000 0000     ...<BBBBB<......
    a27c:	0000 1b00 4226 4242 1a26 0702 0000 0000     ....&BBB&.......
    a28c:	0000 5800 4264 4242 5864 e040 0000 0000     ...XdBBBdX@.....
    a29c:	0000 7700 044c 0404 1f04 0000 0000 0000     ...wL...........
    a2ac:	0000 7c00 0242 403c 3e42 0000 0000 0000     ...|B.<@B>......
    a2bc:	0800 3e08 0808 0808 3048 0000 0000 0000     ...>....H0......
    a2cc:	0000 6300 4242 4242 dc62 0000 0000 0000     ...cBBBBb.......
    a2dc:	0000 7700 2222 1414 0808 0000 0000 0000     ...w""..........
    a2ec:	0000 db00 5291 2a5a 2424 0000 0000 0000     .....RZ*$$......
    a2fc:	0000 6e00 1824 1818 7624 0000 0000 0000     ...n$...$v......
    a30c:	0000 e700 2442 1824 0818 0608 0000 0000     ....B$$.........
    a31c:	0000 7e00 1022 0808 7e44 0000 c000 2020     ...~"...D~....  
    a32c:	2020 2020 2010 2020 2020 00c0 1010 1010         .     ......
    a33c:	1010 1010 1010 1010 1010 1010 0300 0404     ................
    a34c:	0404 0404 0408 0404 0404 0003 5a04 0020     .............Z .
	...

0000a368 <GPION>:
    a368:	0800 4001 0c00 4001 1000 4001 1400 4001     ...@...@...@...@
    a378:	1800 4001                                   ...@

0000a37c <SPIN>:
    a37c:	3000 4001 3800 4000 3c00 4000               .0.@.8.@.<.@

0000a388 <TIMERN>:
    a388:	2c00 4001 0000 4000 0400 4000 0800 4000     .,.@...@...@...@
    a398:	0c00 4000 3400 4001 4c00 4001 5000 4001     ...@.4.@.L.@.P.@

0000a3a8 <UARTN>:
    a3a8:	3800 4001 4400 4000 4800 4000 4c00 4000     .8.@.D.@.H.@.L.@
    a3b8:	5000 4000 1800 4000 1c00 4000 2000 4000     .P.@...@...@. .@
    a3c8:	0000 0000 0000 3ff0 0000 0000 0000 4018     .......?.......@
    a3d8:	0000 0000 0000 4014 0000 0000 8000 4057     .......@......W@
    a3e8:	0000 0000 0000 403e 0000 0000 c000 405d     ......>@......]@
    a3f8:	0000 0000 6000 4067 0000 0000 0000 4034     .....`g@......4@
    a408:	0000 0000 0000 4010 0000 0000 0000 402e     .......@.......@
    a418:	0000 0000 0000 bff0 4000 461c 0000 0000     .........@.F....
    a428:	0000 0000 0000 3fe0 3333 3333 3333 3fd3     .......?333333.?
    a438:	999a 9999 9999 3fc9 5cc4 0000 5b7a 0000     .......?.\..z[..
    a448:	5a7e 0000 5bf6 0000 5a7e 0000 5b4a 0000     ~Z...[..~Z..J[..
    a458:	59d8 0000 5a7e 0000 5b54 0000 5b6c 0000     .Y..~Z..T[..l[..
    a468:	5ca2 0000 5ca8 0000                         .\...\..

0000a470 <MyCfgDescrHD>:
    a470:	0209 0043 0102 a000 0932 0004 0100 0202     ..C.....2.......
    a480:	0001 2405 1000 0501 0124 0000 2404 0202     ...$....$....$..
    a490:	2405 0006 0701 8105 4003 ff00 0409 0001     .$.......@......
    a4a0:	0a02 0000 0700 0205 4002 0000 0507 0282     .........@......
    a4b0:	0040 0000                                   @...

0000a4b4 <MyDevDescrHD>:
    a4b4:	0112 0200 0002 0800 1a86 5722 0100 0201     .........."W....
    a4c4:	0103 0000                                   ....

0000a4c8 <MyManuInfoHD>:
    a4c8:	030e 0077 0063 0068 002e 0063 006e 0000     ..w.c.h...c.n...

0000a4d8 <MyProdInfoHD>:
    a4d8:	030c 0043 0048 0033 0030 0037               ..C.H.3.0.7.

0000a4e4 <MyReportDescHD>:
    a4e4:	0314 0032 0030 0031 0037 002d 0032 002d     ..2.0.1.7.-.2.-.
    a4f4:	0032 0035                                   2.5.

0000a4f8 <MySerNumInfoHD>:
    a4f8:	0316 0030 0031 0032 0033 0034 0035 0036     ..0.1.2.3.4.5.6.
    a508:	0037 0038 0039 0000                         7.8.9...

0000a510 <MyUSBQUADescHD>:
    a510:	060a 0200 00ff 40ff 0001 0000 420a 7561     .......@.....Bau
    a520:	2064 6152 6574 3d20 2520 0064 640a 7461     d Rate = %d..dat
    a530:	4261 7469 3d20 2520 0064 0000 730a 6f74     aBit = %d....sto
    a540:	4270 7469 3d20 2520 0064 0000 700a 7261     pBit = %d....par
    a550:	7469 5479 7079 2065 203d 6425 0000 0000     ityType = %d....
    a560:	c454 ffff c2d8 ffff c3e8 ffff c3f0 ffff     T...............
    a570:	c3e8 ffff c308 ffff c3e8 ffff c3f0 ffff     ................
    a580:	c2d8 ffff c2d8 ffff c308 ffff c3f0 ffff     ................
    a590:	c44a ffff c44a ffff c44a ffff c308 ffff     J...J...J.......
    a5a0:	cafa ffff c9ec ffff c9ec ffff c9ea ffff     ................
    a5b0:	c9f2 ffff c9f2 ffff c9b8 ffff c9ea ffff     ................
    a5c0:	c9f2 ffff c9b8 ffff c9f2 ffff c9ea ffff     ................
    a5d0:	cae6 ffff cae6 ffff cae6 ffff c9b8 ffff     ................
    a5e0:	dbde ffff db30 ffff db30 ffff db2e ffff     ....0...0.......
    a5f0:	db34 ffff db34 ffff db04 ffff db2e ffff     4...4...........
    a600:	db34 ffff db04 ffff db34 ffff db2e ffff     4.......4.......
    a610:	dbcc ffff dbcc ffff dbcc ffff db04 ffff     ................

0000a620 <__clz_tab>:
    a620:	0100 0202 0303 0303 0404 0404 0404 0404     ................
    a630:	0505 0505 0505 0505 0505 0505 0505 0505     ................
    a640:	0606 0606 0606 0606 0606 0606 0606 0606     ................
    a650:	0606 0606 0606 0606 0606 0606 0606 0606     ................
    a660:	0707 0707 0707 0707 0707 0707 0707 0707     ................
    a670:	0707 0707 0707 0707 0707 0707 0707 0707     ................
    a680:	0707 0707 0707 0707 0707 0707 0707 0707     ................
    a690:	0707 0707 0707 0707 0707 0707 0707 0707     ................
    a6a0:	0808 0808 0808 0808 0808 0808 0808 0808     ................
    a6b0:	0808 0808 0808 0808 0808 0808 0808 0808     ................
    a6c0:	0808 0808 0808 0808 0808 0808 0808 0808     ................
    a6d0:	0808 0808 0808 0808 0808 0808 0808 0808     ................
    a6e0:	0808 0808 0808 0808 0808 0808 0808 0808     ................
    a6f0:	0808 0808 0808 0808 0808 0808 0808 0808     ................
    a700:	0808 0808 0808 0808 0808 0808 0808 0808     ................
    a710:	0808 0808 0808 0808 0808 0808 0808 0808     ................
    a720:	202c 7566 636e 6974 6e6f 203a 0000 0000     , function: ....
    a730:	7361 6573 7472 6f69 206e 2522 2273 6620     assertion "%s" f
    a740:	6961 656c 3a64 6620 6c69 2065 2522 2273     ailed: file "%s"
    a750:	202c 696c 656e 2520 2564 2573 0a73 0000     , line %d%s%s...
    a760:	2d23 2b30 0020 0000 6c68 004c 6665 4567     #-0+ ...hlL.efgE
    a770:	4746 0000 3130 3332 3534 3736 3938 4241     FG..0123456789AB
    a780:	4443 4645 0000 0000 3130 3332 3534 3736     CDEF....01234567
    a790:	3938 6261 6463 6665 0000 0000               89abcdef....

0000a79c <__sf_fake_stderr>:
	...

0000a7bc <__sf_fake_stdin>:
	...

0000a7dc <__sf_fake_stdout>:
	...
